00001  0000             ;COLOR CONSTANTS
00002  0001             BLACK      = $00
00003  0001             WHITE      = $01
00004  0001             RED        = $02
00005  0001             CYAN       = $03
00006  0001             PURPLE     = $04
00007  0001             GREEN      = $05
00008  0001             BLUE       = $06
00009  0001             YELLOW     = $07
00010  0001             ORANGE     = $08
00011  0001             BROWN      = $09
00012  0001             LIGHT_RED  = $0A
00013  0001             DARK_GRAY  = $0B
00014  0001             MEDIUM_GRAY = $0C
00015  0001             LIGHT_GREEN = $0D
00016  0001             LIGHT_BLUE = $0E
00017  0001             LIGHT_GRAY = $0F
00018  0001             
00019  0001             ;KEY CONSTANT
00020  0001             KEY_O      = $4F
00021  0001             KEY_P      = $50
00022  0001             KEY_Q      = $51
00023  0001             KEY_A      = $41
00024  0001             KEY_F      = $46
00025  0001             KEY_J      = $4A
00026  0001             KEY_G      = $47
00027  0001             KEY_C      = $43
00028  0001             KEY_1      = $31
00029  0001             KEY_2      = $32
00030  0001             KEY_ENTER  = $0D
00031  0001             
00032  0001             ;CONSTANTES DE SONIDOS
00033  0001             SND_PASOS  = 1
00034  0001             SND_SALTO  = 2
00035  0001             SND_OBJETO = 4
00036  0001             SND_MORIR  = 5
00037  0001             SND_GAMEOVER = 6
00038  0001             SND_GOTA   = 7
00039  0001             SND_PUERTA = 8
00040  0001             SND_TRANSPORT = 9
00041  0001             SND_SILENCIO = $FF
00042  0001             
00043  0001             ;VIC CONSTANTS
00044  0001             VIC_SPRITE_X_POS = $D000
00045  0001             VIC_SPRITE_Y_POS = $D001
00046  0001             VIC_SPRITE_X_EXTEND = $D010
00047  0001             VIC_SCREEN_CONTROL = $D011
00048  0001             VIC_SPRITE_ENABLE = $D015
00049  0001             VIC_CONTROL = $D016
00050  0001             VIC_MEMORY_CONTROL = $D018
00051  0001             VIC_SPRITE_PRIORITY = $D01B
00052  0001             
00053  0001             VIC_BORDER_COLOR = $D020
00054  0001             VIC_BACKGROUND_COLOR = $D021
00055  0001             
00056  0001             ;CONSTANTES VARIAS
00057  0001             CIA_PRA    = $DD00
00058  0001             JOYSTICK   = $DC00
00059  0001             KERNAL_GETIN = $FFE4
00060  0001             CIA_PORT_A = $DC00
00061  0001             CIA_PORT_B = $DC01
00062  0001             CIA_DATA_DIRECTION_A = $DC02
00063  0001             CIA_DATA_DIRECTION_B = $DC03
00064  0001             
00065  0001             SID_VOLUME = $D418
00066  0001             
00067  0001             ;PARÁMETROS TEMPORALES
00068  0001             PARAM1     = $03
00069  0001             PARAM2     = $04
00070  0001             PARAM3     = $05
00071  0001             PARAM4     = $06
00072  0001             PARAM5     = $07
00073  0001             PARAM6     = $08
00074  0001             PARAM7     = $09
00075  0001             PARAM8     = $0A
00076  0001             
00077  0001             ;PUNTEROS A PÁGINA 0
00078  0001             ZEROPAGE_POINTER_1 = $17
00079  0001             ZEROPAGE_POINTER_2 = $19
00080  0001             ZEROPAGE_POINTER_3 = $21
00081  0001             ZEROPAGE_POINTER_4 = $23
00082  0001             
00083  0001             ;ADDRESS OF THE SCREEN BUFFER
00084  0001             SCREEN_CHAR = $CC00
00085  0001             ;ADDRESS OF COLOR RAM
00086  0001             SCREEN_COLOR = $D800
00087  0001             ;DIRECCIÓN DEL BUFFER DE PANTALLA DONDE EMPIEZA EL MARCADOR
00088  0001             SCREEN_SCORE_CHAR = $CEA8
00089  0001             ;DIRECCIÓN DE LA RAM DE COLOR DONDE EMPIEZA EL MARCADOR
00090  0001             SCREEN_SCORE_COLOR = $DAA8
00091  0001             ;DIRECCIÓN DE MEMORIA DEL COLOR DE LA PARTE GRÁFICA
00092  0001             BITMAP_SCREEN_COLOR = $06F8
00093  0001             
00094  0001             ;COLOR DEL PERGAMINO PARA HACER QUE APAREZCA OA DESAPAREZCA
00095  0001             PERGAMINO_OFF = $00
00096  0001             PERGAMINO_ON = $07
00097  0001             
00098  0001             ;INICIO DE LAS DOS FILAS DEL INVENTARIO EN MODO GRÁFICO POS 1 Y 2
00099  0001             BITMAP_PERGAMINO_ADDR_FILA_1_1 = $3990
00100  0001             BITMAP_PERGAMINO_ADDR_FILA_2_1 = $3AD0
00101  0001             
00102  0001             BITMAP_PERGAMINO_ADDR_FILA_1_2 = $39A0
00103  0001             BITMAP_PERGAMINO_ADDR_FILA_2_2 = $3AE0
00104  0001             
00105  0001             ;POSICIÓN EN MEMORIA DE VIDEO DONDE ESTÁ EL NÚMERO DE PANTALLAS
00106  0001             SCREEN_VISIT = $CEBA
00107  0001             ;POSICION EN MEMORIA DE VIDEO DONDE ESTÁN LAS VIDAS
00108  0001             SCREEN_LIVES = $CEC7
00109  0001             
00110  0001             ;NUMBER OF SPRITES DIVIDED BY FOUR
00111  0001             NUMBER_OF_SPRITES_DIV_4 = 35
00112  0001             
00113  0001             ;ADDRESS OF SPRITE POINTERS
00114  0001             SPRITE_POINTER_BASE = SCREEN_CHAR + 1016
00115  0001             
00116  0001             ;SPRITE NUMBER CONSTANTS
00117  0001             SPRITE_BASE = 64
00118  0001             
00119  0001             SPRITE_PLAYER = SPRITE_BASE + 0
00120  0001             SPRITE_GOTA = SPRITE_BASE + 12
00121  0001             SPRITE_MURCIELAGO_L = SPRITE_BASE + 17
00122  0001             SPRITE_MURCIELAGO_R = SPRITE_BASE + 23
00123  0001             SPRITE_PLANO = SPRITE_BASE + 29
00124  0001             SPRITE_KEY_1 = SPRITE_BASE + 37
00125  0001             SPRITE_MOSCAS = SPRITE_BASE + 38
00126  0001             SPRITE_PALMAS = SPRITE_BASE + 42
00127  0001             SPRITE_SERPIENTE_L = SPRITE_BASE + 46
00128  0001             SPRITE_SERPIENTE_R = SPRITE_BASE + 50
00129  0001             SPRITE_MAZO = SPRITE_BASE + 54
00130  0001             SPRITE_ARANA = SPRITE_BASE + 60
00131  0001             SPRITE_MOMIA_L = SPRITE_BASE + 65
00132  0001             SPRITE_MOMIA_R = SPRITE_BASE + 69
00133  0001             SPRITE_PINCHOS_1 = SPRITE_BASE + 73
00134  0001             SPRITE_PINCHOS_2 = SPRITE_BASE + 74
00135  0001             SPRITE_LOCK_1 = SPRITE_BASE + 75
00136  0001             SPRITE_KEY_2 = SPRITE_BASE + 77
00137  0001             SPRITE_TRANSPORTER_1 = SPRITE_BASE + 78
00138  0001             SPRITE_BOLA = SPRITE_BASE + 79
00139  0001             SPRITE_ARO = SPRITE_BASE + 81
00140  0001             SPRITE_KEY_3 = SPRITE_BASE + 87
00141  0001             SPRITE_LOCK_3 = SPRITE_BASE + 88
00142  0001             SPRITE_RAYO = SPRITE_BASE + 90
00143  0001             SPRITE_KEY_4 = SPRITE_BASE + 93
00144  0001             SPRITE_LOCK_4 = SPRITE_BASE + 94
00145  0001             SPRITE_DIAMANTE_L = SPRITE_BASE + 96
00146  0001             SPRITE_DIAMANTE_R = SPRITE_BASE + 97
00147  0001             SPRITE_KEY_5 = SPRITE_BASE + 98
00148  0001             SPRITE_LOCK_2 = SPRITE_BASE + 99
00149  0001             SPRITE_KEY_6 = SPRITE_BASE + 101
00150  0001             SPRITE_LOCK_6 = SPRITE_BASE + 102
00151  0001             SPRITE_TRANSPORTER_2 = SPRITE_BASE + 104
00152  0001             SPRITE_ESTALACTITA = SPRITE_BASE + 106
00153  0001             SPRITE_VOLCAN = SPRITE_BASE + 111
00154  0001             SPRITE_KEY_7 = SPRITE_BASE + 116
00155  0001             SPRITE_LOCK_7 = SPRITE_BASE + 117
00156  0001             SPRITE_KEY_8 = SPRITE_BASE + 119
00157  0001             SPRITE_PEZ_U = SPRITE_BASE + 120
00158  0001             SPRITE_PEZ_D = SPRITE_BASE + 124
00159  0001             SPRITE_FLECHA = SPRITE_BASE + 128
00160  0001             SPRITE_LOCK_8 = SPRITE_BASE + 129
00161  0001             SPRITE_KEY_9 = SPRITE_BASE + 131
00162  0001             SPRITE_LOCK_9 = SPRITE_BASE + 132
00163  0001             SPRITE_KEY_10 = SPRITE_BASE + 134
00164  0001             SPRITE_LOCK_10_2 = SPRITE_BASE + 135
00165  0001             SPRITE_LOCK_10 = SPRITE_BASE + 137
00166  0001             
00167  0001             SPRITE_COLOR_BASE = $D027
00168  0001             
00169  0001             ;REGISTRO DE COLISIÓN DE SPRITES
00170  0001             SPRITE_COLLISION = $D01E
00171  0001             
00172  0001             BACKGROUND_COLLISION = $D01F
00173  0001             
00174  0001             ;ENTRIES OF JUMP TABLE
00175  0001             JUMP_TABLE_SIZE_LONG = 20
00176  0001             JUMP_TABLE_SIZE_SHORT = 13
00177  0001             
00178  0001             ;ENTRIES OF FALL TABLE
00179  0001             FALL_TABLE_SIZE = 10
00180  0001             
00181  0001             ;CONSTANTES DE VELOCIDAD DE MOVIMIENTO Y ANIMACIÓN
00182  0001             CONST_PLAYER_ANIM_DELAY = 3
00183  0001             ;CONST_PLAYER_MOV_DELAY  = 0
00184  0001             
00185  0001             ;CONSTANTES DE LOS ENEMIGOS
00186  0001             SP_PLAYER  = 0
00187  0001             SP_GOTA    = 1
00188  0001             SP_MURCIELAGO = 2
00189  0001             SP_PLANO   = 3
00190  0001             SP_MOSCAS  = 4
00191  0001             SP_PALMAS  = 5
00192  0001             SP_SERPIENTE = 6
00193  0001             SP_MAZO    = 7
00194  0001             SP_ARANA   = 8
00195  0001             SP_MOMIA   = 9
00196  0001             SP_PINCHOS_1 = 10
00197  0001             SP_PINCHOS_2 = 11
00198  0001             SP_BOLA    = 12
00199  0001             SP_ARO     = 13
00200  0001             SP_RAYO    = 14
00201  0001             SP_DIAMANTE_L = 15
00202  0001             SP_DIAMANTE_R = 16
00203  0001             SP_ESTALACTITA = 17
00204  0001             SP_VOLCAN  = 18
00205  0001             SP_GOTA_2  = 19
00206  0001             SP_PEZ     = 20
00207  0001             SP_FLECHA  = 21
00208  0001             SP_RAYO_2  = 22
00209  0001             
00210  0001             ;CONSTANTES DE LAS CERRADURAS
00211  0001             SP_START_LOCKS = 50
00212  0001             SP_LOCK_1  = 51
00213  0001             SP_LOCK_2  = 52
00214  0001             SP_LOCK_3  = 53
00215  0001             SP_LOCK_4  = 54
00216  0001             SP_LOCK_6  = 56
00217  0001             SP_LOCK_7  = 57
00218  0001             SP_LOCK_8  = 58
00219  0001             SP_LOCK_9  = 59
00220  0001             SP_LOCK_10 = 60
00221  0001             SP_LOCK_10_2 = 61
00222  0001             
00223  0001             ;CONSTANTES DE LOS TRANSPORTADORES
00224  0001             SP_START_TRANSPORTERS = 70
00225  0001             SP_TRANSPORTER_1 = 71
00226  0001             SP_TRANSPORTER_2 = 72
00227  0001             
00228  0001             ;CONSTANTES DE LAS LLAVES
00229  0001             SP_START_KEYS = 90
00230  0001             SP_KEY_1   = 91
00231  0001             SP_KEY_2   = 92
00232  0001             SP_KEY_3   = 93
00233  0001             SP_KEY_4   = 94
00234  0001             SP_KEY_5   = 95
00235  0001             SP_KEY_6   = 96
00236  0001             SP_KEY_7   = 97
00237  0001             SP_KEY_8   = 98
00238  0001             SP_KEY_9   = 99
00239  0001             SP_KEY_10  = 100
00240  0001             
00241  0001             
00242  0001             ;TIPOS DE MOVIMIENTO DE LOS SPRITES
00243  0001             SP_NONE    = 0       ;SPRITES QUE NO SE MUEVEN
00244  0001             SP_LR      = 1       ;SPRITES QUE VAN DE IZQUIERDA A DERECHA
00245  0001             SP_R       = 2       ;SPRITES QUE VAN SOLO A LA DERECHA (LA FLECHA)
00246  0001             SP_UD      = 3       ;SPRITES QUE VAN DE ARRIBA A ABAJO
00247  0001             SP_D       = 4       ;SPRITES QUE SOLO BAJAN (GOTAS)
00248  0001             
00249  0001             ;CONSTANTES DE MOVIMIENTO
00250  0001             MOVE_UP    = $00
00251  0001             MOVE_DOWN  = $FF
00252  0001             MOVE_LEFT  = $00
00253  0001             MOVE_RIGHT = $FF
00254  0001             
00255  0001             ;CONSTANTES DE CHARSET
00256  0001             CS_GEN     = 1
00257  0001             CS_ESF     = 2
00258  0001             CS_INI     = 3
00259  0001             ;CS_PGR          = 4
00260  0001             CS_FIN     = 5
00261  0001             
00262  0001             ;THIS CREATES A BASIC START
00263  0001             *=$0801
00264  0801                        ;SYS 2064
00265  0801  0C 08 0A              BYTE $0C,$08,$0A,$00,$9E,$20,$32,$30,$36,$34,$00,$00,$00,$00,$00
00266  0810             
00267  0810                        ;DESAHILITAR SPRITES
00268  0810  A9 00                 LDA #0
00269  0812  8D 15 D0              STA VIC_SPRITE_ENABLE
00270  0815                        
00271  0815                        ;SET CHARSET
00272  0815                        ;LDA #$3C
00273  0815  A9 3E                 LDA #$3E
00274  0817  8D 18 D0              STA VIC_MEMORY_CONTROL
00275  081A             
00276  081A                        ;VIC BANK
00277  081A  AD 00 DD              LDA CIA_PRA
00278  081D  29 FC                 AND #$FC
00279  081F  8D 00 DD              STA CIA_PRA
00280  0822                        
00281  0822  78                    SEI             ;SE DESHABILITAN LAS INTERRUPCIONES
00282  0823  A5 01                 LDA $01         ;SE GUARDA LA CONFIGURACIÓN
00283  0825  85 03                 STA PARAM1
00284  0827  A9 30                 LDA #%00110000  ;ONLY RAM - TO COPY UNDER THE IO ROM
00285  0829  85 01                 STA $01
00286  082B                        ;JSR COPYCHARSET
00287  082B  20 6C 1C              JSR COPYSPRITES
00288  082E  A5 03                 LDA PARAM1            ;SE RESTAURAN LAS ROMS
00289  0830  85 01                 STA $01
00290  0832  58                    CLI
00291  0833                        
00292  0833                        ;DESHABILITA COMMODORE-SHIFT
00293  0833  A9 80                 LDA #128
00294  0835  8D 91 02              STA $0291
00295  0838             
00296  0838                        ;ESTABLECE LAS DIRECCIONES DE LOS DATOS DE LOS PUERTOS A Y B DE LA CIA
00297  0838  A9 FF                 LDA #$FF
00298  083A  8D 02 DC              STA CIA_DATA_DIRECTION_A
00299  083D  A9 00                 LDA #$00
00300  083F  8D 03 DC              STA CIA_DATA_DIRECTION_B
00301  0842             
00302  0842                        ;HABILITA LA REPETICIÓN DE TECLAS
00303  0842  8D 8A 02              STA $028A
00304  0845             
00305  0845                        ;INICIA EL SID PARA CREAR NÚMEROS ALEATORIOS
00306  0845  A9 FF                 LDA #$FF  ; MAXIMUM FREQUENCY VALUE
00307  0847  8D 0E D4              STA $D40E ; VOICE 3 FREQUENCY LOW BYTE
00308  084A  8D 0F D4              STA $D40F ; VOICE 3 FREQUENCY HIGH BYTE
00309  084D  A9 80                 LDA #$80  ; NOISE WAVEFORM, GATE BIT OFF
00310  084F  8D 12 D4              STA $D412 ; VOICE 3 CONTROL REGISTER
00311  0852             
00312  0852  20 76 34              JSR RELLENARBITMAPMEMORY        ;SE CARGA LA PARTE INFERIOR DE LA PANTALLA
00313  0855  20 91 1C              JSR COPYBITMAPCOLOR             ;SE CARGA EL COLOR DE LA PARTE INFERIOR DE LA PANTALLA
00314  0858  20 3E 1E              JSR CARGARTABLASCREENS  ;SE CARGA LA TABLA CON LOS INICIOS DE LAS PANTALLAS
00315  085B             
00316  085B  20 12 1C              JSR WAITFRAME
00317  085E  20 EC 33              JSR INITTITLEIRQ
00318  0861             
00319  0861             ;==========================
00320  0861             ;        LDA $0
00321  0861             ;        STA SCREEN_CHAR
00322  0861             ;        LDA $1
00323  0861             ;        STA SCREEN_COLOR
00324  0861             ;        STA SCREEN_COLOR+1
00325  0861             ;        STA SCREEN_COLOR+2
00326  0861             
00327  0861             ;        STA SCREEN_COLOR+4
00328  0861             ;        STA SCREEN_COLOR+5
00329  0861             ;        STA SCREEN_COLOR+6
00330  0861             ;        STA SCREEN_COLOR+7
00331  0861             
00332  0861             ;        STA SCREEN_COLOR+40
00333  0861             ;        STA SCREEN_COLOR+41
00334  0861             ;        STA SCREEN_COLOR+42
00335  0861             ;        STA SCREEN_COLOR+6
00336  0861             ;
00337  0861             ;==========================
00338  0861             
00339  0861             
00340  0861             INICIO
00341  0861  A9 FF                 LDA #SND_SILENCIO
00342  0863  20 9C 25              JSR INITPICKEDFX
00343  0866             
00344  0866  A9 00                 LDA #0
00345  0868  20 00 2C              JSR MUSIC_PLAYER
00346  086B             
00347  086B             INICIOTRASINSTRUCCIONES 
00348  086B  20 2C 0C              JSR BORRAPANTALLA       ;SE BORRA LA PANTALLA
00349  086E  20 ED 15              JSR RESETSCREENVISIT    ;SE RESETEAN LAS PANTALLAS VISITADAS
00350  0871  20 C6 13              JSR VACIARINVENTARIO    ;SE VACIA EL INVENTARIO
00351  0874             
00352  0874  A9 00                 LDA #PERGAMINO_OFF
00353  0876  20 98 34              JSR PONERQUITARPERGAMINO
00354  0879             
00355  0879  A9 00                 LDA #0
00356  087B  8D 43 28              STA CUR_SCREEN
00357  087E             
00358  087E             ;        ;SE CARGA EL CHARSET DE INICIO DE JUEGO
00359  087E  20 55 0B              JSR CHECKCAMBIOSDECHARSET
00360  0881             
00361  0881             ;        ;SE CARGA LA PANTALLA DE PRESENTACIÓN
00362  0881  20 4E 1A              JSR BUILDSCREEN
00363  0884             
00364  0884                        ;SE DESHABILITAN LOS SPRITES
00365  0884  A9 00                 LDA #0
00366  0886  8D 15 D0              STA VIC_SPRITE_ENABLE
00367  0889             
00368  0889                        ;INITIALISE MUSIC PLAYER
00369  0889                        ;LDA #15
00370  0889                        ;STA SID_VOLUME
00371  0889                        
00372  0889             WAITKEYPRESSINICIO 
00373  0889  20 24 1C              JSR WAITFRAME2
00374  088C  20 E4 FF              JSR KERNAL_GETIN
00375  088F  D0 0A                 BNE TECLAPULSADA
00376  0891             
00377  0891  AD 00 DC              LDA JOYSTICK
00378  0894  29 10                 AND #$10
00379  0896  F0 1F                 BEQ CARGARPRIMERAPANTALLA
00380  0898  4C 89 08              JMP WAITKEYPRESSINICIO
00381  089B             
00382  089B             TECLAPULSADA 
00383  089B  C9 31                 CMP #KEY_1              ;SI SE PULSA 1 SE INICIA LA PARTIDA
00384  089D  F0 18                 BEQ CARGARPRIMERAPANTALLA
00385  089F  C9 32                 CMP #KEY_2              ;SI SE PULSA 2 SE MUESTRAN LAS INSTRUCCIONES
00386  08A1  F0 03                 BEQ MOSTRARINSTRUCCIONES
00387  08A3  4C 89 08              JMP WAITKEYPRESSINICIO
00388  08A6             
00389  08A6             
00390  08A6             MOSTRARINSTRUCCIONES ;SE MUESTRAN LAS INSTRUCCIONES
00391  08A6                        ;JSR BORRAPANTALLA
00392  08A6  20 3B 0C              JSR BORRAZONAJUEGO
00393  08A9  20 BE 19              JSR BUILDINSTRUCCIONES
00394  08AC                        ;JSR FININSTRUCCIONESDATOS
00395  08AC             
00396  08AC             WAITKEYPRESSINSTRUCCIONES 
00397  08AC  20 24 1C              JSR WAITFRAME2
00398  08AF  20 E4 FF              JSR KERNAL_GETIN
00399  08B2  F0 F8                 BEQ WAITKEYPRESSINSTRUCCIONES
00400  08B4             
00401  08B4  4C 6B 08              JMP INICIOTRASINSTRUCCIONES
00402  08B7             ;        CMP #KEY_ENTER          ;SE ESPERA A QUE SE PULSE ENTER PARA VOLVER AL MENÚ PRINCIPAL
00403  08B7             ;        BEQ INICIO
00404  08B7             ;        JMP WAITKEYPRESSINSTRUCCIONES
00405  08B7             
00406  08B7             
00407  08B7             CARGARPRIMERAPANTALLA 
00408  08B7  20 F0 08              JSR INITGAME
00409  08BA             
00410  08BA  20 75 25              JSR INITSOUNDS
00411  08BD             
00412  08BD  A9 FF                 LDA #SND_SILENCIO
00413  08BF  20 9C 25              JSR INITPICKEDFX
00414  08C2                        
00415  08C2             ;BUCLE PRINCIPAL
00416  08C2             GAMELOOP   
00417  08C2  20 12 1C              JSR WAITFRAME           ;SE ESPERA A QUE SE DIBUJE EL FRAME
00418  08C5             
00419  08C5  20 AC 1C              JSR PLAYERCONTROL       ;SE MUEVE EL PROTAGONISTA
00420  08C8  20 85 0C              JSR MOVEENEMIES         ;SE MUEVEN LOS ENEMIGOS
00421  08CB                        
00422  08CB  20 4E 0F              JSR CHECKCOLLISION      ;SE COMPRUEBA SI HAY COLISIÓN
00423  08CE  D0 91                 BNE INICIO              ;SI NO QUEDAN VIDAS SE TERMINA LA PARTIDA
00424  08D0             
00425  08D0  20 B1 0A              JSR CHECKCAMBIOPANTALLA ;SE COMPRUEBA SI SE HA CAMBIADO DE PANTALLA
00426  08D3  D0 8C                 BNE INICIO              ;SI NO QUEDAN VIDAS SE TERMINA LA PARTIDA, PARA EL CASO DE MORIR POR EL AGUA
00427  08D5             
00428  08D5  AD 43 28              LDA CUR_SCREEN
00429  08D8  C9 2D                 CMP #45
00430  08DA  D0 06                 BNE NOFINAL
00431  08DC  20 3D 09              JSR PANTALLAFINAL
00432  08DF  4C 61 08              JMP INICIO
00433  08E2             
00434  08E2                        ;JSR MOSTRARCOORDENADAS
00435  08E2             NOFINAL
00436  08E2  20 E4 FF              JSR KERNAL_GETIN        ;COMPROBACIÓN DE TECLAS PARA DEBUG
00437  08E5  F0 06                 BEQ ENDLOOP
00438  08E7  20 50 09              JSR TECLASCHEAT
00439  08EA  20 5D 09              JSR TECLASDEBUG
00440  08ED             
00441  08ED             ENDLOOP
00442  08ED             ;        LDA VALOR_DIAMANTE
00443  08ED             ;        CLC
00444  08ED             ;        ADC #48
00445  08ED             ;        STA SCREEN_CHAR
00446  08ED             ;        LDA $1
00447  08ED             ;        STA SCREEN_COLOR
00448  08ED             
00449  08ED             ;        LDA VIC_SPRITE_X_POS
00450  08ED             ;        STA SCREEN_CHAR + 2
00451  08ED             ;        LDA $1
00452  08ED             ;        STA SCREEN_COLOR + 2
00453  08ED             
00454  08ED  4C C2 08              JMP GAMELOOP
00455  08F0             
00456  08F0             
00457  08F0             
00458  08F0             
00459  08F0             ;---------------------------------------------------------------
00460  08F0             ;INITGAME
00461  08F0             ;INICIALIZA LA PARTIDA
00462  08F0             ;---------------------------------------------------------------
00463  08F0             INITGAME
00464  08F0             ;        LDA #SP_KEY_9
00465  08F0             ;        STA INVENTARIO
00466  08F0             ;        JSR MOSTRARINVENTARIO
00467  08F0                        ;LDA #SP_LOCK_4
00468  08F0                        ;TAY
00469  08F0                        ;JSR TOCARCERRADURA
00470  08F0             
00471  08F0  A9 07                 LDA #PERGAMINO_ON
00472  08F2  20 98 34              JSR PONERQUITARPERGAMINO
00473  08F5             
00474  08F5  20 3B 0C              JSR BORRAZONAJUEGO
00475  08F8  20 16 0A              JSR ELEGIRCOLORDIAMANTE ;SE ELIGE EL COLOR DEL DIAMANTE
00476  08FB             
00477  08FB                        ;SE RESETEAN LAS PUERTAS ABIERTAS Y LOS SALTOS
00478  08FB  A9 00                 LDA #0
00479  08FD  8D 9D 2A              STA PUERTAS_ABIERTAS
00480  0900  8D 9E 2A              STA PUERTAS_ABIERTAS + 1
00481  0903  8D B8 28              STA PLAYER_ENTRADA_JUMP_POS
00482  0906  8D B9 28              STA PLAYER_ENTRADA_FALL_POS
00483  0909             
00484  0909                        ;SE CARGA LA PRIMERA PANTALLA
00485  0909                        ;LDA #36
00486  0909  A9 01                 LDA #1
00487  090B  8D 43 28              STA CUR_SCREEN
00488  090E             ;        ;SE CARGA EL CHARSET DE INICIO DE JUEGO
00489  090E  20 55 0B              JSR CHECKCAMBIOSDECHARSET
00490  0911  20 4E 1A              JSR BUILDSCREEN
00491  0914  20 87 19              JSR BUILDSCOREPANEL
00492  0917             
00493  0917  20 1E 09              JSR INITPLAYER
00494  091A             
00495  091A                        ;SE BORRAN LAS POSIBLE COLISIONES INICIALES
00496  091A  AD 1E D0              LDA SPRITE_COLLISION
00497  091D             
00498  091D  60                    RTS
00499  091E             
00500  091E             ;---------------------------------------------------------------
00501  091E             ;INITPLAYER
00502  091E             ;INICIALIZA LA POSICIÓN DEL JUGADOR Y SU ESTADO
00503  091E             ;---------------------------------------------------------------
00504  091E             INITPLAYER 
00505  091E                        ;SE FIJA LA POSICIÓN DEL PROTAGONISTA EN LA PANTALLA
00506  091E                        ;LDA #20
00507  091E  A9 0B                 LDA #11
00508  0920  8D B6 28              STA PLAYER_POS_ENTRADA_PANTALLA_X
00509  0923  85 03                 STA PARAM1
00510  0925                        ;LDA #6
00511  0925  A9 0E                 LDA #14
00512  0927  8D B7 28              STA PLAYER_POS_ENTRADA_PANTALLA_Y
00513  092A  85 04                 STA PARAM2
00514  092C  A9 00                 LDA #0
00515  092E  AA                    TAX
00516  092F  20 39 19              JSR CALCSPRITEPOSFROMCHARPOS
00517  0932             
00518  0932                        ;SE CARGA LA IMAGEN DEL PROTAGONISTA Y SU COLOR
00519  0932  A9 40                 LDA #SPRITE_PLAYER
00520  0934  8D F8 CF              STA SPRITE_POINTER_BASE
00521  0937                        ;SET SPRITE COLOR
00522  0937  A9 0A                 LDA #LIGHT_RED
00523  0939  8D 27 D0              STA SPRITE_COLOR_BASE
00524  093C             
00525  093C  60                    RTS
00526  093D             
00527  093D             
00528  093D             ;---------------------------------------------------------------
00529  093D             ;PANTALLAFINAL
00530  093D             ;ESPERA A QUE SE PULSE ENTER EN LA PANTALLA FINAL
00531  093D             ;---------------------------------------------------------------
00532  093D             PANTALLAFINAL 
00533  093D  A9 00                 LDA #0
00534  093F  8D 15 D0              STA VIC_SPRITE_ENABLE   ;SE DESHABILITAN LOS SPRITES
00535  0942             
00536  0942  A9 00                 LDA #0
00537  0944  20 00 2C              JSR MUSIC_PLAYER
00538  0947             
00539  0947             WAITKEYPRESSFIN 
00540  0947  20 24 1C              JSR WAITFRAME2
00541  094A  20 E4 FF              JSR KERNAL_GETIN
00542  094D  F0 F8                 BEQ WAITKEYPRESSFIN
00543  094F             
00544  094F             ;        CMP #KEY_ENTER              ;SI SE PULSA ENTER SE VUELVE AL INICIO
00545  094F             ;        BNE WAITKEYPRESSFIN
00546  094F             
00547  094F  60                    RTS
00548  0950             
00549  0950             
00550  0950             ;---------------------------------------------------------------
00551  0950             ;TECLASCHEAT
00552  0950             ;ACTIVA O DESACTIVA LAS VIDAS INFINITAS
00553  0950             ;---------------------------------------------------------------
00554  0950             TECLASCHEAT 
00555  0950  C9 31                 CMP #KEY_1
00556  0952  D0 08                 BNE FINTECLASCHEAT
00557  0954  AD AC 2A              LDA CHEAT_INFINITAS
00558  0957  49 FF                 EOR #$FF
00559  0959  8D AC 2A              STA CHEAT_INFINITAS
00560  095C             ;        JMP FINTECLASCHEAT
00561  095C             
00562  095C             ;CHECKKEY2
00563  095C             ;        CMP #KEY_2
00564  095C             ;        BNE FINTECLASCHEAT
00565  095C             ;        LDA CHEAT_NO_COLISION
00566  095C             ;        EOR #$FF
00567  095C             ;        STA CHEAT_NO_COLISION
00568  095C             
00569  095C             FINTECLASCHEAT 
00570  095C  60                    RTS
00571  095D             
00572  095D             
00573  095D             
00574  095D             ;---------------------------------------------------------------
00575  095D             ;TECLASDEBUG
00576  095D             ;COMPRUEBA SI SE HA ESCRITO EL CÓDIGO PARA ENTRAR EN MODO DEBUG
00577  095D             ;Y PERMITE CAMBIAR DE PANTALLA Y COLOCAR AL PROTAGONISTA EN LA MISMA
00578  095D             ;---------------------------------------------------------------
00579  095D             TECLASDEBUG 
00580  095D  AE A1 2A              LDX TECLAS_DEBUG_POS
00581  0960  9D A2 2A              STA TECLAS_DEBUG,X
00582  0963             
00583  0963  E0 03                 CPX #3                  ;SE COMPRUEBA SI SE HA LLENADO EL BUFFER
00584  0965  F0 06                 BEQ BUFFERLLENO
00585  0967  EE A1 2A              INC TECLAS_DEBUG_POS
00586  096A  4C E9 09              JMP FINTECLASDEBUG
00587  096D             
00588  096D             BUFFERLLENO 
00589  096D  A9 00                 LDA #0
00590  096F  8D A1 2A              STA TECLAS_DEBUG_POS
00591  0972             
00592  0972                        ;SE COMPRUEBA SI SE HA ESCRITO EL CÓDIGO CORRECTO
00593  0972  A2 00                 LDX #0
00594  0974  BD A2 2A              LDA TECLAS_DEBUG,X
00595  0977  C9 46                 CMP #KEY_F        ;F
00596  0979  D0 6E                 BNE FINTECLASDEBUG
00597  097B  E8                    INX
00598  097C  BD A2 2A              LDA TECLAS_DEBUG,X
00599  097F  C9 4A                 CMP #KEY_J        ;J
00600  0981  D0 66                 BNE FINTECLASDEBUG
00601  0983  E8                    INX
00602  0984  BD A2 2A              LDA TECLAS_DEBUG,X
00603  0987  C9 47                 CMP #KEY_G        ;G
00604  0989  D0 5E                 BNE FINTECLASDEBUG
00605  098B  E8                    INX
00606  098C  BD A2 2A              LDA TECLAS_DEBUG,X
00607  098F  C9 43                 CMP #KEY_C        ;C
00608  0991  D0 56                 BNE FINTECLASDEBUG
00609  0993             
00610  0993                        ;SE OBTIENE EL NÚMERO DE PANTALLA A VISITAR
00611  0993  20 ED 09              JSR OBTENERCIFRAS
00612  0996  F0 51                 BEQ FINTECLASDEBUG
00613  0998             
00614  0998                        ;SE CAMBIA DE PANTALLA
00615  0998  8D 43 28              STA CUR_SCREEN
00616  099B             
00617  099B  20 55 0B              JSR CHECKCAMBIOSDECHARSET       ;SE COMPRUEBA SI HAY CAMBIO DE CHARSET
00618  099E             
00619  099E  20 4E 1A              JSR BUILDSCREEN
00620  09A1  20 12 1C              JSR WAITFRAME
00621  09A4                        
00622  09A4                        ;SE CARGA LA POSICIÓN DEL PROTAGONISTA
00623  09A4  AD 9E 28              LDA SPRITE_CHAR_POS_X
00624  09A7  85 03                 STA PARAM1
00625  09A9  AD AA 28              LDA SPRITE_CHAR_POS_Y
00626  09AC  85 04                 STA PARAM2
00627  09AE             
00628  09AE             OBTENERPOSICION 
00629  09AE  20 E4 FF              JSR KERNAL_GETIN
00630  09B1  F0 FB                 BEQ OBTENERPOSICION
00631  09B3             
00632  09B3                        ;CON LAS TECLAS OPQA SE MANEJA LA POSICIÓN DEL PROTAGONISTA
00633  09B3                        ;CON ENTER SE FIJA Y SE SALE DE LA RUTINA
00634  09B3  C9 4F                 CMP #KEY_O        ;O
00635  09B5  F0 13                 BEQ PULSAIZQUIERDA
00636  09B7  C9 50                 CMP #KEY_P        ;P
00637  09B9  F0 14                 BEQ PULSADERECHA
00638  09BB  C9 51                 CMP #KEY_Q        ;Q
00639  09BD  F0 15                 BEQ PULSAARRIBA
00640  09BF  C9 41                 CMP #KEY_A        ;A
00641  09C1  F0 16                 BEQ PULSAABAJO
00642  09C3  C9 0D                 CMP #KEY_ENTER        ;ENTER
00643  09C5  D0 E7                 BNE OBTENERPOSICION
00644  09C7  4C E9 09              JMP FINTECLASDEBUG
00645  09CA             
00646  09CA             PULSAIZQUIERDA 
00647  09CA  C6 03                 DEC PARAM1
00648  09CC  4C DB 09              JMP APLICARCAMBIOS
00649  09CF             PULSADERECHA 
00650  09CF  E6 03                 INC PARAM1
00651  09D1  4C DB 09              JMP APLICARCAMBIOS
00652  09D4             PULSAARRIBA 
00653  09D4  C6 04                 DEC PARAM2
00654  09D6  4C DB 09              JMP APLICARCAMBIOS
00655  09D9             PULSAABAJO 
00656  09D9  E6 04                 INC PARAM2
00657  09DB             
00658  09DB             APLICARCAMBIOS 
00659  09DB                        ;SE ALMACENA LA POSICIÓN EN LA QUE SE CAMBIA DE PANTALLA
00660  09DB  8D B6 28              STA PLAYER_POS_ENTRADA_PANTALLA_X
00661  09DE  8D B7 28              STA PLAYER_POS_ENTRADA_PANTALLA_Y
00662  09E1             
00663  09E1  A2 00                 LDX #0                          ;SE PONE AL JUGADOR EN SU POSICIÓN
00664  09E3  20 39 19              JSR CALCSPRITEPOSFROMCHARPOS
00665  09E6  4C AE 09              JMP OBTENERPOSICION
00666  09E9             
00667  09E9             FINTECLASDEBUG 
00668  09E9  AD 1E D0              LDA SPRITE_COLLISION            ;SE BORRAN LAS COLISIONES QUE HAYA HABIDO
00669  09EC             
00670  09EC  60                    RTS
00671  09ED             
00672  09ED             
00673  09ED             
00674  09ED             ;---------------------------------------------------------------
00675  09ED             ;OBTENERCIFRAS
00676  09ED             ;SE LEEN 2 TECLAS (NÚMEROS) Y SE PASA A UN NÚMERO QUE SERÁ EL
00677  09ED             ;EL NÚMERO DE PANTALLA
00678  09ED             ; EN A SE DEVUELVE EL NÚMERO DE PANTALLA
00679  09ED             ;---------------------------------------------------------------
00680  09ED             OBTENERCIFRAS 
00681  09ED  20 E4 FF              JSR KERNAL_GETIN        ;SE OBTIENEN LAS DECENAS
00682  09F0  F0 FB                 BEQ OBTENERCIFRAS
00683  09F2  38                    SEC
00684  09F3  E9 30                 SBC #$30                ;SE OBTIENE LA CANTIDAD
00685  09F5  8D A2 2A              STA TECLAS_DEBUG ;SE USA COMO ALMACENAMIENTO AUXILIAR
00686  09F8             OBTENERCIFRA2 
00687  09F8  20 E4 FF              JSR KERNAL_GETIN        ;SE OBTIENEN LAS UNIDADES
00688  09FB  F0 FB                 BEQ OBTENERCIFRA2
00689  09FD  38                    SEC
00690  09FE  E9 30                 SBC #$30                ;SE OBTIENE LA CANTIDAD
00691  0A00                        
00692  0A00                        ;SE CALCULA EL NÚMERO DE PANTALLA
00693  0A00  AE A2 2A              LDX TECLAS_DEBUG
00694  0A03             CALCULADECENAS 
00695  0A03  F0 07                 BEQ COMPRUEBANUMERO
00696  0A05  18                    CLC
00697  0A06  69 0A                 ADC #10
00698  0A08  CA                    DEX
00699  0A09  4C 03 0A              JMP CALCULADECENAS
00700  0A0C             
00701  0A0C             COMPRUEBANUMERO 
00702  0A0C                        ;BEQ CIFRAINCORRECTA     ;SI ES 0
00703  0A0C  C9 2E                 CMP #46
00704  0A0E  10 03                 BPL CIFRAINCORRECTA     ;SI ES MAYOR QUE 45
00705  0A10  4C 15 0A              JMP FINOBTENERCIFRAS
00706  0A13                        
00707  0A13             CIFRAINCORRECTA 
00708  0A13  A9 00                 LDA #0
00709  0A15             
00710  0A15             FINOBTENERCIFRAS 
00711  0A15  60                    RTS
00712  0A16             
00713  0A16             
00714  0A16             ;---------------------------------------------------------------
00715  0A16             ;ELEGIRCOLORDIAMANTE
00716  0A16             ;SE ELIGE DE FORMA ALEATORIA EL COLOR DEL DIAMANTE
00717  0A16             ;---------------------------------------------------------------
00718  0A16             ELEGIRCOLORDIAMANTE 
00719  0A16  AD 1B D4              LDA $D41B       ;SE COGE UN NÚMERO ALEATORIO
00720  0A19  29 07                 AND #$07        ;NOS QUEDAMOS CON LOS 3 ÚLTIMOS BITS (0-7)
00721  0A1B  C9 05                 CMP #5          ;SI ES MAYOR QUE 4 SE DESCARTA (HAY 5 COLORES)
00722  0A1D  10 F7                 BPL ELEGIRCOLORDIAMANTE
00723  0A1F                        
00724  0A1F  8D A0 2A              STA VALOR_DIAMANTE
00725  0A22             
00726  0A22  C9 00                 CMP #0          ;HA SALIDO 0 - AMARILLO
00727  0A24  D0 05                 BNE COMPROBARCYAN
00728  0A26  A9 07                 LDA #YELLOW
00729  0A28  4C 48 0A              JMP FINELEGIRCOLORDIAMANTE
00730  0A2B             
00731  0A2B             COMPROBARCYAN 
00732  0A2B  C9 01                 CMP #1          ;HA SALIDO 1 - CYAN
00733  0A2D  D0 05                 BNE COMPROBARVERDE
00734  0A2F  A9 03                 LDA #CYAN
00735  0A31  4C 48 0A              JMP FINELEGIRCOLORDIAMANTE
00736  0A34             
00737  0A34             COMPROBARVERDE 
00738  0A34  C9 02                 CMP #2          ;HA SALIDO 2 - VERDE
00739  0A36  D0 05                 BNE COMPROBARMORADO
00740  0A38  A9 05                 LDA #GREEN
00741  0A3A  4C 48 0A              JMP FINELEGIRCOLORDIAMANTE
00742  0A3D             
00743  0A3D             COMPROBARMORADO 
00744  0A3D  C9 03                 CMP #3          ;HA SALIDO 3 - MORADO
00745  0A3F  D0 05                 BNE ESROJO
00746  0A41  A9 04                 LDA #PURPLE
00747  0A43  4C 48 0A              JMP FINELEGIRCOLORDIAMANTE
00748  0A46             
00749  0A46             ESROJO     ;HA SALIDO 4 - ROJO
00750  0A46  A9 02                 LDA #RED
00751  0A48             
00752  0A48             FINELEGIRCOLORDIAMANTE 
00753  0A48  8D 9F 2A              STA COLOR_DIAMANTE
00754  0A4B  60                    RTS
00755  0A4C             
00756  0A4C             
00757  0A4C             ;---------------------------------------------------------------
00758  0A4C             ;MOSTRARCOORDENADAS
00759  0A4C             ;FUNCIÓN AUXILIAR - BORRAR EN VERSIÓN FINAL
00760  0A4C             ;MUESTRA LAS COORDENADAS DEL LA POSICIÓN DEL PROTAGONISTA EN PANTALLA
00761  0A4C             ;---------------------------------------------------------------
00762  0A4C             MOSTRARCOORDENADAS 
00763  0A4C  AD 97 28              LDA SPRITE_POS_X_EXTEND
00764  0A4F  29 01                 AND #$01
00765  0A51  18                    CLC
00766  0A52  69 30                 ADC #$30
00767  0A54  8D 00 CC              STA SCREEN_CHAR
00768  0A57             
00769  0A57  AD 91 28              LDA SPRITE_POS_X
00770  0A5A  AA                    TAX
00771  0A5B  18                    CLC
00772  0A5C  4A                    LSR
00773  0A5D  4A                    LSR
00774  0A5E  4A                    LSR
00775  0A5F  4A                    LSR
00776  0A60  C9 0A                 CMP #10
00777  0A62  30 06                 BMI NUMEROXH
00778  0A64  38                    SEC
00779  0A65  E9 09                 SBC #$09
00780  0A67  4C 6D 0A              JMP MOSTRARXH
00781  0A6A             
00782  0A6A             NUMEROXH
00783  0A6A  18                    CLC
00784  0A6B  69 30                 ADC #$30
00785  0A6D             MOSTRARXH
00786  0A6D  8D 02 CC              STA SCREEN_CHAR+2
00787  0A70             
00788  0A70  8A                    TXA
00789  0A71  29 0F                 AND #$0F
00790  0A73  C9 0A                 CMP #10
00791  0A75  30 06                 BMI NUMEROXL
00792  0A77  38                    SEC
00793  0A78  E9 09                 SBC #$09
00794  0A7A  4C 80 0A              JMP MOSTRARXL
00795  0A7D             
00796  0A7D             NUMEROXL
00797  0A7D  18                    CLC
00798  0A7E  69 30                 ADC #$30
00799  0A80             MOSTRARXL
00800  0A80  38                    SEC
00801  0A81  8D 03 CC              STA SCREEN_CHAR+3
00802  0A84             
00803  0A84  AD 98 28              LDA SPRITE_POS_Y
00804  0A87  AA                    TAX
00805  0A88  18                    CLC
00806  0A89  4A                    LSR
00807  0A8A  4A                    LSR
00808  0A8B  4A                    LSR
00809  0A8C  4A                    LSR
00810  0A8D  C9 0A                 CMP #10
00811  0A8F  30 06                 BMI NUMEROYH
00812  0A91  38                    SEC
00813  0A92  E9 09                 SBC #$09
00814  0A94  4C 9A 0A              JMP MOSTRARYH
00815  0A97             
00816  0A97             NUMEROYH
00817  0A97  18                    CLC
00818  0A98  69 30                 ADC #$30
00819  0A9A             MOSTRARYH
00820  0A9A  8D 05 CC              STA SCREEN_CHAR+5
00821  0A9D             
00822  0A9D  8A                    TXA
00823  0A9E  29 0F                 AND #$0F
00824  0AA0  C9 0A                 CMP #10
00825  0AA2  30 06                 BMI NUMEROYL
00826  0AA4  38                    SEC
00827  0AA5  E9 09                 SBC #$09
00828  0AA7  4C AD 0A              JMP MOSTRARYL
00829  0AAA             
00830  0AAA             NUMEROYL
00831  0AAA  18                    CLC
00832  0AAB  69 30                 ADC #$30
00833  0AAD             MOSTRARYL
00834  0AAD  8D 06 CC              STA SCREEN_CHAR+6
00835  0AB0             
00836  0AB0  60                    RTS
00837  0AB1             
00838  0AB1             
00839  0AB1             
00840  0AB1             ;---------------------------------------------------------------
00841  0AB1             ;CHECKCAMBIOPANTALLA
00842  0AB1             ;COMPRUEBA SI SE HA CAMBIADO DE PANTALLA, EN CUYO CASO LA CAMBIA
00843  0AB1             ;---------------------------------------------------------------
00844  0AB1             CHECKCAMBIOPANTALLA 
00845  0AB1  AD 97 28              LDA SPRITE_POS_X_EXTEND
00846  0AB4  29 01                 AND #$01                ;SE COMPRUEBA QUE NO ESTÉ ACTIVADO EL BIT DE EXTENSIÓN DE POSICIÓN
00847  0AB6  C9 00                 CMP #0
00848  0AB8  F0 0A                 BEQ COMPRUEBASALIDAIZQUIERDA    ;SI NO ESTÁ ACTIVADO
00849  0ABA  AD 91 28              LDA SPRITE_POS_X
00850  0ABD  C9 2A                 CMP #$2A                        ;SE COMPRUEBA SI SE SALE POR LA DERECHA
00851  0ABF  10 26                 BPL SALIDADERECHA
00852  0AC1  4C CB 0A              JMP COMPRUEBAY
00853  0AC4             
00854  0AC4             COMPRUEBASALIDAIZQUIERDA 
00855  0AC4  AD 91 28              LDA SPRITE_POS_X        ;SE COMPRUEBA SI SE SALE POR LA IZQUIERDA
00856  0AC7  C9 36                 CMP #$36
00857  0AC9  90 0E                 BCC SALIDAIZQUIERDA
00858  0ACB             
00859  0ACB             COMPRUEBAY 
00860  0ACB  AD 98 28              LDA SPRITE_POS_Y
00861  0ACE  C9 3A                 CMP #$3A                ;SE COMPRUEBA SI SE SALE POR ARRIBA
00862  0AD0  30 23                 BMI SALIDAARRIBA
00863  0AD2  C9 A2                 CMP #$A2                ;SE COMPRUEBA SI SE SALE POR ABAJO
00864  0AD4  10 2D                 BPL SALIDAABAJO
00865  0AD6  4C 52 0B              JMP ENDCHECK
00866  0AD9             
00867  0AD9             SALIDAIZQUIERDA ;SE HA SALIDO POR LA IZQUIERDA
00868  0AD9  A0 00                 LDY #0                  ;Y TIENE LA POSICION DONDE ESTÁ ALMACENADA LA SIGUIENTE PANTALLA
00869  0ADB  A9 23                 LDA #35
00870  0ADD  85 03                 STA PARAM1              ;SE CARGAN PARAM1 Y PARAM2 PARA SITUAR AL JUGADOR EN LA SIGUIENTE PANTALLA
00871  0ADF  AD AA 28              LDA SPRITE_CHAR_POS_Y
00872  0AE2  85 04                 STA PARAM2
00873  0AE4  4C 0E 0B              JMP CARGARPANTALLA
00874  0AE7             
00875  0AE7             SALIDADERECHA ;SE HA SALIDO POR LA DERECHA
00876  0AE7  A0 01                 LDY #1
00877  0AE9  A9 05                 LDA #05
00878  0AEB  85 03                 STA PARAM1
00879  0AED  AD AA 28              LDA SPRITE_CHAR_POS_Y
00880  0AF0  85 04                 STA PARAM2
00881  0AF2  4C 0E 0B              JMP CARGARPANTALLA
00882  0AF5             
00883  0AF5             SALIDAARRIBA ;SE HA SALIDO POR ARRIBA
00884  0AF5  A0 02                 LDY #2
00885  0AF7  AD 9E 28              LDA SPRITE_CHAR_POS_X
00886  0AFA  85 03                 STA PARAM1
00887  0AFC  A9 0E                 LDA #14
00888  0AFE  85 04                 STA PARAM2
00889  0B00  4C 0E 0B              JMP CARGARPANTALLA
00890  0B03             
00891  0B03             SALIDAABAJO ;SE HA SALIDO POR LA ABAJO
00892  0B03  A0 03                 LDY #3
00893  0B05  AD 9E 28              LDA SPRITE_CHAR_POS_X
00894  0B08  85 03                 STA PARAM1
00895  0B0A  A9 02                 LDA #2
00896  0B0C  85 04                 STA PARAM2
00897  0B0E             
00898  0B0E             CARGARPANTALLA 
00899  0B0E  98                    TYA     ;SE PASA Y A A PARA GUARDARLO EN LA PILA
00900  0B0F  48                    PHA
00901  0B10             
00902  0B10                        ;MANTENER EL ORDEN DE LAS SIGUIENTES LÍNEAS
00903  0B10  B9 44 28              LDA SALIDAS_CURR_SCREEN,Y       ;SE ALMACENA LA SIGUIENTE PANTALLA
00904  0B13             
00905  0B13  C9 FF                 CMP #$FF
00906  0B15  D0 05                 BNE NOMUERTE
00907  0B17  68                    PLA     ;SE RECUPERA DE LA PILA PARA NO DEJARLA COJA
00908  0B18  20 3D 15              JSR PLAYERDEATH
00909  0B1B  60                    RTS
00910  0B1C             
00911  0B1C             NOMUERTE
00912  0B1C  20 55 0B              JSR CHECKCAMBIOSDECHARSET
00913  0B1F  8D 43 28              STA CUR_SCREEN
00914  0B22             
00915  0B22  68                    PLA     ;SE RECUPERA EL VALOR DE Y
00916  0B23  A8                    TAY
00917  0B24             
00918  0B24                        ;SE ALMACENA LA POSICIÓN EN LA QUE SE CAMBIA DE PANTALLA
00919  0B24  A5 03                 LDA PARAM1
00920  0B26  8D B6 28              STA PLAYER_POS_ENTRADA_PANTALLA_X
00921  0B29  A5 04                 LDA PARAM2
00922  0B2B  8D B7 28              STA PLAYER_POS_ENTRADA_PANTALLA_Y
00923  0B2E             
00924  0B2E                        ;SE ALMACENA EL ESTADO DEL SALTO O CAIDA Y LA DIRECCIÓN
00925  0B2E  AD F9 28              LDA PLAYER_JUMP_POS
00926  0B31  8D B8 28              STA PLAYER_ENTRADA_JUMP_POS
00927  0B34  AD 1C 29              LDA PLAYER_FALL_POS
00928  0B37  8D B9 28              STA PLAYER_ENTRADA_FALL_POS
00929  0B3A  A5 05                 LDA PARAM3
00930  0B3C  8D BA 28              STA PLAYER_ENTRADA_DIRECCION
00931  0B3F             
00932  0B3F  20 AB 0B              JSR CHECKCASOSESPECIALES        ;SE COMPRUEBA SI EL CAMBIO DE PANTALLA ES UN CASO ESPECIAL
00933  0B42             
00934  0B42                        ;SE DESHABILITAN TODOS LOS SPRITES MENOS ES DEL JUGADOR
00935  0B42  A9 01                 LDA #1
00936  0B44  8D 15 D0              STA VIC_SPRITE_ENABLE
00937  0B47             
00938  0B47  20 3B 0C              JSR BORRAZONAJUEGO
00939  0B4A                        ;JSR WAITFRAME
00940  0B4A             
00941  0B4A             ;        STA SCREEN_CHAR
00942  0B4A             ;        LDA $1
00943  0B4A             ;        STA SCREEN_COLOR
00944  0B4A             
00945  0B4A  A2 00                 LDX #0                          ;SE PONE AL JUGADOR EN SU POSICIÓN
00946  0B4C  20 39 19              JSR CALCSPRITEPOSFROMCHARPOS
00947  0B4F             
00948  0B4F  20 4E 1A              JSR BUILDSCREEN                 ;SE CARGA LA PANTALLA
00949  0B52             
00950  0B52             ENDCHECK
00951  0B52  A9 00                 LDA #0  ;SE DEVUELVE 0 PARA INDICAR QUE NO SE ACABA LA PARTIDA
00952  0B54  60                    RTS
00953  0B55             
00954  0B55             
00955  0B55             
00956  0B55             ;---------------------------------------------------------------
00957  0B55             ;CHECKCAMBIOSDECHARSET
00958  0B55             ; A - PANTALLA DESTINO
00959  0B55             ;COMPRUEBA SI SE HAY QUE CAMBIAR DE CHARSET EN FUNCIÓN DE LA PANTALLA
00960  0B55             ;ACTUAL Y LA PANTALLA DESTINO
00961  0B55             ;---------------------------------------------------------------
00962  0B55             CHECKCAMBIOSDECHARSET 
00963  0B55  48                    PHA     ;SE GUARDA A PARA NO MODIFICARLO
00964  0B56                        
00965  0B56  AA                    TAX
00966  0B57  BD 6B 2A              LDA SCREEN_CHARSET,X
00967  0B5A  CD 99 2A              CMP SCREEN_CHARSET_ACTUAL
00968  0B5D  F0 4A                 BEQ SINCAMBIOCHARSET
00969  0B5F             
00970  0B5F  8D 99 2A              STA SCREEN_CHARSET_ACTUAL
00971  0B62             
00972  0B62  C9 01                 CMP #CS_GEN
00973  0B64  F0 13                 BEQ CARGARCHARSETCOMUN
00974  0B66  C9 02                 CMP #CS_ESF
00975  0B68  F0 1A                 BEQ CARGARCHARSETESFINGE
00976  0B6A                        ;CMP #CS_PGR
00977  0B6A                        ;BEQ CARGARCHARSETPAREDGRANDE
00978  0B6A  C9 05                 CMP #CS_FIN
00979  0B6C  F0 21                 BEQ CARGARCHARSETFINAL
00980  0B6E             
00981  0B6E                        ;CHARSER INICIAL
00982  0B6E             CARGARCHARSETINICIAL 
00983  0B6E  A9 40                 LDA #<CHARS_INICIAL
00984  0B70  85 17                 STA ZEROPAGE_POINTER_1
00985  0B72  A9 3F                 LDA #>CHARS_INICIAL
00986  0B74  85 18                 STA ZEROPAGE_POINTER_1 + 1
00987  0B76  4C 97 0B              JMP CARGARCHARSET
00988  0B79             
00989  0B79                        ;CHARSET COMUN
00990  0B79             CARGARCHARSETCOMUN 
00991  0B79  A9 40                 LDA #<CHARS
00992  0B7B  85 17                 STA ZEROPAGE_POINTER_1
00993  0B7D  A9 47                 LDA #>CHARS
00994  0B7F  85 18                 STA ZEROPAGE_POINTER_1 + 1
00995  0B81  4C 97 0B              JMP CARGARCHARSET
00996  0B84             
00997  0B84                        ;CHARSET DE LA PARED GRANDE
00998  0B84             ;CARGARCHARSETPAREDGRANDE
00999  0B84             ;        LDA #<CHARS_PARED_GRANDE
01000  0B84             ;        STA ZEROPAGE_POINTER_1
01001  0B84             ;        LDA #>CHARS_PARED_GRANDE
01002  0B84             ;        STA ZEROPAGE_POINTER_1 + 1
01003  0B84             ;        JMP CARGARCHARSET
01004  0B84             
01005  0B84                        ;CHARSET DE LA ESFINJE
01006  0B84             CARGARCHARSETESFINGE 
01007  0B84  A9 40                 LDA #<CHARS_ESFINGE
01008  0B86  85 17                 STA ZEROPAGE_POINTER_1
01009  0B88  A9 4F                 LDA #>CHARS_ESFINGE
01010  0B8A  85 18                 STA ZEROPAGE_POINTER_1 + 1
01011  0B8C  4C 97 0B              JMP CARGARCHARSET
01012  0B8F             
01013  0B8F                        ;CHARSET FINAL
01014  0B8F             CARGARCHARSETFINAL 
01015  0B8F  A9 40                 LDA #<CHARS_FINAL
01016  0B91  85 17                 STA ZEROPAGE_POINTER_1
01017  0B93  A9 57                 LDA #>CHARS_FINAL
01018  0B95  85 18                 STA ZEROPAGE_POINTER_1 + 1
01019  0B97             
01020  0B97             CARGARCHARSET 
01021  0B97  20 12 1C              JSR WAITFRAME
01022  0B9A             
01023  0B9A  78                    SEI             ;SE DESHABILITAN LAS INTERRUPCIONES
01024  0B9B  A5 01                 LDA $01         ;SE GUARDA LA CONFIGURACIÓN
01025  0B9D  48                    PHA
01026  0B9E  A9 30                 LDA #%00110000  ;ONLY RAM - TO COPY UNDER THE IO ROM
01027  0BA0  85 01                 STA $01
01028  0BA2  20 36 1C              JSR COPYCHARSET
01029  0BA5  68                    PLA             ;SE RESTAURAN LAS ROMS
01030  0BA6  85 01                 STA $01
01031  0BA8  58                    CLI
01032  0BA9             
01033  0BA9             SINCAMBIOCHARSET 
01034  0BA9  68                    PLA     ;SE RECUPERA A
01035  0BAA  60                    RTS
01036  0BAB             
01037  0BAB             
01038  0BAB             
01039  0BAB             ;---------------------------------------------------------------
01040  0BAB             ;CHECKCASOSESPECIALES
01041  0BAB             ; Y -> DIRECCIÓN POR LA QUE SE HA SALIDO
01042  0BAB             ;SE COMPRUEBAN CASOS ESPECIALES EN LOS QUE AL SALIR DE LA PANTALLA
01043  0BAB             ;SE PASA A UNA POSICIÓN CONCRETA DE OTRA
01044  0BAB             ;---------------------------------------------------------------
01045  0BAB             CHECKCASOSESPECIALES 
01046  0BAB  AD 43 28              LDA CUR_SCREEN
01047  0BAE             
01048  0BAE  C9 05                 CMP #5          ;SALIDA DE LA PANTALLA 4 A LA 5
01049  0BB0  D0 04                 BNE CHECKCASOESPECIAL8
01050  0BB2  C0 01                 CPY #1          ;SALIDA POR LA DERECHA
01051  0BB4  F0 19                 BEQ SALIDAPANTALLA4DERECHA
01052  0BB6             
01053  0BB6             CHECKCASOESPECIAL8 
01054  0BB6  C9 09                 CMP #9          ;SALIDA DE LA PANTALLA 8 A LA 9
01055  0BB8  D0 04                 BNE CHECKCASOESPECIAL16
01056  0BBA  C0 01                 CPY #1
01057  0BBC  F0 22                 BEQ SALIDAPANTALLA8DERECHA
01058  0BBE             
01059  0BBE             CHECKCASOESPECIAL16 
01060  0BBE  C9 11                 CMP #17          ;SALIDA DE LA PANTALLA 16 A LA 17
01061  0BC0  D0 04                 BNE CHECKCASOESPECIAL21
01062  0BC2  C0 01                 CPY #1
01063  0BC4  F0 2B                 BEQ SALIDAPANTALLA16DERECHA
01064  0BC6             
01065  0BC6             CHECKCASOESPECIAL21 
01066  0BC6  C9 17                 CMP #23          ;SALIDA DE LA PANTALLA 21 A LA 23
01067  0BC8  D0 61                 BNE FINCHECKCASOSESPECIALES
01068  0BCA  C0 01                 CPY #1
01069  0BCC  F0 34                 BEQ SALIDAPANTALLA21DERECHA
01070  0BCE             
01071  0BCE  60                    RTS
01072  0BCF             
01073  0BCF             SALIDAPANTALLA4DERECHA 
01074  0BCF                        ;SE ALMACENA LA POSICIÓN DE ENTRADA A LA SIGUIENTE PANTALLA
01075  0BCF  A9 08                 LDA #8
01076  0BD1  85 03                 STA PARAM1
01077  0BD3  8D B6 28              STA PLAYER_POS_ENTRADA_PANTALLA_X
01078  0BD6  A9 0D                 LDA #13
01079  0BD8  85 04                 STA PARAM2
01080  0BDA  8D B7 28              STA PLAYER_POS_ENTRADA_PANTALLA_Y
01081  0BDD  4C 10 0C              JMP DESHABILITARSALTO
01082  0BE0             
01083  0BE0             SALIDAPANTALLA8DERECHA 
01084  0BE0                        ;SE ALMACENA LA POSICIÓN DE ENTRADA A LA SIGUIENTE PANTALLA
01085  0BE0  A9 07                 LDA #7
01086  0BE2  85 03                 STA PARAM1
01087  0BE4  8D B6 28              STA PLAYER_POS_ENTRADA_PANTALLA_X
01088  0BE7  A9 05                 LDA #5
01089  0BE9  85 04                 STA PARAM2
01090  0BEB  8D B7 28              STA PLAYER_POS_ENTRADA_PANTALLA_Y
01091  0BEE  4C 10 0C              JMP DESHABILITARSALTO
01092  0BF1             
01093  0BF1             SALIDAPANTALLA16DERECHA 
01094  0BF1                        ;SE ALMACENA LA POSICIÓN DE ENTRADA A LA SIGUIENTE PANTALLA
01095  0BF1  A9 0B                 LDA #11
01096  0BF3  85 03                 STA PARAM1
01097  0BF5  8D B6 28              STA PLAYER_POS_ENTRADA_PANTALLA_X
01098  0BF8  A9 0D                 LDA #13
01099  0BFA  85 04                 STA PARAM2
01100  0BFC  8D B7 28              STA PLAYER_POS_ENTRADA_PANTALLA_Y
01101  0BFF  4C 10 0C              JMP DESHABILITARSALTO
01102  0C02             
01103  0C02             SALIDAPANTALLA21DERECHA 
01104  0C02                        ;SE ALMACENA LA POSICIÓN DE ENTRADA A LA SIGUIENTE PANTALLA
01105  0C02  A9 07                 LDA #7
01106  0C04  85 03                 STA PARAM1
01107  0C06  8D B6 28              STA PLAYER_POS_ENTRADA_PANTALLA_X
01108  0C09  A9 0E                 LDA #14
01109  0C0B  85 04                 STA PARAM2
01110  0C0D  8D B7 28              STA PLAYER_POS_ENTRADA_PANTALLA_Y
01111  0C10             
01112  0C10             DESHABILITARSALTO 
01113  0C10                        ;SE DESHABILITA EL SALTO
01114  0C10  A9 00                 LDA #0
01115  0C12  8D F9 28              STA PLAYER_JUMP_POS
01116  0C15  8D B8 28              STA PLAYER_ENTRADA_JUMP_POS
01117  0C18  8D 1C 29              STA PLAYER_FALL_POS
01118  0C1B  8D B9 28              STA PLAYER_ENTRADA_FALL_POS
01119  0C1E             
01120  0C1E  A9 09                 LDA #SND_TRANSPORT
01121  0C20  20 9C 25              JSR INITPICKEDFX
01122  0C23             
01123  0C23  A2 14                 LDX #20
01124  0C25             BUCLEESPERACAMBIOPANTALLA 
01125  0C25  20 12 1C              JSR WAITFRAME
01126  0C28  CA                    DEX
01127  0C29  D0 FA                 BNE BUCLEESPERACAMBIOPANTALLA
01128  0C2B             
01129  0C2B             FINCHECKCASOSESPECIALES 
01130  0C2B  60                    RTS
01131  0C2C             
01132  0C2C             
01133  0C2C             
01134  0C2C             ;------------------------------------------------------------
01135  0C2C             ;BORRAPANTALLA
01136  0C2C             ;BORRA TODA LA PANTALLA Y LA PONE EN NEGRO
01137  0C2C             ;------------------------------------------------------------
01138  0C2C             BORRAPANTALLA 
01139  0C2C                        ;PANTALLA EN NEGRO
01140  0C2C  A9 00                 LDA #$00
01141  0C2E  8D 20 D0              STA VIC_BORDER_COLOR
01142  0C31  8D 21 D0              STA VIC_BACKGROUND_COLOR
01143  0C34             
01144  0C34  20 3B 0C              JSR BORRAZONAJUEGO
01145  0C37  20 6C 0C              JSR BORRAZONAMARCADOR
01146  0C3A  60                    RTS
01147  0C3B             
01148  0C3B             ;------------------------------------------------------------
01149  0C3B             ;BORRAZONAJUEGO
01150  0C3B             ;BORRA LA ZONA DE JUEGO. 16 PRIMERAS FILAS
01151  0C3B             ;------------------------------------------------------------
01152  0C3B             BORRAZONAJUEGO 
01153  0C3B                        ;SE ALMACENAN A Y X EN LA PILA
01154  0C3B  48                    PHA
01155  0C3C  8A                    TXA
01156  0C3D  48                    PHA
01157  0C3E             
01158  0C3E  A9 20                 LDA #$20
01159  0C40  A2 00                 LDX #0
01160  0C42             
01161  0C42             .CLEARPLAYSCREENLOOP 
01162  0C42  9D 00 CC              STA SCREEN_CHAR,X
01163  0C45  9D A0 CC              STA SCREEN_CHAR+160,X
01164  0C48  9D 40 CD              STA SCREEN_CHAR+320,X
01165  0C4B  9D E0 CD              STA SCREEN_CHAR+480,X
01166  0C4E  E8                    INX
01167  0C4F  E0 A0                 CPX #160
01168  0C51  D0 EF                 BNE .CLEARPLAYSCREENLOOP
01169  0C53             
01170  0C53  A9 00                 LDA #0
01171  0C55  A2 00                 LDX #0
01172  0C57                        
01173  0C57             .CLEARPLAYSCREENCOLORLOOP 
01174  0C57  9D 00 D8              STA SCREEN_COLOR,X
01175  0C5A  9D A0 D8              STA SCREEN_COLOR+160,X
01176  0C5D  9D 40 D9              STA SCREEN_COLOR+320,X
01177  0C60  9D E0 D9              STA SCREEN_COLOR+480,X
01178  0C63  E8                    INX
01179  0C64  E0 A0                 CPX #160
01180  0C66  D0 EF                 BNE .CLEARPLAYSCREENCOLORLOOP
01181  0C68             
01182  0C68                        ;SE RECUPERA X Y A DE LA PILA
01183  0C68  68                    PLA
01184  0C69  AA                    TAX
01185  0C6A  68                    PLA
01186  0C6B  60                    RTS
01187  0C6C             
01188  0C6C             ;------------------------------------------------------------
01189  0C6C             ;BORRAZONAMARCADOR
01190  0C6C             ;BORRA LA ZONA DE MARCADOR. 9 ÚLTIMAS FILAS
01191  0C6C             ;------------------------------------------------------------
01192  0C6C             BORRAZONAMARCADOR 
01193  0C6C  A9 20                 LDA #$20
01194  0C6E  A2 00                 LDX #0
01195  0C70             
01196  0C70             ;.CLEARSCORESCREENLOOP
01197  0C70             ;        STA SCREEN_CHAR+640,X
01198  0C70             ;        STA SCREEN_CHAR+730,X
01199  0C70             ;        STA SCREEN_CHAR+820,X
01200  0C70             ;        STA SCREEN_CHAR+910,X
01201  0C70             ;        INX
01202  0C70             ;        CPX #90
01203  0C70             ;        BNE .CLEARSCORESCREENLOOP
01204  0C70             
01205  0C70             ;        LDX #0
01206  0C70             
01207  0C70             ;.CLEARSCORESCREENCOLORLOOP
01208  0C70             ;        STA SCREEN_COLOR+640,X
01209  0C70             ;        STA SCREEN_COLOR+730,X
01210  0C70             ;        STA SCREEN_COLOR+820,X
01211  0C70             ;        STA SCREEN_COLOR+910,X
01212  0C70             ;        INX
01213  0C70             ;        CPX #90
01214  0C70             ;        BNE .CLEARSCORESCREENCOLORLOOP
01215  0C70             
01216  0C70             
01217  0C70             .CLEARSCORESCREENLOOP 
01218  0C70  9D 80 CE              STA SCREEN_CHAR+640,X
01219  0C73  E8                    INX
01220  0C74  E0 78                 CPX #120
01221  0C76  D0 F8                 BNE .CLEARSCORESCREENLOOP
01222  0C78             
01223  0C78  A9 00                 LDA #0
01224  0C7A  A2 00                 LDX #0
01225  0C7C             .CLEARSCORESCREENCOLORLOOP 
01226  0C7C  9D 80 DA              STA SCREEN_COLOR+640,X
01227  0C7F  E8                    INX
01228  0C80  E0 78                 CPX #120
01229  0C82  D0 F8                 BNE .CLEARSCORESCREENCOLORLOOP
01230  0C84             
01231  0C84  60                    RTS
01232  0C85             
01233  0C85             ;==============================================================================
01234  0C85             ;MOVEENEMIES
01235  0C85             ; RECORRE LOS ENEMIGOS DE UNA PANTALLA PARA MOVERLOS EN FUNCIÓN DEL TIPO DE
01236  0C85             ; MOVIMIENTO QUE TENGAN
01237  0C85             ;==============================================================================
01238  0C85             MOVEENEMIES 
01239  0C85  AD 48 28              LDA ENEMIES_CUR_SCREEN
01240  0C88  D0 03                 BNE CHECKENEMY
01241  0C8A  60                    RTS
01242  0C8B             
01243  0C8B  A2 00                 LDX #0
01244  0C8D             CHECKENEMY 
01245  0C8D  E8                    INX
01246  0C8E                        
01247  0C8E  BD 61 28              LDA ENEMY_MOV_DELAY_CUR,X       ;SE COMPRUEBA QUE TOCA MOVER EL SPRITE
01248  0C91  F0 06                 BEQ MOVERSPRITE
01249  0C93  DE 61 28              DEC ENEMY_MOV_DELAY_CUR,X       ;SE DECREMENTA LA CUENTA DE RETARDO DE MOVIMIENTO
01250  0C96  4C E4 0C              JMP NEXTENEMY
01251  0C99             
01252  0C99             MOVERSPRITE 
01253  0C99  BD 5B 28              LDA ENEMY_MOV_DELAY,X   ;VUELVE A CARGAR EL DIVISOR DE MOVIMIENTO
01254  0C9C  9D 61 28              STA ENEMY_MOV_DELAY_CUR,X
01255  0C9F             
01256  0C9F  BD 55 28              LDA ENEMY_MOVEMENT,X   ;SE LEE EL TIPO DE ENEMIGO
01257  0CA2             
01258  0CA2  C9 01                 CMP #SP_LR
01259  0CA4                        ;BNE CHECK_LRC
01260  0CA4  D0 06                 BNE CHECK_R
01261  0CA6  20 EA 0C              JSR MOVEENEMYLEFTRIGHT       ;SI ES DE IZQUIERDA A DERECHA
01262  0CA9  4C E1 0C              JMP ANIMATEENEMY
01263  0CAC             
01264  0CAC             CHECK_R
01265  0CAC  C9 02                 CMP #SP_R
01266  0CAE  D0 06                 BNE CHECKUPDOWN
01267  0CB0  20 16 0D              JSR MOVEENEMYRIGHT       ;SI ES DE IZQUIERDA A DERECHA
01268  0CB3  4C E1 0C              JMP ANIMATEENEMY
01269  0CB6             
01270  0CB6             CHECKUPDOWN 
01271  0CB6  C9 03                 CMP #SP_UD
01272  0CB8  D0 06                 BNE CHECKDOWN
01273  0CBA  20 30 0D              JSR MOVEENEMYUPDOWN  ;SI ES DE ARRIBA A ABAJO
01274  0CBD  4C E1 0C              JMP ANIMATEENEMY
01275  0CC0             
01276  0CC0             CHECKDOWN
01277  0CC0  C9 04                 CMP #SP_D
01278  0CC2  D0 06                 BNE CHECKNOMOVE
01279  0CC4  20 5C 0D              JSR MOVEENEMYDOWN    ;SI ES SOLO HACIA ABAJO
01280  0CC7  4C E1 0C              JMP ANIMATEENEMY
01281  0CCA             
01282  0CCA             CHECKNOMOVE 
01283  0CCA  BD 49 28              LDA ENEMY_TYPE,X        ;SI EL TIPO DE ENEMIGO ES UNA LLAVE, ENTONCES NO SE ANIMA
01284  0CCD  C9 5A                 CMP #SP_START_KEYS
01285  0CCF  10 13                 BPL NEXTENEMY
01286  0CD1             
01287  0CD1  C9 0A                 CMP #SP_PINCHOS_1       ;SI SON LOS PINCHOS TAMPOCO SE ANIMA
01288  0CD3  F0 0F                 BEQ NEXTENEMY
01289  0CD5  C9 0B                 CMP #SP_PINCHOS_2
01290  0CD7  F0 0B                 BEQ NEXTENEMY
01291  0CD9                        
01292  0CD9  C9 0F                 CMP #SP_DIAMANTE_L       ;SI ES EL DIAMANTE TAMPOCO SE ANIMA
01293  0CDB  F0 07                 BEQ NEXTENEMY
01294  0CDD  C9 10                 CMP #SP_DIAMANTE_R
01295  0CDF  F0 03                 BEQ NEXTENEMY
01296  0CE1                        
01297  0CE1             ANIMATEENEMY 
01298  0CE1  20 FA 15              JSR ANIMATESPRITE
01299  0CE4             
01300  0CE4             NEXTENEMY
01301  0CE4  EC 48 28              CPX ENEMIES_CUR_SCREEN
01302  0CE7  D0 A4                 BNE CHECKENEMY
01303  0CE9             
01304  0CE9  60                    RTS
01305  0CEA             
01306  0CEA             ;------------------------------------------------------------
01307  0CEA             ;MUEVE ENEMIGO DE IZQUIERDA A DERECHA
01308  0CEA             ;EL REGISTRO X TIENE EL INDICE DEL SPRITE (1 TO 7)
01309  0CEA             ;------------------------------------------------------------
01310  0CEA             MOVEENEMYLEFTRIGHT 
01311  0CEA  BD 9E 28              LDA SPRITE_CHAR_POS_X,X
01312  0CED  DD 85 28              CMP ENEMY_END_X_POS,X
01313  0CF0  F0 08                 BEQ CHANGEDIRECTIONX
01314  0CF2  DD 79 28              CMP ENEMY_INI_X_POS,X
01315  0CF5  F0 03                 BEQ CHANGEDIRECTIONX
01316  0CF7  4C 07 0D              JMP MOVELEFTRIGHT
01317  0CFA             
01318  0CFA             CHANGEDIRECTIONX 
01319  0CFA  A9 00                 LDA #0                          ;SE PONE EL RETARDO DE ANIMACION A CERO PARA QUE SE
01320  0CFC  9D 6D 28              STA ENEMY_ANIM_DELAY_CUR,X       ;PRODUZCA EL CAMBIO INMEDIATAMENTE
01321  0CFF             
01322  0CFF  BD 4F 28              LDA ENEMY_DIRECTION,X
01323  0D02  49 FF                 EOR #$FF
01324  0D04  9D 4F 28              STA ENEMY_DIRECTION,X
01325  0D07             
01326  0D07             MOVELEFTRIGHT 
01327  0D07  BD 4F 28              LDA ENEMY_DIRECTION,X
01328  0D0A  C9 00                 CMP #MOVE_LEFT
01329  0D0C  D0 04                 BNE MOVERIGHTX
01330  0D0E  20 69 0D              JSR SPRITEMOVELEFT
01331  0D11  60                    RTS
01332  0D12             
01333  0D12             MOVERIGHTX 
01334  0D12  20 CB 0D              JSR SPRITEMOVERIGHT
01335  0D15  60                    RTS
01336  0D16                        
01337  0D16             ;------------------------------------------------------------
01338  0D16             ;MUEVE ENEMIGO SOLO A DERECHA
01339  0D16             ;EL REGISTRO X TIENE EL INDICE DEL SPRITE (1 TO 7)
01340  0D16             ;------------------------------------------------------------
01341  0D16             MOVEENEMYRIGHT 
01342  0D16  BD 9E 28              LDA SPRITE_CHAR_POS_X,X
01343  0D19  DD 85 28              CMP ENEMY_END_X_POS,X
01344  0D1C  D0 0E                 BNE MOVERIGHT
01345  0D1E             
01346  0D1E  BD 79 28              LDA ENEMY_INI_X_POS,X   ;SE CARGAN LAS POSICIONES X E Y DE INICIO DEL SPRITE
01347  0D21  85 03                 STA PARAM1
01348  0D23  BD 7F 28              LDA ENEMY_INI_Y_POS,X
01349  0D26  85 04                 STA PARAM2
01350  0D28  20 39 19              JSR CALCSPRITEPOSFROMCHARPOS
01351  0D2B             
01352  0D2B  60                    RTS
01353  0D2C             
01354  0D2C             MOVERIGHT
01355  0D2C  20 CB 0D              JSR SPRITEMOVERIGHT
01356  0D2F  60                    RTS
01357  0D30             
01358  0D30             ;------------------------------------------------------------
01359  0D30             ;MUEVE ENEMIGO DE ARRIBA A ABAJO
01360  0D30             ;EL REGISTRO X TIENE EL INDICE DEL SPRITE (1 TO 7)
01361  0D30             ;------------------------------------------------------------
01362  0D30             MOVEENEMYUPDOWN 
01363  0D30  BD AA 28              LDA SPRITE_CHAR_POS_Y,X
01364  0D33  DD 8B 28              CMP ENEMY_END_Y_POS,X
01365  0D36  F0 08                 BEQ CHANGEDIRECTIONY
01366  0D38  DD 7F 28              CMP ENEMY_INI_Y_POS,X
01367  0D3B  F0 03                 BEQ CHANGEDIRECTIONY
01368  0D3D  4C 4D 0D              JMP MOVEUPDOWN
01369  0D40             
01370  0D40             CHANGEDIRECTIONY 
01371  0D40  A9 00                 LDA #0                          ;SE PONE EL RETARDO DE ANIMACION A CERO PARA QUE SE
01372  0D42  9D 6D 28              STA ENEMY_ANIM_DELAY_CUR,X       ;PRODUZCA EL CAMBIO INMEDIATAMENTE
01373  0D45             
01374  0D45  BD 4F 28              LDA ENEMY_DIRECTION,X
01375  0D48  49 FF                 EOR #$FF
01376  0D4A  9D 4F 28              STA ENEMY_DIRECTION,X
01377  0D4D             
01378  0D4D             MOVEUPDOWN 
01379  0D4D  BD 4F 28              LDA ENEMY_DIRECTION,X
01380  0D50  C9 00                 CMP #MOVE_UP
01381  0D52  D0 04                 BNE MOVEDOWNY
01382  0D54  20 2D 0E              JSR SPRITEMOVEUP
01383  0D57  60                    RTS
01384  0D58             
01385  0D58             MOVEDOWNY
01386  0D58  20 94 0E              JSR SPRITEMOVEDOWN
01387  0D5B  60                    RTS
01388  0D5C             
01389  0D5C             ;------------------------------------------------------------
01390  0D5C             ;MUEVE ENEMIGO HACIA ABAJO
01391  0D5C             ;EL REGISTRO X TIENE EL INDICE DEL SPRITE (1 TO 7)
01392  0D5C             ;------------------------------------------------------------
01393  0D5C             MOVEENEMYDOWN 
01394  0D5C  BD AA 28              LDA SPRITE_CHAR_POS_Y,X
01395  0D5F  DD 8B 28              CMP ENEMY_END_Y_POS,X
01396  0D62  D0 01                 BNE MOVEDOWN
01397  0D64             
01398  0D64  60                    RTS
01399  0D65             
01400  0D65             MOVEDOWN
01401  0D65  20 94 0E              JSR SPRITEMOVEDOWN
01402  0D68  60                    RTS
01403  0D69             
01404  0D69             ;------------------------------------------------------------
01405  0D69             ;SPRITEMOVELEFT
01406  0D69             ;EN REGISTRO X CONTIENE EL INDICE DEL SPRITE
01407  0D69             ;------------------------------------------------------------
01408  0D69             SPRITEMOVELEFT 
01409  0D69  BD A4 28              LDA SPRITE_CHAR_POS_X_DELTA,X   ;SE CARGA LA POSICIÓN X DELTA (ENTRE 1 Y 8)
01410  0D6C  F0 07                 BEQ .CHECKCANMOVELEFT         ;SE COMPRUEBA SI SE PUEDE MOVER A LA IZQUIERDA
01411  0D6E                        
01412  0D6E             .CANMOVELEFT 
01413  0D6E  DE A4 28              DEC SPRITE_CHAR_POS_X_DELTA,X   ;SE DECREMENTA X DELTA
01414  0D71                        
01415  0D71  20 F9 0E              JSR MOVESPRITELEFT            ;SE MUEVE A LA IZQUIERDA
01416  0D74  60                    RTS
01417  0D75                        
01418  0D75             .CHECKCANMOVELEFT 
01419  0D75  BD B0 28              LDA SPRITE_CHAR_POS_Y_DELTA,X
01420  0D78  F0 1B                 BEQ .NOTHIRDCHARCHECKNEEDEDLEFT
01421  0D7A                        
01422  0D7A  BC AA 28              LDY SPRITE_CHAR_POS_Y,X
01423  0D7D  B9 C3 28              LDA SCREEN_LINE_OFFSET_TABLE_LO,Y
01424  0D80  85 17                 STA ZEROPAGE_POINTER_1
01425  0D82  B9 D5 28              LDA SCREEN_LINE_OFFSET_TABLE_HI,Y
01426  0D85  85 18                 STA ZEROPAGE_POINTER_1 + 1
01427  0D87             
01428  0D87  BD 9E 28              LDA SPRITE_CHAR_POS_X,X
01429  0D8A             
01430  0D8A  18                    CLC
01431  0D8B  69 27                 ADC #39       ;UNA LÍNEA ABAJO Y OTRA A LA IZQUIERDA
01432  0D8D  A8                    TAY
01433  0D8E                        
01434  0D8E  B1 17                 LDA (ZEROPAGE_POINTER_1),Y
01435  0D90                        
01436  0D90                        ;STA $CC00
01437  0D90  20 67 25              JSR ISCHARBLOCKING
01438  0D93  D0 35                 BNE .BLOCKEDLEFT
01439  0D95                        
01440  0D95             .NOTHIRDCHARCHECKNEEDEDLEFT 
01441  0D95                        ;UNA FILA ENCIMA
01442  0D95  BC AA 28              LDY SPRITE_CHAR_POS_Y,X
01443  0D98  88                    DEY
01444  0D99  B9 C3 28              LDA SCREEN_LINE_OFFSET_TABLE_LO,Y
01445  0D9C  85 17                 STA ZEROPAGE_POINTER_1
01446  0D9E  B9 D5 28              LDA SCREEN_LINE_OFFSET_TABLE_HI,Y
01447  0DA1  85 18                 STA ZEROPAGE_POINTER_1 + 1
01448  0DA3                        
01449  0DA3                        ;SE COMPRUEBA UNO ARRIBA Y UNO A LA IZQUIERDA
01450  0DA3  BC 9E 28              LDY SPRITE_CHAR_POS_X,X
01451  0DA6  88                    DEY
01452  0DA7  E0 00                 CPX #0        ;SI ES EL PROTAGONISTA HAY QUE COMPROBAR 2 A LA IZQUIERDA
01453  0DA9  D0 01                 BNE ESENEMIGOLEFT
01454  0DAB  88                    DEY
01455  0DAC             
01456  0DAC             ESENEMIGOLEFT 
01457  0DAC  B1 17                 LDA (ZEROPAGE_POINTER_1),Y
01458  0DAE                        
01459  0DAE                        ;STA $CC01
01460  0DAE  20 67 25              JSR ISCHARBLOCKING
01461  0DB1  D0 17                 BNE .BLOCKEDLEFT
01462  0DB3                        
01463  0DB3                        ;SE COMPRUEBA EL DE JUSTO A LA IZQUIERDA¿?
01464  0DB3  98                    TYA
01465  0DB4  18                    CLC
01466  0DB5  69 28                 ADC #40
01467  0DB7  A8                    TAY
01468  0DB8  B1 17                 LDA (ZEROPAGE_POINTER_1),Y
01469  0DBA                        ;STA $CC02
01470  0DBA  20 67 25              JSR ISCHARBLOCKING
01471  0DBD  D0 0B                 BNE .BLOCKEDLEFT
01472  0DBF                        
01473  0DBF                        
01474  0DBF  A9 08                 LDA #8
01475  0DC1  9D A4 28              STA SPRITE_CHAR_POS_X_DELTA,X
01476  0DC4  DE 9E 28              DEC SPRITE_CHAR_POS_X,X
01477  0DC7  4C 6E 0D              JMP .CANMOVELEFT
01478  0DCA                        
01479  0DCA             .BLOCKEDLEFT 
01480  0DCA  60                    RTS
01481  0DCB                        
01482  0DCB             ;------------------------------------------------------------
01483  0DCB             ;SPRITEMOVERIGHT
01484  0DCB             ;EN REGISTRO X CONTIENE EL INDICE DEL SPRITE
01485  0DCB             ;------------------------------------------------------------
01486  0DCB             SPRITEMOVERIGHT 
01487  0DCB  BD A4 28              LDA SPRITE_CHAR_POS_X_DELTA,X
01488  0DCE  F0 16                 BEQ .CHECKCANMOVERIGHT
01489  0DD0                        
01490  0DD0             .CANMOVERIGHT 
01491  0DD0  FE A4 28              INC SPRITE_CHAR_POS_X_DELTA,X
01492  0DD3                        
01493  0DD3  BD A4 28              LDA SPRITE_CHAR_POS_X_DELTA,X
01494  0DD6  C9 08                 CMP #8
01495  0DD8  D0 08                 BNE .NOCHARSTEP
01496  0DDA                        
01497  0DDA  A9 00                 LDA #0
01498  0DDC  9D A4 28              STA SPRITE_CHAR_POS_X_DELTA,X
01499  0DDF  FE 9E 28              INC SPRITE_CHAR_POS_X,X
01500  0DE2                        
01501  0DE2             .NOCHARSTEP 
01502  0DE2  20 16 0F              JSR MOVESPRITERIGHT
01503  0DE5  60                    RTS
01504  0DE6                        
01505  0DE6             .CHECKCANMOVERIGHT 
01506  0DE6  BD B0 28              LDA SPRITE_CHAR_POS_Y_DELTA,X
01507  0DE9  F0 19                 BEQ .NOTHIRDCHARCHECKNEEDEDRIGHT
01508  0DEB                        
01509  0DEB  BC AA 28              LDY SPRITE_CHAR_POS_Y,X
01510  0DEE  C8                    INY
01511  0DEF  B9 C3 28              LDA SCREEN_LINE_OFFSET_TABLE_LO,Y
01512  0DF2  85 17                 STA ZEROPAGE_POINTER_1
01513  0DF4  B9 D5 28              LDA SCREEN_LINE_OFFSET_TABLE_HI,Y
01514  0DF7  85 18                 STA ZEROPAGE_POINTER_1 + 1
01515  0DF9             
01516  0DF9  BC 9E 28              LDY SPRITE_CHAR_POS_X,X
01517  0DFC  C8                    INY
01518  0DFD                        
01519  0DFD  B1 17                 LDA (ZEROPAGE_POINTER_1),Y
01520  0DFF                        
01521  0DFF  20 67 25              JSR ISCHARBLOCKING
01522  0E02  D0 28                 BNE .BLOCKEDRIGHT
01523  0E04                        
01524  0E04             .NOTHIRDCHARCHECKNEEDEDRIGHT 
01525  0E04             
01526  0E04  BC AA 28              LDY SPRITE_CHAR_POS_Y,X
01527  0E07  88                    DEY
01528  0E08  B9 C3 28              LDA SCREEN_LINE_OFFSET_TABLE_LO,Y
01529  0E0B  85 17                 STA ZEROPAGE_POINTER_1
01530  0E0D  B9 D5 28              LDA SCREEN_LINE_OFFSET_TABLE_HI,Y
01531  0E10  85 18                 STA ZEROPAGE_POINTER_1 + 1
01532  0E12                        
01533  0E12  BC 9E 28              LDY SPRITE_CHAR_POS_X,X
01534  0E15  C8                    INY
01535  0E16  B1 17                 LDA (ZEROPAGE_POINTER_1),Y
01536  0E18                        
01537  0E18  20 67 25              JSR ISCHARBLOCKING
01538  0E1B  D0 0F                 BNE .BLOCKEDRIGHT
01539  0E1D                        
01540  0E1D  98                    TYA
01541  0E1E  18                    CLC
01542  0E1F  69 28                 ADC #40
01543  0E21  A8                    TAY
01544  0E22  B1 17                 LDA (ZEROPAGE_POINTER_1),Y
01545  0E24  20 67 25              JSR ISCHARBLOCKING
01546  0E27  D0 03                 BNE .BLOCKEDRIGHT
01547  0E29                        
01548  0E29  4C D0 0D              JMP .CANMOVERIGHT
01549  0E2C                        
01550  0E2C             .BLOCKEDRIGHT 
01551  0E2C  60                    RTS
01552  0E2D                        
01553  0E2D             
01554  0E2D             ;------------------------------------------------------------
01555  0E2D             ;SPRITEMOVEUP
01556  0E2D             ;EN REGISTRO X CONTIENE EL INDICE DEL SPRITE
01557  0E2D             ;------------------------------------------------------------
01558  0E2D             SPRITEMOVEUP 
01559  0E2D  BD B0 28              LDA SPRITE_CHAR_POS_Y_DELTA,X
01560  0E30  F0 16                 BEQ .CHECKCANMOVEUP
01561  0E32                        
01562  0E32             .CANMOVEUP 
01563  0E32  DE B0 28              DEC SPRITE_CHAR_POS_Y_DELTA,X
01564  0E35                        
01565  0E35  BD B0 28              LDA SPRITE_CHAR_POS_Y_DELTA,X
01566  0E38  C9 FF                 CMP #$FF
01567  0E3A  D0 08                 BNE .NOCHARSTEPUP
01568  0E3C                        
01569  0E3C  DE AA 28              DEC SPRITE_CHAR_POS_Y,X
01570  0E3F  A9 07                 LDA #7
01571  0E41  9D B0 28              STA SPRITE_CHAR_POS_Y_DELTA,X
01572  0E44                        
01573  0E44             .NOCHARSTEPUP 
01574  0E44  20 34 0F              JSR MOVESPRITEUP
01575  0E47  60                    RTS
01576  0E48                        
01577  0E48             .CHECKCANMOVEUP 
01578  0E48  BD A4 28              LDA SPRITE_CHAR_POS_X_DELTA,X
01579  0E4B  F0 1A                 BEQ .NOSECONDCHARCHECKNEEDEDUP
01580  0E4D                        
01581  0E4D  BC AA 28              LDY SPRITE_CHAR_POS_Y,X
01582  0E50  88                    DEY
01583  0E51  88                    DEY
01584  0E52  B9 C3 28              LDA SCREEN_LINE_OFFSET_TABLE_LO,Y
01585  0E55  85 17                 STA ZEROPAGE_POINTER_1
01586  0E57  B9 D5 28              LDA SCREEN_LINE_OFFSET_TABLE_HI,Y
01587  0E5A  85 18                 STA ZEROPAGE_POINTER_1 + 1
01588  0E5C             
01589  0E5C  BC 9E 28              LDY SPRITE_CHAR_POS_X,X
01590  0E5F  C8                    INY
01591  0E60                        
01592  0E60  B1 17                 LDA (ZEROPAGE_POINTER_1),Y
01593  0E62                        
01594  0E62  20 67 25              JSR ISCHARBLOCKING
01595  0E65  D0 2C                 BNE .BLOCKEDUP
01596  0E67                        
01597  0E67             .NOSECONDCHARCHECKNEEDEDUP 
01598  0E67             
01599  0E67  BC AA 28              LDY SPRITE_CHAR_POS_Y,X
01600  0E6A  88                    DEY
01601  0E6B             
01602  0E6B  E0 00                 CPX #0        ;SI ES EL PROTAGONISTA HAY QUE COMPROBAR 2 ARRIBA
01603  0E6D  D0 01                 BNE ESENEMIGOUP
01604  0E6F  88                    DEY
01605  0E70             
01606  0E70             ESENEMIGOUP 
01607  0E70  B9 C3 28              LDA SCREEN_LINE_OFFSET_TABLE_LO,Y
01608  0E73  85 17                 STA ZEROPAGE_POINTER_1
01609  0E75  B9 D5 28              LDA SCREEN_LINE_OFFSET_TABLE_HI,Y
01610  0E78  85 18                 STA ZEROPAGE_POINTER_1 + 1
01611  0E7A                        
01612  0E7A  BC 9E 28              LDY SPRITE_CHAR_POS_X,X ;SE COMPRUEBA UNA POSICIÓN
01613  0E7D                        
01614  0E7D  B1 17                 LDA (ZEROPAGE_POINTER_1),Y
01615  0E7F                        
01616  0E7F                        ;SI ES UN ENEMIGO NO SE COMPRUEBA QUE SE PUEDA MOVER
01617  0E7F  E0 00                 CPX #0
01618  0E81  D0 AF                 BNE .CANMOVEUP
01619  0E83             
01620  0E83  20 67 25              JSR ISCHARBLOCKING
01621  0E86  D0 0B                 BNE .BLOCKEDUP
01622  0E88             
01623  0E88  88                    DEY                   ;SE COMPRUEBA LA POSICIÓN ANTERIOR
01624  0E89                        ;DEY
01625  0E89             
01626  0E89  B1 17                 LDA (ZEROPAGE_POINTER_1),Y
01627  0E8B                        
01628  0E8B  20 67 25              JSR ISCHARBLOCKING
01629  0E8E  D0 03                 BNE .BLOCKEDUP
01630  0E90                        
01631  0E90  4C 32 0E              JMP .CANMOVEUP
01632  0E93                        
01633  0E93             .BLOCKEDUP 
01634  0E93  60                    RTS
01635  0E94                        
01636  0E94                        
01637  0E94             ;------------------------------------------------------------
01638  0E94             ;SPRITEMOVEDOWN
01639  0E94             ;EN REGISTRO X CONTIENE EL INDICE DEL SPRITE
01640  0E94             ;------------------------------------------------------------
01641  0E94             SPRITEMOVEDOWN 
01642  0E94  BD B0 28              LDA SPRITE_CHAR_POS_Y_DELTA,X
01643  0E97  F0 18                 BEQ .CHECKCANMOVEDOWN
01644  0E99                        
01645  0E99             .CANMOVEDOWN 
01646  0E99  FE B0 28              INC SPRITE_CHAR_POS_Y_DELTA,X
01647  0E9C                        
01648  0E9C  BD B0 28              LDA SPRITE_CHAR_POS_Y_DELTA,X
01649  0E9F  C9 08                 CMP #8
01650  0EA1  D0 08                 BNE .NOCHARSTEPDOWN
01651  0EA3                        
01652  0EA3  A9 00                 LDA #0
01653  0EA5  9D B0 28              STA SPRITE_CHAR_POS_Y_DELTA,X
01654  0EA8  FE AA 28              INC SPRITE_CHAR_POS_Y,X
01655  0EAB                        
01656  0EAB             .NOCHARSTEPDOWN 
01657  0EAB  20 41 0F              JSR MOVESPRITEDOWN
01658  0EAE  A9 01                 LDA #1
01659  0EB0  60                    RTS
01660  0EB1                        
01661  0EB1             .CHECKCANMOVEDOWN 
01662  0EB1  BD A4 28              LDA SPRITE_CHAR_POS_X_DELTA,X
01663  0EB4  F0 19                 BEQ .NOSECONDCHARCHECKNEEDEDDOWN
01664  0EB6                        
01665  0EB6  BC AA 28              LDY SPRITE_CHAR_POS_Y,X
01666  0EB9  C8                    INY
01667  0EBA  B9 C3 28              LDA SCREEN_LINE_OFFSET_TABLE_LO,Y
01668  0EBD  85 17                 STA ZEROPAGE_POINTER_1
01669  0EBF  B9 D5 28              LDA SCREEN_LINE_OFFSET_TABLE_HI,Y
01670  0EC2  85 18                 STA ZEROPAGE_POINTER_1 + 1
01671  0EC4             
01672  0EC4  BC 9E 28              LDY SPRITE_CHAR_POS_X,X
01673  0EC7  C8                    INY
01674  0EC8  B1 17                 LDA (ZEROPAGE_POINTER_1),Y
01675  0ECA                        
01676  0ECA  20 67 25              JSR ISCHARBLOCKING
01677  0ECD  D0 27                 BNE .BLOCKEDDOWN
01678  0ECF                        
01679  0ECF             .NOSECONDCHARCHECKNEEDEDDOWN 
01680  0ECF             
01681  0ECF  BC AA 28              LDY SPRITE_CHAR_POS_Y,X
01682  0ED2  C8                    INY
01683  0ED3  B9 C3 28              LDA SCREEN_LINE_OFFSET_TABLE_LO,Y
01684  0ED6  85 17                 STA ZEROPAGE_POINTER_1
01685  0ED8  B9 D5 28              LDA SCREEN_LINE_OFFSET_TABLE_HI,Y
01686  0EDB  85 18                 STA ZEROPAGE_POINTER_1 + 1
01687  0EDD                        
01688  0EDD  BC 9E 28              LDY SPRITE_CHAR_POS_X,X        ;SE COMPRUEBA SI SE BLOQUEA
01689  0EE0                        
01690  0EE0  B1 17                 LDA (ZEROPAGE_POINTER_1),Y
01691  0EE2                        
01692  0EE2                        ;SI ES UN ENEMIGO NO SE COMPRUEBA QUE SE PUEDA MOVER
01693  0EE2  E0 00                 CPX #0
01694  0EE4  D0 B3                 BNE .CANMOVEDOWN
01695  0EE6             
01696  0EE6  20 67 25              JSR ISCHARBLOCKING
01697  0EE9  D0 0B                 BNE .BLOCKEDDOWN
01698  0EEB             
01699  0EEB  88                    DEY                    ;SE COMPRUEBA TAMBIÉN EN EL DE LA IZQUIERDA
01700  0EEC                        ;DEY
01701  0EEC                        
01702  0EEC  B1 17                 LDA (ZEROPAGE_POINTER_1),Y
01703  0EEE                        
01704  0EEE                        ;SI ES UN ENEMIGO NO SE COMPRUEBA QUE SE PUEDA MOVER
01705  0EEE                        ;CPX #0
01706  0EEE                        ;BNE .CANMOVEDOWN
01707  0EEE             
01708  0EEE  20 67 25              JSR ISCHARBLOCKING
01709  0EF1  D0 03                 BNE .BLOCKEDDOWN
01710  0EF3                        
01711  0EF3  4C 99 0E              JMP .CANMOVEDOWN
01712  0EF6                        
01713  0EF6             .BLOCKEDDOWN 
01714  0EF6  A9 00                 LDA #0
01715  0EF8  60                    RTS
01716  0EF9             
01717  0EF9             ;------------------------------------------------------------
01718  0EF9             ;MOVE SPRITE LEFT
01719  0EF9             ;EXPECT X AS SPRITE INDEX (0 TO 7)
01720  0EF9             ;------------------------------------------------------------
01721  0EF9             MOVESPRITELEFT 
01722  0EF9  DE 91 28              DEC SPRITE_POS_X,X
01723  0EFC  10 0E                 BPL .NOCHANGEINEXTENDEDFLAGLEFT
01724  0EFE                        
01725  0EFE  BD BB 28              LDA BIT_TABLE,X
01726  0F01  49 FF                 EOR #$FF
01727  0F03  2D 97 28              AND SPRITE_POS_X_EXTEND
01728  0F06  8D 97 28              STA SPRITE_POS_X_EXTEND
01729  0F09  8D 10 D0              STA VIC_SPRITE_X_EXTEND
01730  0F0C                        
01731  0F0C             .NOCHANGEINEXTENDEDFLAGLEFT 
01732  0F0C  8A                    TXA
01733  0F0D  0A                    ASL
01734  0F0E  A8                    TAY
01735  0F0F             
01736  0F0F                        ;JSR ANIMATESPRITE
01737  0F0F                        
01738  0F0F  BD 91 28              LDA SPRITE_POS_X,X
01739  0F12  99 00 D0              STA VIC_SPRITE_X_POS,Y
01740  0F15             
01741  0F15             ;        LDA $1
01742  0F15             ;        STA SCREEN_COLOR
01743  0F15             ;        STA SCREEN_COLOR+1
01744  0F15             ;        STA $CC00
01745  0F15                        ;LDA VIC_SPRITE_X_EXTEND
01746  0F15                        ;STA $CC01
01747  0F15             
01748  0F15  60                    RTS
01749  0F16             
01750  0F16             ;------------------------------------------------------------
01751  0F16             ;MOVE SPRITE RIGHT
01752  0F16             ;EXPECT X AS SPRITE INDEX (0 TO 7)
01753  0F16             ;------------------------------------------------------------
01754  0F16             MOVESPRITERIGHT 
01755  0F16  FE 91 28              INC SPRITE_POS_X,X
01756  0F19  BD 91 28              LDA SPRITE_POS_X,X
01757  0F1C  D0 0C                 BNE .NOCHANGEINEXTENDEDFLAGRIGHT
01758  0F1E                        
01759  0F1E  BD BB 28              LDA BIT_TABLE,X
01760  0F21  0D 97 28              ORA SPRITE_POS_X_EXTEND
01761  0F24  8D 97 28              STA SPRITE_POS_X_EXTEND
01762  0F27  8D 10 D0              STA VIC_SPRITE_X_EXTEND
01763  0F2A                        
01764  0F2A             .NOCHANGEINEXTENDEDFLAGRIGHT 
01765  0F2A  8A                    TXA
01766  0F2B  0A                    ASL
01767  0F2C  A8                    TAY
01768  0F2D             
01769  0F2D                        ;JSR ANIMATESPRITE
01770  0F2D                        
01771  0F2D  BD 91 28              LDA SPRITE_POS_X,X
01772  0F30  99 00 D0              STA VIC_SPRITE_X_POS,Y
01773  0F33             
01774  0F33             ;        LDA $1
01775  0F33             ;        STA SCREEN_COLOR
01776  0F33             ;        STA SCREEN_COLOR+1
01777  0F33             
01778  0F33             ;        STA $CC00
01779  0F33                        ;LDA VIC_SPRITE_X_EXTEND
01780  0F33                        ;STA $CC01
01781  0F33             
01782  0F33  60                    RTS
01783  0F34             
01784  0F34             ;------------------------------------------------------------
01785  0F34             ;MOVE SPRITE UP
01786  0F34             ;EXPECT X AS SPRITE INDEX (0 TO 7)
01787  0F34             ;------------------------------------------------------------
01788  0F34             ;!ZONE MOVESPRITEUP
01789  0F34             MOVESPRITEUP 
01790  0F34  DE 98 28              DEC SPRITE_POS_Y,X
01791  0F37                        
01792  0F37  8A                    TXA
01793  0F38  0A                    ASL
01794  0F39  A8                    TAY
01795  0F3A                        
01796  0F3A                        ;JSR ANIMATESPRITE
01797  0F3A             
01798  0F3A  BD 98 28              LDA SPRITE_POS_Y,X
01799  0F3D  99 01 D0              STA VIC_SPRITE_Y_POS,Y
01800  0F40             
01801  0F40  60                    RTS
01802  0F41             
01803  0F41             ;------------------------------------------------------------
01804  0F41             ;MOVE SPRITE DOWN
01805  0F41             ;EXPECT X AS SPRITE INDEX (0 TO 7)
01806  0F41             ;------------------------------------------------------------
01807  0F41             ;!ZONE MOVESPRITEDOWN
01808  0F41             MOVESPRITEDOWN 
01809  0F41  FE 98 28              INC SPRITE_POS_Y,X
01810  0F44                        
01811  0F44  8A                    TXA
01812  0F45  0A                    ASL
01813  0F46  A8                    TAY
01814  0F47                        
01815  0F47                        ;JSR ANIMATESPRITE
01816  0F47             
01817  0F47  BD 98 28              LDA SPRITE_POS_Y,X
01818  0F4A  99 01 D0              STA VIC_SPRITE_Y_POS,Y
01819  0F4D  60                    RTS
01820  0F4E             ;==============================================================================
01821  0F4E             ;CHECKCOLLISION
01822  0F4E             ; COMPRUEBA SI HA HABIDO COLISIÓN ENTRE EL PROTAGONISTA Y ALGÚN OTRO SPRITE
01823  0F4E             ;==============================================================================
01824  0F4E             CHECKCOLLISION 
01825  0F4E  AD 1E D0              LDA SPRITE_COLLISION
01826  0F51  A8                    TAY
01827  0F52  29 01                 AND #$01
01828  0F54  D0 14                 BNE BUCLECHECKCOLLISION
01829  0F56             
01830  0F56  AD 1F D0              LDA BACKGROUND_COLLISION
01831  0F59  29 01                 AND #$01
01832  0F5B  F0 0A                 BEQ NOCOLLISIONBACKGROUND
01833  0F5D             
01834  0F5D  AD 43 28              LDA CUR_SCREEN
01835  0F60  C9 24                 CMP #36
01836  0F62  D0 03                 BNE NOCOLLISIONBACKGROUND
01837  0F64             
01838  0F64  20 02 10              JSR TRANSPORTAR
01839  0F67                        
01840  0F67             
01841  0F67             NOCOLLISIONBACKGROUND 
01842  0F67  A9 00                 LDA #0          ;NO HAY COLISION
01843  0F69  60                    RTS
01844  0F6A             
01845  0F6A             BUCLECHECKCOLLISION 
01846  0F6A  98                    TYA
01847  0F6B             
01848  0F6B  A2 01                 LDX #1
01849  0F6D             CHECKNEWENEMY 
01850  0F6D  48                    PHA                     ;SE ALMACENA A EN LA PILA PARA DESPUÉS
01851  0F6E  BC 49 28              LDY ENEMY_TYPE,X        ;SE CARGA EL TIPO DE ENEMIGO
01852  0F71  F0 6B                 BEQ NEXTSPRITE          ;SI NO HAY ENEMIGO SE PASA AL SIGUIENTE
01853  0F73             
01854  0F73  3D BB 28              AND BIT_TABLE,X         ;SE COMPRUEBA SI HAY COLISIÓN
01855  0F76  F0 66                 BEQ NEXTSPRITE          ;SI NO HAY SE PASA AL SIGUIENTE SPRITE
01856  0F78             
01857  0F78  68                    PLA                     ;SE RECUPERA A
01858  0F79  C0 32                 CPY #SP_START_LOCKS
01859  0F7B  30 5D                 BMI MUERTE              ;SI SON ENEMIGOS
01860  0F7D  C0 46                 CPY #SP_START_TRANSPORTERS
01861  0F7F  30 0D                 BMI TOCARCERRADURA      ;SI ES UNA CERRADURA
01862  0F81  C0 5A                 CPY #SP_START_KEYS
01863  0F83  30 03                 BMI TOCARTRANSPORTADOR  ;SI ES UN TRANSPOORTADOR
01864  0F85             
01865  0F85  4C B8 0F              JMP COGERLLAVE
01866  0F88             
01867  0F88             TOCARTRANSPORTADOR 
01868  0F88                        ;ES UN TRANSPORTADOR
01869  0F88  20 02 10              JSR TRANSPORTAR
01870  0F8B  4C FF 0F              JMP NOCOLLISION
01871  0F8E             
01872  0F8E             TOCARCERRADURA 
01873  0F8E                        ;SI SON CERRADURAS
01874  0F8E  98                    TYA     ;EN Y ESTÁ LA CERRADURA
01875  0F8F  18                    CLC     ;SE PONE EL FLAG DE CARRY A 0 PARA QUE NO HAYA CARRY EN LA SUMA
01876  0F90  69 28                 ADC #40 ;SE SUMA 40 PARA AVERIGUAR LA LLAVE QUE ABRE LA CERRADURA
01877  0F92                        
01878  0F92             ABRIRPUERTA 
01879  0F92  CD 27 29              CMP INVENTARIO
01880  0F95  D0 11                 BNE CHECKSEGUNDALLAVE
01881  0F97  AD 28 29              LDA INVENTARIO+1        ;SE PASA EL OBJETO DE LA SEGUNDA POSICIÓN
01882  0F9A  8D 27 29              STA INVENTARIO          ;A LA PRIMERA
01883  0F9D  A9 00                 LDA #0
01884  0F9F  8D 28 29              STA INVENTARIO+1        ;SE BORRA LA SEGUNDA POSICIÓN
01885  0FA2  20 3A 11              JSR ACTUALIZARESTADOPUERTA
01886  0FA5  4C E4 0F              JMP COLISIONSINMUERTEPUERTA
01887  0FA8             
01888  0FA8             CHECKSEGUNDALLAVE 
01889  0FA8  CD 28 29              CMP INVENTARIO+1
01890  0FAB  D0 52                 BNE NOCOLLISION
01891  0FAD  A9 00                 LDA #0
01892  0FAF  8D 28 29              STA INVENTARIO+1        ;SE BORRA LA SEGUNDA POSICIÓN
01893  0FB2  20 3A 11              JSR ACTUALIZARESTADOPUERTA
01894  0FB5  4C E4 0F              JMP COLISIONSINMUERTEPUERTA
01895  0FB8             
01896  0FB8             COGERLLAVE 
01897  0FB8  CC 27 29              CPY INVENTARIO  ;SE COMPRUEBA SI YA SE TIENE EL OBJETO
01898  0FBB  F0 42                 BEQ NOCOLLISION
01899  0FBD             
01900  0FBD  AD 27 29              LDA INVENTARIO  ;SE COMPRUEBA SI YA ESTÁ OCUPADA LA PRIMERA POSICIÓN DEL INVENTARIO
01901  0FC0  D0 07                 BNE COGERLLAVESEGUNDAPOSICION
01902  0FC2  98                    TYA
01903  0FC3  8D 27 29              STA INVENTARIO  ;SE COGE EN LA PRIMERA POSICIÓN DEL INVENTARIO
01904  0FC6             
01905  0FC6                        ;JSR ACTUALIZARESTADOPUERTA
01906  0FC6  4C EA 0F              JMP COLISIONSINMUERTELLAVE
01907  0FC9             
01908  0FC9             COGERLLAVESEGUNDAPOSICION 
01909  0FC9  CC 28 29              CPY INVENTARIO+1  ;SE COMPRUEBA SI YA SE TIENE EL OBJETO
01910  0FCC  F0 31                 BEQ NOCOLLISION
01911  0FCE             
01912  0FCE  AD 28 29              LDA INVENTARIO+1  ;SE COMPRUEBA SI YA ESTÁ OCUPADA LA SEGUNDA POSICIÓN DEL INVENTARIO
01913  0FD1  D0 2C                 BNE NOCOLLISION
01914  0FD3  98                    TYA
01915  0FD4  8D 28 29              STA INVENTARIO+1        ;SE COGE EN LA SEGUNDA POSICIÓN DEL INVENTARIO
01916  0FD7             
01917  0FD7                        ;JSR ACTUALIZARESTADOPUERTA
01918  0FD7  4C EA 0F              JMP COLISIONSINMUERTELLAVE
01919  0FDA                        
01920  0FDA             MUERTE     
01921  0FDA  20 3D 15              JSR PLAYERDEATH         ;HA SIDO MUERTE DEL JUGADOR
01922  0FDD  60                    RTS
01923  0FDE             
01924  0FDE             NEXTSPRITE 
01925  0FDE  68                    PLA
01926  0FDF  E8                    INX     ;SE INCREMENTA X
01927  0FE0  E0 07                 CPX #7
01928  0FE2  D0 89                 BNE CHECKNEWENEMY
01929  0FE4             
01930  0FE4             COLISIONSINMUERTEPUERTA 
01931  0FE4             ;        LDA CUR_SCREEN
01932  0FE4             ;        CMP #37
01933  0FE4             ;        BNE SOLOINVENTARIO
01934  0FE4  20 6E 12              JSR USAROBJETO          ;SE USA EL OBJETO EN CASO NECESARIO
01935  0FE7  4C FC 0F              JMP SOLOINVENTARIO
01936  0FEA             
01937  0FEA             COLISIONSINMUERTELLAVE 
01938  0FEA  A9 04                 LDA #SND_OBJETO
01939  0FEC  20 9C 25              JSR INITPICKEDFX
01940  0FEF             
01941  0FEF  AD 43 28              LDA CUR_SCREEN
01942  0FF2  C9 25                 CMP #37
01943  0FF4  F0 06                 BEQ SOLOINVENTARIO
01944  0FF6  20 3A 11              JSR ACTUALIZARESTADOPUERTA
01945  0FF9  20 6E 12              JSR USAROBJETO          ;SE USA EL OBJETO EN CASO NECESARIO
01946  0FFC             
01947  0FFC             SOLOINVENTARIO 
01948  0FFC  20 83 14              JSR MOSTRARINVENTARIO   ;SE ACTUALIZA EL INVENTARIO
01949  0FFF                        
01950  0FFF             NOCOLLISION 
01951  0FFF  A9 00                 LDA #0  ;PARA INDICAR QUE NO HAY COLISIÓN
01952  1001  60                    RTS
01953  1002             
01954  1002             
01955  1002             ;==============================================================================
01956  1002             ;TRANSPORTAR
01957  1002             ; TRANSPORTA AL PERSONAJE CUANDO TOCA UN TRANSPORTADOR
01958  1002             ;==============================================================================
01959  1002             TRANSPORTAR 
01960  1002  AD 43 28              LDA CUR_SCREEN
01961  1005  C9 06                 CMP #6          ;SE COMPRUEBA SI ES LA PANTALLA 6
01962  1007  D0 10                 BNE CHECKTRANSPORT12
01963  1009             
01964  1009  A9 04                 LDA #4                  ;TRANSPORTADOR DE LA PANTALLA 6
01965  100B  8D 43 28              STA CUR_SCREEN          ;TRANSPORTA A LA 4
01966  100E             
01967  100E                        ;SE ALMACENA LA POSICIÓN EN LA QUE SE CAMBIA DE PANTALLA
01968  100E  A9 1F                 LDA #31
01969  1010  85 03                 STA PARAM1
01970  1012  A9 07                 LDA #7
01971  1014  85 04                 STA PARAM2
01972  1016                        
01973  1016  4C FE 10              JMP ENDCHECKTRANSPORT
01974  1019             
01975  1019             CHECKTRANSPORT12 
01976  1019  C9 0C                 CMP #12          ;SE COMPRUEBA SI ES LA PANTALLA 12
01977  101B  D0 10                 BNE CHECKTRANSPORT17
01978  101D             
01979  101D  A9 0D                 LDA #13                 ;TRANSPORTADOR DE LA PANTALLA 12
01980  101F  8D 43 28              STA CUR_SCREEN          ;TRANSPORTA A LA 13
01981  1022             
01982  1022                        ;SE ALMACENA LA POSICIÓN EN LA QUE SE CAMBIA DE PANTALLA
01983  1022  A9 1D                 LDA #29
01984  1024  85 03                 STA PARAM1
01985  1026  A9 0D                 LDA #13
01986  1028  85 04                 STA PARAM2
01987  102A                        
01988  102A  4C FE 10              JMP ENDCHECKTRANSPORT
01989  102D             
01990  102D             CHECKTRANSPORT17 
01991  102D  C9 11                 CMP #17          ;SE COMPRUEBA SI ES LA PANTALLA 17
01992  102F  D0 10                 BNE CHECKTRANSPORT22
01993  1031             
01994  1031  A9 12                 LDA #18                 ;TRANSPORTADOR DE LA PANTALLA 17
01995  1033  8D 43 28              STA CUR_SCREEN          ;TRANSPORTA A LA 18
01996  1036             
01997  1036                        ;SE ALMACENA LA POSICIÓN EN LA QUE SE CAMBIA DE PANTALLA
01998  1036  A9 06                 LDA #6
01999  1038  85 03                 STA PARAM1
02000  103A  A9 03                 LDA #3
02001  103C  85 04                 STA PARAM2
02002  103E                        
02003  103E  4C FE 10              JMP ENDCHECKTRANSPORT
02004  1041             
02005  1041             CHECKTRANSPORT22 
02006  1041  C9 16                 CMP #22          ;SE COMPRUEBA SI ES LA PANTALLA 22
02007  1043  D0 10                 BNE CHECKTRANSPORT25
02008  1045             
02009  1045  A9 13                 LDA #19                 ;TRANSPORTADOR DE LA PANTALLA 19
02010  1047  8D 43 28              STA CUR_SCREEN          ;TRANSPORTA A LA 19
02011  104A             
02012  104A                        ;SE ALMACENA LA POSICIÓN EN LA QUE SE CAMBIA DE PANTALLA
02013  104A  A9 0A                 LDA #10
02014  104C  85 03                 STA PARAM1
02015  104E  A9 05                 LDA #5
02016  1050  85 04                 STA PARAM2
02017  1052                        
02018  1052  4C FE 10              JMP ENDCHECKTRANSPORT
02019  1055             
02020  1055             CHECKTRANSPORT25 
02021  1055  C9 19                 CMP #25          ;SE COMPRUEBA SI ES LA PANTALLA 25
02022  1057  D0 10                 BNE CHECKTRANSPORT36
02023  1059             
02024  1059  A9 1A                 LDA #26                 ;TRANSPORTADOR A LA PANTALLA 26
02025  105B  8D 43 28              STA CUR_SCREEN          ;TRANSPORTA A LA 19
02026  105E             
02027  105E                        ;SE ALMACENA LA POSICIÓN EN LA QUE SE CAMBIA DE PANTALLA
02028  105E  A9 20                 LDA #32
02029  1060  85 03                 STA PARAM1
02030  1062  A9 08                 LDA #8
02031  1064  85 04                 STA PARAM2
02032  1066                        
02033  1066  4C FE 10              JMP ENDCHECKTRANSPORT
02034  1069             
02035  1069             CHECKTRANSPORT36 
02036  1069  C9 24                 CMP #36          ;SE COMPRUEBA SI ES LA PANTALLA 36
02037  106B  D0 6C                 BNE CHECKTRANSPORT37
02038  106D             
02039  106D                        ;SE COMPRUEBA QUE ESTÁ A LA ALTURA DE LOS TRANSPORTADORES
02040  106D  AD 01 D0              LDA VIC_SPRITE_Y_POS
02041  1070  C9 58                 CMP #88
02042  1072  30 01                 BMI CHECKX
02043  1074  60                    RTS
02044  1075             
02045  1075             CHECKX
02046  1075  AD 10 D0              LDA VIC_SPRITE_X_EXTEND
02047  1078  29 01                 AND #$01
02048  107A  F0 0A                 BEQ COLORESMENORES
02049  107C             
02050  107C  AD 00 D0              LDA VIC_SPRITE_X_POS
02051  107F  C9 10                 CMP #16
02052  1081  30 20                 BMI ESPURPLE
02053  1083  4C 9E 10              JMP ESRED
02054  1086             
02055  1086             COLORESMENORES 
02056  1086  AD 00 D0              LDA VIC_SPRITE_X_POS
02057  1089  C9 98                 CMP #152
02058  108B  10 01                 BPL COLORES
02059  108D  60                    RTS
02060  108E             
02061  108E             COLORES
02062  108E  C9 C8                 CMP #200
02063  1090  30 20                 BMI ESYELLOW
02064  1092  C9 E0                 CMP #224
02065  1094  30 17                 BMI ESCYAN
02066  1096  C9 F8                 CMP #248
02067  1098  30 0E                 BMI ESGREEN
02068  109A                        
02069  109A  C9 FF                 CMP #255
02070  109C  30 05                 BMI ESPURPLE
02071  109E             
02072  109E             ESRED
02073  109E  A2 04                 LDX #4
02074  10A0  4C B4 10              JMP CHECKCORRECT
02075  10A3             ESPURPLE
02076  10A3  A2 03                 LDX #3
02077  10A5  4C B4 10              JMP CHECKCORRECT
02078  10A8             ESGREEN
02079  10A8  A2 02                 LDX #2
02080  10AA  4C B4 10              JMP CHECKCORRECT
02081  10AD             ESCYAN
02082  10AD  A2 01                 LDX#1
02083  10AF  4C B4 10              JMP CHECKCORRECT
02084  10B2             ESYELLOW
02085  10B2  A2 00                 LDX #0
02086  10B4             
02087  10B4             CHECKCORRECT 
02088  10B4  EC A0 2A              CPX VALOR_DIAMANTE
02089  10B7  F0 10                 BEQ COLORCORRECTO
02090  10B9             
02091  10B9  A9 0A                 LDA #10                 ;TRANSPORTADOR A LA PANTALLA 10
02092  10BB  8D 43 28              STA CUR_SCREEN
02093  10BE                        
02094  10BE                        ;SE ALMACENA LA POSICIÓN EN LA QUE SE CAMBIA DE PANTALLA
02095  10BE  A9 1A                 LDA #26
02096  10C0  85 03                 STA PARAM1
02097  10C2  A9 06                 LDA #6
02098  10C4  85 04                 STA PARAM2
02099  10C6             
02100  10C6  4C FE 10              JMP ENDCHECKTRANSPORT
02101  10C9             
02102  10C9             COLORCORRECTO 
02103  10C9  A9 25                 LDA #37                 ;TRANSPORTADOR A LA PANTALLA 37
02104  10CB  8D 43 28              STA CUR_SCREEN
02105  10CE                        
02106  10CE                        ;SE ALMACENA LA POSICIÓN EN LA QUE SE CAMBIA DE PANTALLA
02107  10CE  A9 07                 LDA #7
02108  10D0  85 03                 STA PARAM1
02109  10D2  A9 03                 LDA #3
02110  10D4  85 04                 STA PARAM2
02111  10D6             
02112  10D6  4C FE 10              JMP ENDCHECKTRANSPORT
02113  10D9             
02114  10D9             CHECKTRANSPORT37 
02115  10D9  C9 25                 CMP #37          ;SE COMPRUEBA SI ES LA PANTALLA 37
02116  10DB  D0 10                 BNE CHECKTRANSPORT43
02117  10DD             
02118  10DD  A9 26                 LDA #38                 ;TRANSPORTADOR A LA PANTALLA 37
02119  10DF  8D 43 28              STA CUR_SCREEN          ;TRANSPORTA A LA 38
02120  10E2             
02121  10E2                        ;SE ALMACENA LA POSICIÓN EN LA QUE SE CAMBIA DE PANTALLA
02122  10E2  A9 08                 LDA #8
02123  10E4  85 03                 STA PARAM1
02124  10E6  A9 0C                 LDA #12
02125  10E8  85 04                 STA PARAM2
02126  10EA                        
02127  10EA  4C FE 10              JMP ENDCHECKTRANSPORT
02128  10ED             
02129  10ED             CHECKTRANSPORT43 
02130  10ED  C9 2B                 CMP #43          ;SE COMPRUEBA SI ES LA PANTALLA 43
02131  10EF  D0 48                 BNE NOTRANSPORT
02132  10F1             
02133  10F1  A9 2D                 LDA #45                 ;TRANSPORTADOR A LA PANTALLA 43
02134  10F3  8D 43 28              STA CUR_SCREEN          ;TRANSPORTA A LA 45
02135  10F6             
02136  10F6                        ;SE ALMACENA LA POSICIÓN EN LA QUE SE CAMBIA DE PANTALLA
02137  10F6  A9 20                 LDA #32
02138  10F8  85 03                 STA PARAM1
02139  10FA  A9 0B                 LDA #11
02140  10FC  85 04                 STA PARAM2
02141  10FE             
02142  10FE             ENDCHECKTRANSPORT 
02143  10FE  A9 09                 LDA #SND_TRANSPORT
02144  1100  20 9C 25              JSR INITPICKEDFX
02145  1103             
02146  1103  A2 14                 LDX #20
02147  1105             BUCLEESPERA 
02148  1105  20 12 1C              JSR WAITFRAME
02149  1108  CA                    DEX
02150  1109  D0 FA                 BNE BUCLEESPERA
02151  110B             
02152  110B                        ;SE GUARDA LA POSICIÓN DE ENTRADA EN LA PANTALLA AL TRANSPORTAR
02153  110B  A5 03                 LDA PARAM1
02154  110D  8D B6 28              STA PLAYER_POS_ENTRADA_PANTALLA_X
02155  1110  A5 04                 LDA PARAM2
02156  1112  8D B7 28              STA PLAYER_POS_ENTRADA_PANTALLA_Y
02157  1115             
02158  1115                        ;SE RESETEA EL ESTADO DEL SALTO O CAIDA
02159  1115  A9 00                 LDA #0
02160  1117  8D F9 28              STA PLAYER_JUMP_POS
02161  111A  8D B8 28              STA PLAYER_ENTRADA_JUMP_POS
02162  111D  8D 1C 29              STA PLAYER_FALL_POS
02163  1120  8D B9 28              STA PLAYER_ENTRADA_FALL_POS
02164  1123             
02165  1123  A2 00                 LDX #0                          ;SE PONE AL JUGADOR EN SU POSICIÓN
02166  1125  20 39 19              JSR CALCSPRITEPOSFROMCHARPOS
02167  1128             
02168  1128  AD 43 28              LDA CUR_SCREEN
02169  112B  20 55 0B              JSR CHECKCAMBIOSDECHARSET
02170  112E  20 4E 1A              JSR BUILDSCREEN                 ;SE CARGA LA PANTALLA
02171  1131             
02172  1131  AD 1E D0              LDA SPRITE_COLLISION
02173  1134             
02174  1134  A9 09                 LDA #SND_TRANSPORT
02175  1136  20 9C 25              JSR INITPICKEDFX
02176  1139             
02177  1139             NOTRANSPORT 
02178  1139  60                    RTS
02179  113A             
02180  113A             
02181  113A             ;==============================================================================
02182  113A             ;ACTUALIZARESTADOPUERTA
02183  113A             ; SE ACTUALIZA EL REGISTRO DE PUERTAS PARA PONER LAS QUE SE HAYAN ABIERTO
02184  113A             ;==============================================================================
02185  113A             ACTUALIZARESTADOPUERTA 
02186  113A  AD 43 28              LDA CUR_SCREEN
02187  113D  C9 04                 CMP #4          ;PUERTA DE LA PANTALLA 4
02188  113F  D0 0B                 BNE ESTADOPUERTA6
02189  1141  AD 9D 2A              LDA PUERTAS_ABIERTAS
02190  1144  09 01                 ORA #$01
02191  1146  8D 9D 2A              STA PUERTAS_ABIERTAS
02192  1149  4C F5 11              JMP FINACTUALIZARESTADOPUERTA
02193  114C             
02194  114C             ESTADOPUERTA6 
02195  114C  C9 06                 CMP #6          ;PUERTA DE LA PANTALLA 6
02196  114E  D0 0B                 BNE ESTADOPUERTA8
02197  1150  AD 9D 2A              LDA PUERTAS_ABIERTAS
02198  1153  09 02                 ORA #$02
02199  1155  8D 9D 2A              STA PUERTAS_ABIERTAS
02200  1158  4C F5 11              JMP FINACTUALIZARESTADOPUERTA
02201  115B             
02202  115B             ESTADOPUERTA8 
02203  115B  C9 08                 CMP #8          ;PUERTA DE LA PANTALLA 8
02204  115D  D0 0B                 BNE ESTADOPUERTA9
02205  115F  AD 9D 2A              LDA PUERTAS_ABIERTAS
02206  1162  09 04                 ORA #$04
02207  1164  8D 9D 2A              STA PUERTAS_ABIERTAS
02208  1167  4C F5 11              JMP FINACTUALIZARESTADOPUERTA
02209  116A             
02210  116A             ESTADOPUERTA9 
02211  116A  C9 09                 CMP #9          ;PUERTA DE LA PANTALLA 9
02212  116C  D0 0B                 BNE ESTADOPUERTA12
02213  116E  AD 9D 2A              LDA PUERTAS_ABIERTAS
02214  1171  09 08                 ORA #$08
02215  1173  8D 9D 2A              STA PUERTAS_ABIERTAS
02216  1176  4C F5 11              JMP FINACTUALIZARESTADOPUERTA
02217  1179             
02218  1179             ESTADOPUERTA12 
02219  1179  C9 0C                 CMP #12          ;PUERTA DE LA PANTALLA 12
02220  117B  D0 0F                 BNE ESTADOPUERTA16
02221  117D  C0 36                 CPY #SP_LOCK_4
02222  117F  D0 74                 BNE FINACTUALIZARESTADOPUERTA
02223  1181             
02224  1181  AD 9D 2A              LDA PUERTAS_ABIERTAS
02225  1184  09 10                 ORA #$10
02226  1186  8D 9D 2A              STA PUERTAS_ABIERTAS
02227  1189  4C F5 11              JMP FINACTUALIZARESTADOPUERTA
02228  118C             
02229  118C             ESTADOPUERTA16 
02230  118C  C9 10                 CMP #16          ;PUERTA DE LA PANTALLA 16
02231  118E  D0 0B                 BNE ESTADOPUERTA21
02232  1190             
02233  1190  AD 9D 2A              LDA PUERTAS_ABIERTAS
02234  1193  09 20                 ORA #$20
02235  1195  8D 9D 2A              STA PUERTAS_ABIERTAS
02236  1198  4C F5 11              JMP FINACTUALIZARESTADOPUERTA
02237  119B             
02238  119B             ESTADOPUERTA21 
02239  119B  C9 15                 CMP #21          ;PUERTA DE LA PANTALLA 21
02240  119D  D0 0B                 BNE ESTADOPUERTA17
02241  119F             
02242  119F  AD 9D 2A              LDA PUERTAS_ABIERTAS
02243  11A2  09 40                 ORA #$40
02244  11A4  8D 9D 2A              STA PUERTAS_ABIERTAS
02245  11A7  4C F5 11              JMP FINACTUALIZARESTADOPUERTA
02246  11AA             
02247  11AA             ESTADOPUERTA17 
02248  11AA  C9 11                 CMP #17          ;PUERTA DE LA PANTALLA 17
02249  11AC  D0 0B                 BNE ESTADOPUERTA26
02250  11AE             
02251  11AE  AD 9D 2A              LDA PUERTAS_ABIERTAS
02252  11B1  09 80                 ORA #$80
02253  11B3  8D 9D 2A              STA PUERTAS_ABIERTAS
02254  11B6  4C F5 11              JMP FINACTUALIZARESTADOPUERTA
02255  11B9             
02256  11B9             ESTADOPUERTA26 
02257  11B9  C9 1A                 CMP #26          ;PUERTA DE LA PANTALLA 26
02258  11BB  D0 0B                 BNE ESTADOPUERTA36
02259  11BD             
02260  11BD  AD 9E 2A              LDA PUERTAS_ABIERTAS + 1
02261  11C0  09 01                 ORA #$01
02262  11C2  8D 9E 2A              STA PUERTAS_ABIERTAS + 1
02263  11C5  4C F5 11              JMP FINACTUALIZARESTADOPUERTA
02264  11C8             
02265  11C8             ESTADOPUERTA36 
02266  11C8  C9 24                 CMP #36          ;PUERTA DE LA PANTALLA 36
02267  11CA  D0 0B                 BNE ESTADOPUERTA37
02268  11CC             
02269  11CC  AD 9E 2A              LDA PUERTAS_ABIERTAS + 1
02270  11CF  09 02                 ORA #$02
02271  11D1  8D 9E 2A              STA PUERTAS_ABIERTAS + 1
02272  11D4  4C F5 11              JMP FINACTUALIZARESTADOPUERTA
02273  11D7             
02274  11D7             ESTADOPUERTA37 
02275  11D7  C9 25                 CMP #37          ;PUERTA DE LA PANTALLA 37
02276  11D9  D0 0B                 BNE ESTADOPUERTA43
02277  11DB             
02278  11DB  AD 9E 2A              LDA PUERTAS_ABIERTAS + 1
02279  11DE  09 04                 ORA #$04
02280  11E0  8D 9E 2A              STA PUERTAS_ABIERTAS + 1
02281  11E3  4C F5 11              JMP FINACTUALIZARESTADOPUERTA
02282  11E6             
02283  11E6             ESTADOPUERTA43 
02284  11E6  C9 2B                 CMP #43          ;PUERTA DE LA PANTALLA 43
02285  11E8  D0 0B                 BNE FINACTUALIZARESTADOPUERTA
02286  11EA             
02287  11EA  AD 9E 2A              LDA PUERTAS_ABIERTAS + 1
02288  11ED  09 08                 ORA #$08
02289  11EF  8D 9E 2A              STA PUERTAS_ABIERTAS + 1
02290  11F2  4C F5 11              JMP FINACTUALIZARESTADOPUERTA
02291  11F5             
02292  11F5             FINACTUALIZARESTADOPUERTA 
02293  11F5  60                    RTS
02294  11F6             
02295  11F6             
02296  11F6             ;==============================================================================
02297  11F6             ;EFECTOABRIRPUERTA
02298  11F6             ; HACE EL EFECTO DE ABRIR UNA PUERTA
02299  11F6             ;==============================================================================
02300  11F6             EFECTOABRIRPUERTA 
02301  11F6  A9 08                 LDA #SND_PUERTA
02302  11F8  20 9C 25              JSR INITPICKEDFX
02303  11FB             
02304  11FB  A9 0F                 LDA #15
02305  11FD  8D AB 2A              STA COLOR_PUERTA
02306  1200             
02307  1200             INICIOCAMBIOCOLOR 
02308  1200  AD A7 2A              LDA PUERTA_FILA_INI
02309  1203  AA                    TAX
02310  1204             
02311  1204             FILAPUERTACOLOR 
02312  1204  BD C3 28              LDA SCREEN_LINE_OFFSET_TABLE_LO,X
02313  1207  85 17                 STA ZEROPAGE_POINTER_1
02314  1209  BD E7 28              LDA COLOR_LINE_OFFSET_TABLE_HI,X
02315  120C  85 18                 STA ZEROPAGE_POINTER_1 + 1
02316  120E                        
02317  120E  AD A9 2A              LDA PUERTA_COLUMNA_INI
02318  1211  18                    CLC
02319  1212  65 17                 ADC ZEROPAGE_POINTER_1
02320  1214  90 02                 BCC NOCAMBIAPAGINAINICIOCOLOR
02321  1216  E6 18                 INC ZEROPAGE_POINTER_1 + 1
02322  1218                        
02323  1218             NOCAMBIAPAGINAINICIOCOLOR 
02324  1218  85 17                 STA ZEROPAGE_POINTER_1
02325  121A  AD AB 2A              LDA COLOR_PUERTA
02326  121D  A0 00                 LDY #0
02327  121F             COLUMNAPUERTACOLOR 
02328  121F  91 17                 STA (ZEROPAGE_POINTER_1),Y
02329  1221  C8                    INY
02330  1222  CC AA 2A              CPY PUERTA_ANCHO
02331  1225  D0 F8                 BNE COLUMNAPUERTACOLOR
02332  1227             
02333  1227  EC A8 2A              CPX PUERTA_FILA_FIN
02334  122A  F0 04                 BEQ SIGUIENTECOLOR
02335  122C  E8                    INX
02336  122D  4C 04 12              JMP FILAPUERTACOLOR
02337  1230             
02338  1230             SIGUIENTECOLOR 
02339  1230  20 12 1C              JSR WAITFRAME
02340  1233  AD AB 2A              LDA COLOR_PUERTA
02341  1236  F0 06                 BEQ QUITARPUERTA
02342  1238  CE AB 2A              DEC COLOR_PUERTA
02343  123B             
02344  123B  4C 00 12              JMP INICIOCAMBIOCOLOR
02345  123E             
02346  123E             QUITARPUERTA 
02347  123E  AD A7 2A              LDA PUERTA_FILA_INI
02348  1241  AA                    TAX
02349  1242             
02350  1242             FILAQUITARPUERTA 
02351  1242  BD C3 28              LDA SCREEN_LINE_OFFSET_TABLE_LO,X
02352  1245  85 17                 STA ZEROPAGE_POINTER_1
02353  1247  BD D5 28              LDA SCREEN_LINE_OFFSET_TABLE_HI,X
02354  124A  85 18                 STA ZEROPAGE_POINTER_1 + 1
02355  124C                        
02356  124C  AD A9 2A              LDA PUERTA_COLUMNA_INI
02357  124F  18                    CLC
02358  1250  65 17                 ADC ZEROPAGE_POINTER_1
02359  1252  90 02                 BCC NOCAMBIAPAGINAINICIO
02360  1254  E6 18                 INC ZEROPAGE_POINTER_1 + 1
02361  1256                        
02362  1256             NOCAMBIAPAGINAINICIO 
02363  1256  85 17                 STA ZEROPAGE_POINTER_1
02364  1258  A9 20                 LDA #$20
02365  125A  A0 00                 LDY #0
02366  125C             COLUMNAPUERTA 
02367  125C  91 17                 STA (ZEROPAGE_POINTER_1),Y
02368  125E  C8                    INY
02369  125F  CC AA 2A              CPY PUERTA_ANCHO
02370  1262  D0 F8                 BNE COLUMNAPUERTA
02371  1264             
02372  1264  EC A8 2A              CPX PUERTA_FILA_FIN
02373  1267  F0 04                 BEQ FINQUITARPUERTA
02374  1269  E8                    INX
02375  126A  4C 42 12              JMP FILAQUITARPUERTA
02376  126D             
02377  126D             FINQUITARPUERTA 
02378  126D  60                    RTS
02379  126E             
02380  126E             ;==============================================================================
02381  126E             ;USAROBJETO
02382  126E             ; SE ABREN LAS PUERTAS SI ESTÁN ABIERTAS
02383  126E             ;==============================================================================
02384  126E             USAROBJETO 
02385  126E  AD 43 28              LDA CUR_SCREEN
02386  1271  C9 04                 CMP #4                  ;PANTALLA 4
02387  1273  D0 1F                 BNE CKECKPANTALLA6
02388  1275                        
02389  1275  AD 9D 2A              LDA PUERTAS_ABIERTAS    ;SE COMPRUEBA SI LA PUERTA ESTÁ ABIERTA
02390  1278  29 01                 AND #$01
02391  127A  F0 18                 BEQ CKECKPANTALLA6
02392  127C             
02393  127C  A9 0A                 LDA #10 ;FILA INICIO
02394  127E  8D A7 2A              STA PUERTA_FILA_INI
02395  1281  A9 0D                 LDA #13  ;FILA FIN
02396  1283  8D A8 2A              STA PUERTA_FILA_FIN
02397  1286  A9 20                 LDA #32 ;COLUMNA INICIO
02398  1288  8D A9 2A              STA PUERTA_COLUMNA_INI
02399  128B  A9 04                 LDA #4  ;ANCHO
02400  128D  8D AA 2A              STA PUERTA_ANCHO
02401  1290             
02402  1290  20 F6 11              JSR EFECTOABRIRPUERTA
02403  1293             
02404  1293  60                    RTS
02405  1294             
02406  1294             CKECKPANTALLA6 
02407  1294  C9 06                 CMP #6                  ;PANTALLA 6
02408  1296  D0 1F                 BNE CHECKPANTALLA8
02409  1298             
02410  1298  AD 9D 2A              LDA PUERTAS_ABIERTAS    ;SE COMPRUEBA SI LA PUERTA ESTÁ ABIERTA
02411  129B  29 02                 AND #$02
02412  129D  F0 18                 BEQ CHECKPANTALLA8
02413  129F             
02414  129F  A9 0A                 LDA #10 ;FILA INICIO
02415  12A1  8D A7 2A              STA PUERTA_FILA_INI
02416  12A4  A9 0D                 LDA #13  ;FILA FIN
02417  12A6  8D A8 2A              STA PUERTA_FILA_FIN
02418  12A9  A9 1E                 LDA #30 ;COLUMNA INICIO
02419  12AB  8D A9 2A              STA PUERTA_COLUMNA_INI
02420  12AE  A9 02                 LDA #2  ;ANCHO
02421  12B0  8D AA 2A              STA PUERTA_ANCHO
02422  12B3             
02423  12B3  20 F6 11              JSR EFECTOABRIRPUERTA
02424  12B6             
02425  12B6  60                    RTS
02426  12B7             
02427  12B7             CHECKPANTALLA8 
02428  12B7  C9 08                 CMP #8                  ;PANTALLA 8
02429  12B9  D0 1F                 BNE CHECKPANTALLA9
02430  12BB             
02431  12BB  AD 9D 2A              LDA PUERTAS_ABIERTAS    ;SE COMPRUEBA SI LA PUERTA ESTÁ ABIERTA
02432  12BE  29 04                 AND #$04
02433  12C0  F0 18                 BEQ CHECKPANTALLA9
02434  12C2             
02435  12C2  A9 02                 LDA #2 ;FILA INICIO
02436  12C4  8D A7 2A              STA PUERTA_FILA_INI
02437  12C7  A9 05                 LDA #5  ;FILA FIN
02438  12C9  8D A8 2A              STA PUERTA_FILA_FIN
02439  12CC  A9 20                 LDA #32 ;COLUMNA INICIO
02440  12CE  8D A9 2A              STA PUERTA_COLUMNA_INI
02441  12D1  A9 04                 LDA #4  ;ANCHO
02442  12D3  8D AA 2A              STA PUERTA_ANCHO
02443  12D6             
02444  12D6  20 F6 11              JSR EFECTOABRIRPUERTA
02445  12D9                        
02446  12D9  60                    RTS
02447  12DA             
02448  12DA             CHECKPANTALLA9 
02449  12DA  C9 09                 CMP #9                  ;PANTALLA 9
02450  12DC  D0 1F                 BNE CHECKPANTALLA12
02451  12DE             
02452  12DE  AD 9D 2A              LDA PUERTAS_ABIERTAS    ;SE COMPRUEBA SI LA PUERTA ESTÁ ABIERTA
02453  12E1  29 08                 AND #$08
02454  12E3  F0 18                 BEQ CHECKPANTALLA12
02455  12E5             
02456  12E5  A9 02                 LDA #2 ;FILA INICIO
02457  12E7  8D A7 2A              STA PUERTA_FILA_INI
02458  12EA  A9 07                 LDA #7  ;FILA FIN
02459  12EC  8D A8 2A              STA PUERTA_FILA_FIN
02460  12EF  A9 17                 LDA #23 ;COLUMNA INICIO
02461  12F1  8D A9 2A              STA PUERTA_COLUMNA_INI
02462  12F4  A9 04                 LDA #4  ;ANCHO
02463  12F6  8D AA 2A              STA PUERTA_ANCHO
02464  12F9             
02465  12F9  20 F6 11              JSR EFECTOABRIRPUERTA
02466  12FC             
02467  12FC  60                    RTS
02468  12FD                        
02469  12FD             CHECKPANTALLA12 
02470  12FD  C9 0C                 CMP #12                  ;PANTALLA 12
02471  12FF  D0 0B                 BNE CHECKPANTALLA16
02472  1301             
02473  1301  AD 9D 2A              LDA PUERTAS_ABIERTAS    ;SE COMPRUEBA SI LA PUERTA ESTÁ ABIERTA
02474  1304  29 10                 AND #$10
02475  1306  F0 04                 BEQ CHECKPANTALLA16
02476  1308             
02477  1308  20 02 10              JSR TRANSPORTAR
02478  130B             
02479  130B  60                    RTS
02480  130C             
02481  130C             CHECKPANTALLA16 
02482  130C  C9 10                 CMP #16                  ;PANTALLA 16
02483  130E  D0 1F                 BNE CHECKPANTALLA17
02484  1310             
02485  1310  AD 9D 2A              LDA PUERTAS_ABIERTAS    ;SE COMPRUEBA SI LA PUERTA ESTÁ ABIERTA
02486  1313  29 20                 AND #$20
02487  1315  F0 18                 BEQ CHECKPANTALLA17
02488  1317             
02489  1317  A9 04                 LDA #4 ;FILA INICIO
02490  1319  8D A7 2A              STA PUERTA_FILA_INI
02491  131C  A9 0D                 LDA #13  ;FILA FIN
02492  131E  8D A8 2A              STA PUERTA_FILA_FIN
02493  1321  A9 1E                 LDA #30 ;COLUMNA INICIO
02494  1323  8D A9 2A              STA PUERTA_COLUMNA_INI
02495  1326  A9 06                 LDA #6  ;ANCHO
02496  1328  8D AA 2A              STA PUERTA_ANCHO
02497  132B             
02498  132B  20 F6 11              JSR EFECTOABRIRPUERTA
02499  132E             
02500  132E  60                    RTS
02501  132F             
02502  132F             CHECKPANTALLA17 
02503  132F  C9 11                 CMP #17                  ;PANTALLA 17
02504  1331  D0 0B                 BNE CHECKPANTALLA21
02505  1333             
02506  1333  AD 9D 2A              LDA PUERTAS_ABIERTAS    ;SE COMPRUEBA SI LA PUERTA ESTÁ ABIERTA
02507  1336  29 80                 AND #$80
02508  1338  F0 04                 BEQ CHECKPANTALLA21
02509  133A             
02510  133A  20 02 10              JSR TRANSPORTAR
02511  133D             
02512  133D  60                    RTS
02513  133E             
02514  133E             CHECKPANTALLA21 
02515  133E  C9 15                 CMP #21                  ;PANTALLA 21
02516  1340  D0 1F                 BNE CHECKPANTALLA26
02517  1342             
02518  1342  AD 9D 2A              LDA PUERTAS_ABIERTAS    ;SE COMPRUEBA SI LA PUERTA ESTÁ ABIERTA
02519  1345  29 40                 AND #$40
02520  1347  F0 18                 BEQ CHECKPANTALLA26
02521  1349             
02522  1349  A9 0A                 LDA #10 ;FILA INICIO
02523  134B  8D A7 2A              STA PUERTA_FILA_INI
02524  134E  A9 0D                 LDA #13  ;FILA FIN
02525  1350  8D A8 2A              STA PUERTA_FILA_FIN
02526  1353  A9 20                 LDA #32 ;COLUMNA INICIO
02527  1355  8D A9 2A              STA PUERTA_COLUMNA_INI
02528  1358  A9 04                 LDA #4  ;ANCHO
02529  135A  8D AA 2A              STA PUERTA_ANCHO
02530  135D             
02531  135D  20 F6 11              JSR EFECTOABRIRPUERTA
02532  1360                        
02533  1360  60                    RTS
02534  1361             
02535  1361             CHECKPANTALLA26 
02536  1361  C9 1A                 CMP #26                  ;PANTALLA 26
02537  1363  D0 1F                 BNE CHECKPANTALLA36
02538  1365             
02539  1365  AD 9E 2A              LDA PUERTAS_ABIERTAS + 1    ;SE COMPRUEBA SI LA PUERTA ESTÁ ABIERTA
02540  1368  29 01                 AND #$01
02541  136A  F0 18                 BEQ CHECKPANTALLA36
02542  136C             
02543  136C  A9 0B                 LDA #11 ;FILA INICIO
02544  136E  8D A7 2A              STA PUERTA_FILA_INI
02545  1371  A9 0E                 LDA #14  ;FILA FIN
02546  1373  8D A8 2A              STA PUERTA_FILA_FIN
02547  1376  A9 18                 LDA #24 ;COLUMNA INICIO
02548  1378  8D A9 2A              STA PUERTA_COLUMNA_INI
02549  137B  A9 02                 LDA #2  ;ANCHO
02550  137D  8D AA 2A              STA PUERTA_ANCHO
02551  1380             
02552  1380  20 F6 11              JSR EFECTOABRIRPUERTA
02553  1383                        
02554  1383  60                    RTS
02555  1384             
02556  1384             CHECKPANTALLA36 
02557  1384  C9 24                 CMP #36                  ;PANTALLA 36
02558  1386  D0 1F                 BNE CHECKPANTALLA37
02559  1388             
02560  1388  AD 9E 2A              LDA PUERTAS_ABIERTAS + 1    ;SE COMPRUEBA SI LA PUERTA ESTÁ ABIERTA
02561  138B  29 02                 AND #$02
02562  138D  F0 18                 BEQ CHECKPANTALLA37
02563  138F             
02564  138F  A9 02                 LDA #2 ;FILA INICIO
02565  1391  8D A7 2A              STA PUERTA_FILA_INI
02566  1394  A9 07                 LDA #7  ;FILA FIN
02567  1396  8D A8 2A              STA PUERTA_FILA_FIN
02568  1399  A9 0D                 LDA #13 ;COLUMNA INICIO
02569  139B  8D A9 2A              STA PUERTA_COLUMNA_INI
02570  139E  A9 06                 LDA #6  ;ANCHO
02571  13A0  8D AA 2A              STA PUERTA_ANCHO
02572  13A3             
02573  13A3  20 F6 11              JSR EFECTOABRIRPUERTA
02574  13A6  60                    RTS
02575  13A7             
02576  13A7             CHECKPANTALLA37 
02577  13A7  C9 25                 CMP #37                  ;PANTALLA 37
02578  13A9  D0 0B                 BNE CHECKPANTALLA43
02579  13AB             
02580  13AB  AD 9E 2A              LDA PUERTAS_ABIERTAS + 1    ;SE COMPRUEBA SI LA PUERTA ESTÁ ABIERTA
02581  13AE  29 04                 AND #$04
02582  13B0  F0 04                 BEQ CHECKPANTALLA43
02583  13B2             
02584  13B2  20 02 10              JSR TRANSPORTAR
02585  13B5             
02586  13B5  60                    RTS
02587  13B6             
02588  13B6             CHECKPANTALLA43 
02589  13B6  C9 2B                 CMP #43                  ;PANTALLA 43
02590  13B8  D0 0B                 BNE CHECKPANTALLAN
02591  13BA             
02592  13BA  AD 9E 2A              LDA PUERTAS_ABIERTAS + 1    ;SE COMPRUEBA SI LA PUERTA ESTÁ ABIERTA
02593  13BD  29 08                 AND #$08
02594  13BF  F0 04                 BEQ CHECKPANTALLAN
02595  13C1             
02596  13C1  20 02 10              JSR TRANSPORTAR
02597  13C4             
02598  13C4  60                    RTS
02599  13C5             
02600  13C5             CHECKPANTALLAN 
02601  13C5             
02602  13C5  60                    RTS
02603  13C6             
02604  13C6             
02605  13C6             ;==============================================================================
02606  13C6             ;VACIARINVENTARIO
02607  13C6             ; QUITA TODOS LOS ELEMENTOS DEL INVENTARIO
02608  13C6             ;==============================================================================
02609  13C6             VACIARINVENTARIO 
02610  13C6  A9 00                 LDA #0
02611  13C8  8D 27 29              STA INVENTARIO
02612  13CB  8D 28 29              STA INVENTARIO+1
02613  13CE  20 D2 13              JSR BORRARINVENTARIO
02614  13D1  60                    RTS
02615  13D2             
02616  13D2             ;==============================================================================
02617  13D2             ;BORRARINVENTARIO
02618  13D2             ; BORRA EL PERGAMINO DEL INVENTARIO
02619  13D2             ;==============================================================================
02620  13D2             BORRARINVENTARIO 
02621  13D2  A9 90                 LDA #<BITMAP_PERGAMINO_ADDR_FILA_1_1
02622  13D4  85 17                 STA ZEROPAGE_POINTER_1
02623  13D6  A9 39                 LDA #>BITMAP_PERGAMINO_ADDR_FILA_1_1
02624  13D8  85 18                 STA ZEROPAGE_POINTER_1 + 1
02625  13DA             
02626  13DA  A0 00                 LDY #0
02627  13DC  A9 00                 LDA #$0
02628  13DE             BORRAFILA1 
02629  13DE  91 17                 STA (ZEROPAGE_POINTER_1),Y
02630  13E0  C8                    INY
02631  13E1  C0 20                 CPY #32
02632  13E3  D0 F9                 BNE BORRAFILA1
02633  13E5             
02634  13E5  A9 D0                 LDA #<BITMAP_PERGAMINO_ADDR_FILA_2_1
02635  13E7  85 17                 STA ZEROPAGE_POINTER_1
02636  13E9  A9 3A                 LDA #>BITMAP_PERGAMINO_ADDR_FILA_2_1
02637  13EB  85 18                 STA ZEROPAGE_POINTER_1 + 1
02638  13ED             
02639  13ED  A0 00                 LDY #0
02640  13EF  A9 00                 LDA #$0
02641  13F1             BORRAFILA2 
02642  13F1  91 17                 STA (ZEROPAGE_POINTER_1),Y
02643  13F3  C8                    INY
02644  13F4  C0 20                 CPY #32
02645  13F6  D0 F9                 BNE BORRAFILA2
02646  13F8             
02647  13F8  60                    RTS
02648  13F9             
02649  13F9             ;==============================================================================
02650  13F9             ;GETMEMPOSSPRITE
02651  13F9             ; OBTIENE LA DIRECCIÓN DE MEMORIA DONDE SE ALMACENA EL SPRITE CON EL IDENTIFICADOR
02652  13F9             ; QUE SE PASA POR EL REGISTRO A
02653  13F9             ;==============================================================================
02654  13F9             GETMEMPOSSPRITE 
02655  13F9  C9 5B                 CMP #SP_KEY_1
02656  13FB  D0 09                 BNE CHECKKEY2
02657  13FD  A9 80                 LDA #<ADDR_SPRITE_KEY_1
02658  13FF  85 17                 STA ZEROPAGE_POINTER_1
02659  1401  A9 68                 LDA #>ADDR_SPRITE_KEY_1
02660  1403  85 18                 STA ZEROPAGE_POINTER_1 + 1
02661  1405  60                    RTS
02662  1406             
02663  1406             CHECKKEY2
02664  1406  C9 5C                 CMP #SP_KEY_2
02665  1408  D0 09                 BNE CHECKKEY3
02666  140A  A9 80                 LDA #<ADDR_SPRITE_KEY_2
02667  140C  85 17                 STA ZEROPAGE_POINTER_1
02668  140E  A9 72                 LDA #>ADDR_SPRITE_KEY_2
02669  1410  85 18                 STA ZEROPAGE_POINTER_1 + 1
02670  1412  60                    RTS
02671  1413             
02672  1413             CHECKKEY3
02673  1413  C9 5D                 CMP #SP_KEY_3
02674  1415  D0 09                 BNE CHECKKEY4
02675  1417  A9 00                 LDA #<ADDR_SPRITE_KEY_3
02676  1419  85 17                 STA ZEROPAGE_POINTER_1
02677  141B  A9 75                 LDA #>ADDR_SPRITE_KEY_3
02678  141D  85 18                 STA ZEROPAGE_POINTER_1 + 1
02679  141F  60                    RTS
02680  1420             
02681  1420             CHECKKEY4
02682  1420  C9 5E                 CMP #SP_KEY_4
02683  1422  D0 09                 BNE CHECKKEY5
02684  1424  A9 80                 LDA #<ADDR_SPRITE_KEY_4
02685  1426  85 17                 STA ZEROPAGE_POINTER_1
02686  1428  A9 76                 LDA #>ADDR_SPRITE_KEY_4
02687  142A  85 18                 STA ZEROPAGE_POINTER_1 + 1
02688  142C  60                    RTS
02689  142D             
02690  142D             CHECKKEY5
02691  142D  C9 5F                 CMP #SP_KEY_5
02692  142F  D0 09                 BNE CHECKKEY6
02693  1431  A9 C0                 LDA #<ADDR_SPRITE_KEY_5
02694  1433  85 17                 STA ZEROPAGE_POINTER_1
02695  1435  A9 77                 LDA #>ADDR_SPRITE_KEY_5
02696  1437  85 18                 STA ZEROPAGE_POINTER_1 + 1
02697  1439  60                    RTS
02698  143A             
02699  143A             CHECKKEY6
02700  143A  C9 60                 CMP #SP_KEY_6
02701  143C  D0 09                 BNE CHECKKEY7
02702  143E  A9 80                 LDA #<ADDR_SPRITE_KEY_6
02703  1440  85 17                 STA ZEROPAGE_POINTER_1
02704  1442  A9 78                 LDA #>ADDR_SPRITE_KEY_6
02705  1444  85 18                 STA ZEROPAGE_POINTER_1 + 1
02706  1446  60                    RTS
02707  1447             
02708  1447             CHECKKEY7
02709  1447  C9 61                 CMP #SP_KEY_7
02710  1449  D0 0F                 BNE CHECKKEY8
02711  144B  A9 40                 LDA #<ADDR_SPRITE_KEY_7
02712  144D  85 17                 STA ZEROPAGE_POINTER_1
02713  144F  A9 7C                 LDA #>ADDR_SPRITE_KEY_7
02714  1451  85 18                 STA ZEROPAGE_POINTER_1 + 1
02715  1453  C6 17                 DEC ZEROPAGE_POINTER_1
02716  1455  10 02                 BPL DIRKEY7OK
02717  1457  C6 18                 DEC ZEROPAGE_POINTER_1 + 1
02718  1459             DIRKEY7OK  
02719  1459  60                    RTS
02720  145A             
02721  145A             CHECKKEY8
02722  145A  C9 62                 CMP #SP_KEY_8
02723  145C  D0 0F                 BNE CHECKKEY9
02724  145E  A9 00                 LDA #<ADDR_SPRITE_KEY_8
02725  1460  85 17                 STA ZEROPAGE_POINTER_1
02726  1462  A9 7D                 LDA #>ADDR_SPRITE_KEY_8
02727  1464  85 18                 STA ZEROPAGE_POINTER_1 + 1
02728  1466  C6 17                 DEC ZEROPAGE_POINTER_1
02729  1468  10 02                 BPL DIRKEY8OK
02730  146A  C6 18                 DEC ZEROPAGE_POINTER_1 + 1
02731  146C             DIRKEY8OK
02732  146C  60                    RTS
02733  146D             
02734  146D             CHECKKEY9
02735  146D  C9 63                 CMP #SP_KEY_9
02736  146F  D0 09                 BNE CHECKKEY10
02737  1471  A9 00                 LDA #<ADDR_SPRITE_KEY_9
02738  1473  85 17                 STA ZEROPAGE_POINTER_1
02739  1475  A9 80                 LDA #>ADDR_SPRITE_KEY_9
02740  1477  85 18                 STA ZEROPAGE_POINTER_1 + 1
02741  1479  60                    RTS
02742  147A             
02743  147A             CHECKKEY10 
02744  147A  A9 C0                 LDA #<ADDR_SPRITE_KEY_10
02745  147C  85 17                 STA ZEROPAGE_POINTER_1
02746  147E  A9 80                 LDA #>ADDR_SPRITE_KEY_10
02747  1480  85 18                 STA ZEROPAGE_POINTER_1 + 1
02748  1482  60                    RTS
02749  1483             
02750  1483             ;==============================================================================
02751  1483             ;MOSTRARINVENTARIO
02752  1483             ; MUESTRA EL INVENTARIO
02753  1483             ;==============================================================================
02754  1483             MOSTRARINVENTARIO 
02755  1483  20 D2 13              JSR BORRARINVENTARIO
02756  1486             
02757  1486                        ;PRIMER ELEMENTO DEL INVENTARIO
02758  1486  AD 27 29              LDA INVENTARIO
02759  1489  F0 11                 BEQ INVENTARIOVACIO
02760  148B             
02761  148B  20 F9 13              JSR GETMEMPOSSPRITE
02762  148E  20 9D 14              JSR COPYSPRITEAPERGAMINO1
02763  1491             
02764  1491             
02765  1491             ;        LDX #6                  ;SE ALMACENA EN EL SPRITE 6
02766  1491             ;        STA ENEMY_TYPE,X
02767  1491             
02768  1491             ;        LDA #19
02769  1491             ;        STA ENEMY_INI_X_POS,X   ;SE CARGAN LAS POSICIONES X E Y DE INICIO DEL SPRITE
02770  1491             ;        STA PARAM1
02771  1491             ;        LDA #21
02772  1491             ;        STA ENEMY_INI_Y_POS,X
02773  1491             ;        STA PARAM2
02774  1491             ;        JSR CALCSPRITEPOSFROMCHARPOS
02775  1491             
02776  1491             ;        JSR CARGARSPRITE
02777  1491             ;        ;SET SPRITE COLOR
02778  1491             ;        LDA #BLACK
02779  1491             ;        STA SPRITE_COLOR_BASE,X
02780  1491             
02781  1491             ;        ;ENABLE SPRITE
02782  1491             ;        LDA #$40
02783  1491             ;        ORA VIC_SPRITE_ENABLE
02784  1491             ;        STA VIC_SPRITE_ENABLE
02785  1491             
02786  1491                        ;SEGUNDO ELEMENTO DEL INVENTARIO
02787  1491  AD 28 29              LDA INVENTARIO+1
02788  1494  F0 06                 BEQ INVENTARIOVACIO
02789  1496             
02790  1496  20 F9 13              JSR GETMEMPOSSPRITE
02791  1499  20 B1 14              JSR COPYSPRITEAPERGAMINO2
02792  149C             
02793  149C             ;        LDX #7
02794  149C             ;        STA ENEMY_TYPE,X
02795  149C             
02796  149C             ;        LDA #21
02797  149C             ;        STA ENEMY_INI_X_POS,X   ;SE CARGAN LAS POSICIONES X E Y DE INICIO DEL SPRITE
02798  149C             ;        STA PARAM1
02799  149C             ;        LDA #21
02800  149C             ;        STA ENEMY_INI_Y_POS,X
02801  149C             ;        STA PARAM2
02802  149C             ;        JSR CALCSPRITEPOSFROMCHARPOS
02803  149C             
02804  149C             ;        JSR CARGARSPRITE
02805  149C             ;        ;SET SPRITE COLOR
02806  149C             ;        ;LDA #BLACK
02807  149C             ;        LDA #YELLOW
02808  149C             ;        STA SPRITE_COLOR_BASE,X
02809  149C             
02810  149C             ;        ;ENABLE SPRITE
02811  149C             ;        LDA #$80
02812  149C             ;        ORA VIC_SPRITE_ENABLE
02813  149C             ;        STA VIC_SPRITE_ENABLE
02814  149C             
02815  149C             INVENTARIOVACIO 
02816  149C  60                    RTS
02817  149D             
02818  149D             ;==============================================================================
02819  149D             ;COPYSPRITEAPERGAMINO1
02820  149D             ; CARGA LAS POSICIONES DE MEMORIA PARA COPIAR EL SPRITE A LA PRIMERA POSICIÓN DEL INVENTARIO
02821  149D             ;==============================================================================
02822  149D             COPYSPRITEAPERGAMINO1 
02823  149D  A9 90                 LDA #<BITMAP_PERGAMINO_ADDR_FILA_1_1
02824  149F  85 19                 STA ZEROPAGE_POINTER_2
02825  14A1  A9 39                 LDA #>BITMAP_PERGAMINO_ADDR_FILA_1_1
02826  14A3  85 1A                 STA ZEROPAGE_POINTER_2 + 1
02827  14A5             
02828  14A5  A9 D0                 LDA #<BITMAP_PERGAMINO_ADDR_FILA_2_1
02829  14A7  85 21                 STA ZEROPAGE_POINTER_3
02830  14A9  A9 3A                 LDA #>BITMAP_PERGAMINO_ADDR_FILA_2_1
02831  14AB  85 22                 STA ZEROPAGE_POINTER_3 + 1
02832  14AD             
02833  14AD  20 C5 14              JSR COPYSPRITEAPERGAMINO
02834  14B0             
02835  14B0  60                    RTS
02836  14B1             
02837  14B1             ;==============================================================================
02838  14B1             ;COPYSPRITEAPERGAMINO2
02839  14B1             ; CARGA LAS POSICIONES DE MEMORIA PARA COPIAR EL SPRITE A LA SEGUNDA POSICIÓN DEL INVENTARIO
02840  14B1             ;==============================================================================
02841  14B1             COPYSPRITEAPERGAMINO2 
02842  14B1  A9 A0                 LDA #<BITMAP_PERGAMINO_ADDR_FILA_1_2
02843  14B3  85 19                 STA ZEROPAGE_POINTER_2
02844  14B5  A9 39                 LDA #>BITMAP_PERGAMINO_ADDR_FILA_1_2
02845  14B7  85 1A                 STA ZEROPAGE_POINTER_2 + 1
02846  14B9             
02847  14B9  A9 E0                 LDA #<BITMAP_PERGAMINO_ADDR_FILA_2_2
02848  14BB  85 21                 STA ZEROPAGE_POINTER_3
02849  14BD  A9 3A                 LDA #>BITMAP_PERGAMINO_ADDR_FILA_2_2
02850  14BF  85 22                 STA ZEROPAGE_POINTER_3 + 1
02851  14C1             
02852  14C1  20 C5 14              JSR COPYSPRITEAPERGAMINO
02853  14C4             
02854  14C4  60                    RTS
02855  14C5             
02856  14C5             ;==============================================================================
02857  14C5             ;COPYSPRITEAPERGAMINO
02858  14C5             ; COPIA LOS DATOS DEL SPRITE AL PERGAMINO
02859  14C5             ;==============================================================================
02860  14C5             COPYSPRITEAPERGAMINO 
02861  14C5  A0 00                 LDY #0
02862  14C7             COPYFILA1
02863  14C7  98                    TYA     ;SE PASA Y A A PARA METERLO EN LA PILA
02864  14C8  48                    PHA
02865  14C9             
02866  14C9  8D AB 2A              STA COLOR_PUERTA
02867  14CC  18                    CLC
02868  14CD  6D AB 2A              ADC COLOR_PUERTA
02869  14D0  6D AB 2A              ADC COLOR_PUERTA
02870  14D3  A8                    TAY
02871  14D4  C8                    INY
02872  14D5             
02873  14D5  B1 17                 LDA (ZEROPAGE_POINTER_1),Y
02874  14D7  AA                    TAX
02875  14D8  C8                    INY
02876  14D9  98                    TYA
02877  14DA  8D AB 2A              STA COLOR_PUERTA
02878  14DD             
02879  14DD  68                    PLA
02880  14DE  A8                    TAY
02881  14DF  8A                    TXA
02882  14E0  91 19                 STA (ZEROPAGE_POINTER_2),Y
02883  14E2  98                    TYA
02884  14E3  48                    PHA
02885  14E4             
02886  14E4  AD AB 2A              LDA COLOR_PUERTA
02887  14E7  A8                    TAY
02888  14E8  B1 17                 LDA (ZEROPAGE_POINTER_1),Y
02889  14EA  AA                    TAX
02890  14EB             
02891  14EB  68                    PLA
02892  14EC  48                    PHA
02893  14ED  18                    CLC
02894  14EE  69 08                 ADC #8
02895  14F0  A8                    TAY
02896  14F1  8A                    TXA
02897  14F2  91 19                 STA (ZEROPAGE_POINTER_2),Y
02898  14F4                        
02899  14F4  68                    PLA
02900  14F5  A8                    TAY
02901  14F6  C8                    INY
02902  14F7  C0 08                 CPY #8
02903  14F9  D0 CC                 BNE COPYFILA1
02904  14FB             
02905  14FB             
02906  14FB             
02907  14FB  A5 17                 LDA ZEROPAGE_POINTER_1
02908  14FD  18                    CLC
02909  14FE  69 18                 ADC #24
02910  1500  90 02                 BCC NOINCPAGE
02911  1502             
02912  1502  E6 18                 INC ZEROPAGE_POINTER_1 + 1
02913  1504             
02914  1504             NOINCPAGE
02915  1504  85 17                 STA ZEROPAGE_POINTER_1
02916  1506             
02917  1506  A0 00                 LDY #0
02918  1508             COPYFILA2
02919  1508  98                    TYA     ;SE PASA Y A A PARA METERLO EN LA PILA
02920  1509  48                    PHA
02921  150A             
02922  150A  8D AB 2A              STA COLOR_PUERTA
02923  150D  18                    CLC
02924  150E  6D AB 2A              ADC COLOR_PUERTA
02925  1511  6D AB 2A              ADC COLOR_PUERTA
02926  1514  A8                    TAY
02927  1515  C8                    INY
02928  1516             
02929  1516  B1 17                 LDA (ZEROPAGE_POINTER_1),Y
02930  1518  AA                    TAX
02931  1519  C8                    INY
02932  151A  98                    TYA
02933  151B  8D AB 2A              STA COLOR_PUERTA
02934  151E             
02935  151E  68                    PLA
02936  151F  A8                    TAY
02937  1520  8A                    TXA
02938  1521  91 21                 STA (ZEROPAGE_POINTER_3),Y
02939  1523  98                    TYA
02940  1524  48                    PHA
02941  1525             
02942  1525  AD AB 2A              LDA COLOR_PUERTA
02943  1528  A8                    TAY
02944  1529  B1 17                 LDA (ZEROPAGE_POINTER_1),Y
02945  152B  AA                    TAX
02946  152C             
02947  152C  68                    PLA
02948  152D  48                    PHA
02949  152E  18                    CLC
02950  152F  69 08                 ADC #8
02951  1531  A8                    TAY
02952  1532  8A                    TXA
02953  1533  91 21                 STA (ZEROPAGE_POINTER_3),Y
02954  1535                        
02955  1535  68                    PLA
02956  1536  A8                    TAY
02957  1537  C8                    INY
02958  1538  C0 08                 CPY #08
02959  153A  D0 CC                 BNE COPYFILA2
02960  153C             
02961  153C  60                    RTS
02962  153D             
02963  153D             ;==============================================================================
02964  153D             ;PLAYERDEATH
02965  153D             ; SE HACE EL EFECTO DE PARPADEO AL MATAR AL PERSONAJE Y SE DECREMENTAN LAS VIDAS
02966  153D             ;==============================================================================
02967  153D             PLAYERDEATH 
02968  153D                        ;SE HACE EL EFECTO FLASH DEL BORDE DE LA PANTALLA
02969  153D  A9 01                 LDA #WHITE
02970  153F  8D 20 D0              STA VIC_BORDER_COLOR
02971  1542             
02972  1542  A9 05                 LDA #SND_MORIR
02973  1544  20 9C 25              JSR INITPICKEDFX
02974  1547             
02975  1547  A2 0F                 LDX #15
02976  1549             BUCLE
02977  1549  20 12 1C              JSR WAITFRAME
02978  154C  CA                    DEX
02979  154D  D0 FA                 BNE BUCLE
02980  154F             
02981  154F  A9 00                 LDA #BLACK
02982  1551  8D 20 D0              STA VIC_BORDER_COLOR
02983  1554             
02984  1554  AD 1E D0              LDA SPRITE_COLLISION
02985  1557  AD 1F D0              LDA BACKGROUND_COLLISION
02986  155A             
02987  155A                        ;SE DESHABILITAN TODOS LOS SPRITES
02988  155A  A9 00                 LDA #0
02989  155C  8D 15 D0              STA VIC_SPRITE_ENABLE
02990  155F                        
02991  155F                        ;SE CARGA DE NUEVO LA PANTALLA PARA QUE TODO EMPIECE DESDE CERO
02992  155F  AD 43 28              LDA CUR_SCREEN
02993  1562  20 4E 1A              JSR BUILDSCREEN
02994  1565             
02995  1565                        ;SE COMPRUEBA SI HAY UN 1 EN LAS DECENAS
02996  1565  AD C7 CE              LDA SCREEN_LIVES
02997  1568  C9 31                 CMP #$31
02998  156A  D0 0E                 BNE NODECENAS
02999  156C             
03000  156C                        ;SE PONEN LAS DECENAS A 0
03001  156C  A9 30                 LDA #$30  ;CARGA EL CARACTER '0'
03002  156E  8D C7 CE              STA SCREEN_LIVES        ;SE PONEN LAS DECENAS A CERO
03003  1571  A9 39                 LDA #$39        ;SE CARGA UN 9 EN LAS UNIDADES
03004  1573  8D C8 CE              STA SCREEN_LIVES+1
03005  1576  20 AD 15              JSR INICIOPLAYER
03006  1579  60                    RTS
03007  157A             
03008  157A             NODECENAS
03009  157A  AD AC 2A              LDA CHEAT_INFINITAS
03010  157D  F0 04                 BEQ DECREMENTAR
03011  157F  20 AD 15              JSR INICIOPLAYER
03012  1582  60                    RTS
03013  1583             
03014  1583             DECREMENTAR 
03015  1583  CE C8 CE              DEC SCREEN_LIVES+1      ;SI NO ES CERO SE DECREMENTAN LAS UNIDADES
03016  1586  AD C8 CE              LDA SCREEN_LIVES+1      ;SE CARGAN LAS UNIDADES
03017  1589  C9 30                 CMP #$30                ;SE COMPRUEBA SI ES CERO
03018  158B  F0 06                 BEQ ESCERO
03019  158D  20 AD 15              JSR INICIOPLAYER
03020  1590  A9 00                 LDA #0                  ;SE CARGA 0 PARA INDICAR QUE NO SE HA ACABADO LA PARTIDA
03021  1592  60                    RTS
03022  1593             
03023  1593             ESCERO
03024  1593                        ;SE HACE EL EFECTO FLASH DEL BORDE DE LA PANTALLA
03025  1593  A9 01                 LDA #WHITE
03026  1595  8D 20 D0              STA VIC_BORDER_COLOR
03027  1598             
03028  1598  A9 06                 LDA #SND_GAMEOVER
03029  159A  20 9C 25              JSR INITPICKEDFX
03030  159D             
03031  159D  A2 32                 LDX #50
03032  159F             BUCLE2
03033  159F  20 12 1C              JSR WAITFRAME
03034  15A2  CA                    DEX
03035  15A3  D0 FA                 BNE BUCLE2
03036  15A5                        
03037  15A5  A9 00                 LDA #BLACK
03038  15A7  8D 20 D0              STA VIC_BORDER_COLOR
03039  15AA             
03040  15AA                        ;SE PASA UN 1 PARA INDICAR QUE SE HA TERMINADO LA PARTIDA
03041  15AA  A9 01                 LDA #1
03042  15AC  60                    RTS
03043  15AD             
03044  15AD             
03045  15AD             ;==============================================================================
03046  15AD             ;INICIOPLAYER
03047  15AD             ; SE COLOCA AL PROTAGONISTA TAL Y COMO ENTRÓ EN LA PANTALLA
03048  15AD             ;==============================================================================
03049  15AD             INICIOPLAYER 
03050  15AD  A9 00                 LDA #0
03051  15AF  8D 1E D0              STA SPRITE_COLLISION
03052  15B2             
03053  15B2  AD B8 28              LDA PLAYER_ENTRADA_JUMP_POS
03054  15B5  8D F9 28              STA PLAYER_JUMP_POS
03055  15B8             
03056  15B8  AD 1C 29              LDA PLAYER_FALL_POS
03057  15BB  8D B9 28              STA PLAYER_ENTRADA_FALL_POS
03058  15BE             
03059  15BE  AD BA 28              LDA PLAYER_ENTRADA_DIRECCION
03060  15C1  85 05                 STA PARAM3
03061  15C3                        
03062  15C3  20 33 19              JSR ANIMATEPLAYERLOOKFRONT
03063  15C6             
03064  15C6                        ;SE COLOCA EL SPRITE AL PRINCIPIO DE LA PANTALLA
03065  15C6  AD B6 28              LDA PLAYER_POS_ENTRADA_PANTALLA_X
03066  15C9  85 03                 STA PARAM1
03067  15CB  AD B7 28              LDA PLAYER_POS_ENTRADA_PANTALLA_Y
03068  15CE  85 04                 STA PARAM2
03069  15D0  A9 00                 LDA #0
03070  15D2  AA                    TAX
03071  15D3             
03072  15D3  20 39 19              JSR CALCSPRITEPOSFROMCHARPOS
03073  15D6             
03074  15D6                        ;SE PASA UN 0 PARA INDICAR QUE NO SE HA TERMINADO LA PARTIDA
03075  15D6  A9 00                 LDA #0
03076  15D8             
03077  15D8  60                    RTS
03078  15D9             
03079  15D9             ;==============================================================================
03080  15D9             ;INCNUMPANTALLA
03081  15D9             ; SUMA 1 AL NÚMERO DE PANTALLAS VISITADAS
03082  15D9             ;==============================================================================
03083  15D9             INCNUMPANTALLA 
03084  15D9  AD BB CE              LDA SCREEN_VISIT+1      ;SE CARGAN LAS UNIDADES
03085  15DC  C9 39                 CMP #$39                ;SE COMPARA CON LA CIFRA 9
03086  15DE  F0 04                 BEQ CAMBIADECENAS
03087  15E0  EE BB CE              INC SCREEN_VISIT+1      ;SI NO ES 9 SE INCREMENTAN LAS UNIDADES
03088  15E3  60                    RTS
03089  15E4             
03090  15E4             CAMBIADECENAS 
03091  15E4  A9 30                 LDA #$30                ;SE CARGA UN 0 PARA LAS UNIDADES
03092  15E6  8D BB CE              STA SCREEN_VISIT+1
03093  15E9  EE BA CE              INC SCREEN_VISIT        ;SE INCREMENTAN LAS DECENAS
03094  15EC  60                    RTS
03095  15ED             
03096  15ED             
03097  15ED             ;==============================================================================
03098  15ED             ;RESETSCREENVISIT
03099  15ED             ; PONE A 0 LAS PANTALLAS VISITADAS
03100  15ED             ;==============================================================================
03101  15ED             RESETSCREENVISIT ;PONE A CERO LAS VISITAS DE LAS PANTALLAS
03102  15ED  A2 02                 LDX #2          ;EXCEPTO LAS PANTALLAS 0 Y 1
03103  15EF  A9 00                 LDA #0
03104  15F1             NEXTSCREEN 
03105  15F1  9D BA CE              STA SCREEN_VISIT,X
03106  15F4  E8                    INX
03107  15F5  E0 2E                 CPX #46
03108  15F7  D0 F8                 BNE NEXTSCREEN
03109  15F9  60                    RTS
03110  15FA             ;=======================================
03111  15FA             ;COMPRUEBA EL TIPO DE SPRITE PARA ANIMAR
03112  15FA             ;EL REGISTRO X ES EL ÍNDICE DEL SPRITE
03113  15FA             ;=======================================
03114  15FA             ANIMATESPRITE 
03115  15FA  BD 6D 28              LDA ENEMY_ANIM_DELAY_CUR,X
03116  15FD  F0 04                 BEQ CAMBIARSPRITE
03117  15FF  DE 6D 28              DEC ENEMY_ANIM_DELAY_CUR,X
03118  1602  60                    RTS
03119  1603             
03120  1603             CAMBIARSPRITE 
03121  1603  BD 67 28              LDA ENEMY_ANIM_DELAY,X          ;SE LEE LOS PASOS DE ANIMACIÓN
03122  1606  9D 6D 28              STA ENEMY_ANIM_DELAY_CUR,X      ;SE CARGAN LOS PASOS DE ANIMACIÓN PARA LA SIGUIENTE ESPERA
03123  1609             
03124  1609  BD 49 28              LDA ENEMY_TYPE,X
03125  160C  C9 03                 CMP #SP_PLANO
03126  160E  D0 0E                 BNE CHECKMURCIELAGO
03127  1610  A9 5D                 LDA #SPRITE_PLANO
03128  1612  85 07                 STA PARAM5
03129  1614  A9 64                 LDA #SPRITE_PLANO + 7
03130  1616  85 08                 STA PARAM6
03131  1618  20 A9 18              JSR ANIMATESIMPLESPRITE
03132  161B  4C 36 18              JMP ENDANIMATION
03133  161E             
03134  161E             CHECKMURCIELAGO 
03135  161E  C9 02                 CMP #SP_MURCIELAGO
03136  1620  D0 16                 BNE CHECKGOTA
03137  1622  A9 51                 LDA #SPRITE_MURCIELAGO_L
03138  1624  85 07                 STA PARAM5
03139  1626  A9 57                 LDA #SPRITE_MURCIELAGO_R
03140  1628  85 08                 STA PARAM6
03141  162A  A9 56                 LDA #SPRITE_MURCIELAGO_L + 5
03142  162C  85 09                 STA PARAM7
03143  162E  A9 5C                 LDA #SPRITE_MURCIELAGO_R + 5
03144  1630  85 0A                 STA PARAM8
03145  1632  20 64 18              JSR ANIMATEDOUBLESPRITE
03146  1635  4C 36 18              JMP ENDANIMATION
03147  1638             
03148  1638             CHECKGOTA
03149  1638  C9 01                 CMP #SP_GOTA
03150  163A  D0 0E                 BNE CHECKGOTA2
03151  163C  A9 4C                 LDA #SPRITE_GOTA
03152  163E  85 07                 STA PARAM5
03153  1640  A9 50                 LDA #SPRITE_GOTA + 4
03154  1642  85 08                 STA PARAM6
03155  1644  20 37 18              JSR ANIMATESOLOBAJADA
03156  1647  4C 36 18              JMP ENDANIMATION
03157  164A             
03158  164A             CHECKGOTA2 
03159  164A  C9 13                 CMP #SP_GOTA_2
03160  164C  D0 0E                 BNE CHECKMOSCAS
03161  164E  A9 4C                 LDA #SPRITE_GOTA
03162  1650  85 07                 STA PARAM5
03163  1652  A9 4C                 LDA #SPRITE_GOTA
03164  1654  85 08                 STA PARAM6
03165  1656  20 37 18              JSR ANIMATESOLOBAJADA
03166  1659  4C 36 18              JMP ENDANIMATION
03167  165C                        
03168  165C             CHECKMOSCAS 
03169  165C  C9 04                 CMP #SP_MOSCAS
03170  165E  D0 0E                 BNE CHECKPALMAS
03171  1660  A9 66                 LDA #SPRITE_MOSCAS
03172  1662  85 07                 STA PARAM5
03173  1664  A9 69                 LDA #SPRITE_MOSCAS + 3
03174  1666  85 08                 STA PARAM6
03175  1668  20 A9 18              JSR ANIMATESIMPLESPRITE
03176  166B  4C 36 18              JMP ENDANIMATION
03177  166E             
03178  166E             CHECKPALMAS 
03179  166E  C9 05                 CMP #SP_PALMAS
03180  1670  D0 0E                 BNE CHECKSERPIENTE
03181  1672  A9 6A                 LDA #SPRITE_PALMAS
03182  1674  85 07                 STA PARAM5
03183  1676  A9 6D                 LDA #SPRITE_PALMAS + 3
03184  1678  85 08                 STA PARAM6
03185  167A  20 A9 18              JSR ANIMATESIMPLESPRITE
03186  167D  4C 36 18              JMP ENDANIMATION
03187  1680             
03188  1680             CHECKSERPIENTE 
03189  1680  C9 06                 CMP #SP_SERPIENTE
03190  1682  D0 16                 BNE CHECKMAZO
03191  1684  A9 6E                 LDA #SPRITE_SERPIENTE_L
03192  1686  85 07                 STA PARAM5
03193  1688  A9 72                 LDA #SPRITE_SERPIENTE_R
03194  168A  85 08                 STA PARAM6
03195  168C  A9 71                 LDA #SPRITE_SERPIENTE_L + 3
03196  168E  85 09                 STA PARAM7
03197  1690  A9 75                 LDA #SPRITE_SERPIENTE_R + 3
03198  1692  85 0A                 STA PARAM8
03199  1694  20 64 18              JSR ANIMATEDOUBLESPRITE
03200  1697  4C 36 18              JMP ENDANIMATION
03201  169A             
03202  169A             CHECKMAZO
03203  169A  C9 07                 CMP #SP_MAZO
03204  169C  D0 0E                 BNE CHECKARANA
03205  169E  A9 76                 LDA #SPRITE_MAZO
03206  16A0  85 07                 STA PARAM5
03207  16A2  A9 7B                 LDA #SPRITE_MAZO + 5
03208  16A4  85 08                 STA PARAM6
03209  16A6  20 A9 18              JSR ANIMATESIMPLESPRITE
03210  16A9  4C 36 18              JMP ENDANIMATION
03211  16AC             
03212  16AC             CHECKARANA 
03213  16AC  C9 08                 CMP #SP_ARANA
03214  16AE  D0 0E                 BNE CHECKMOMIA
03215  16B0  A9 7C                 LDA #SPRITE_ARANA
03216  16B2  85 07                 STA PARAM5
03217  16B4  A9 80                 LDA #SPRITE_ARANA + 4
03218  16B6  85 08                 STA PARAM6
03219  16B8  20 A9 18              JSR ANIMATESIMPLESPRITE
03220  16BB  4C 36 18              JMP ENDANIMATION
03221  16BE             
03222  16BE             CHECKMOMIA 
03223  16BE  C9 09                 CMP #SP_MOMIA
03224  16C0  D0 16                 BNE CHECKLOCK1
03225  16C2  A9 81                 LDA #SPRITE_MOMIA_L
03226  16C4  85 07                 STA PARAM5
03227  16C6  A9 85                 LDA #SPRITE_MOMIA_R
03228  16C8  85 08                 STA PARAM6
03229  16CA  A9 84                 LDA #SPRITE_MOMIA_L + 3
03230  16CC  85 09                 STA PARAM7
03231  16CE  A9 88                 LDA #SPRITE_MOMIA_R + 3
03232  16D0  85 0A                 STA PARAM8
03233  16D2  20 64 18              JSR ANIMATEDOUBLESPRITE
03234  16D5  4C 36 18              JMP ENDANIMATION
03235  16D8             
03236  16D8             CHECKLOCK1 
03237  16D8  C9 33                 CMP #SP_LOCK_1
03238  16DA  D0 0E                 BNE CHECKBOLA
03239  16DC  A9 8B                 LDA #SPRITE_LOCK_1
03240  16DE  85 07                 STA PARAM5
03241  16E0  A9 8C                 LDA #SPRITE_LOCK_1 + 1
03242  16E2  85 08                 STA PARAM6
03243  16E4  20 A9 18              JSR ANIMATESIMPLESPRITE
03244  16E7  4C 36 18              JMP ENDANIMATION
03245  16EA             
03246  16EA             CHECKBOLA
03247  16EA  C9 0C                 CMP #SP_BOLA
03248  16EC  D0 0E                 BNE CHECKARO
03249  16EE  A9 8F                 LDA #SPRITE_BOLA
03250  16F0  85 07                 STA PARAM5
03251  16F2  A9 90                 LDA #SPRITE_BOLA + 1
03252  16F4  85 08                 STA PARAM6
03253  16F6  20 A9 18              JSR ANIMATESIMPLESPRITE
03254  16F9  4C 36 18              JMP ENDANIMATION
03255  16FC             
03256  16FC             CHECKARO
03257  16FC  C9 0D                 CMP #SP_ARO
03258  16FE  D0 0E                 BNE CHECKLOCK3
03259  1700  A9 91                 LDA #SPRITE_ARO
03260  1702  85 07                 STA PARAM5
03261  1704  A9 96                 LDA #SPRITE_ARO + 5
03262  1706  85 08                 STA PARAM6
03263  1708  20 A9 18              JSR ANIMATESIMPLESPRITE
03264  170B  4C 36 18              JMP ENDANIMATION
03265  170E             
03266  170E             CHECKLOCK3 
03267  170E  C9 35                 CMP #SP_LOCK_3
03268  1710  D0 0E                 BNE CHECKRAYO
03269  1712  A9 98                 LDA #SPRITE_LOCK_3
03270  1714  85 07                 STA PARAM5
03271  1716  A9 99                 LDA #SPRITE_LOCK_3 + 1
03272  1718  85 08                 STA PARAM6
03273  171A  20 A9 18              JSR ANIMATESIMPLESPRITE
03274  171D  4C 36 18              JMP ENDANIMATION
03275  1720             
03276  1720             CHECKRAYO
03277  1720  C9 0E                 CMP #SP_RAYO
03278  1722  D0 0E                 BNE CHECKLOCK4
03279  1724  A9 9A                 LDA #SPRITE_RAYO
03280  1726  85 07                 STA PARAM5
03281  1728  A9 9C                 LDA #SPRITE_RAYO + 2
03282  172A  85 08                 STA PARAM6
03283  172C  20 A9 18              JSR ANIMATESIMPLESPRITE
03284  172F  4C 36 18              JMP ENDANIMATION
03285  1732             
03286  1732             CHECKLOCK4 
03287  1732  C9 36                 CMP #SP_LOCK_4
03288  1734  D0 0E                 BNE CHECKLOCK2
03289  1736  A9 9E                 LDA #SPRITE_LOCK_4
03290  1738  85 07                 STA PARAM5
03291  173A  A9 9F                 LDA #SPRITE_LOCK_4 + 1
03292  173C  85 08                 STA PARAM6
03293  173E  20 A9 18              JSR ANIMATESIMPLESPRITE
03294  1741  4C 36 18              JMP ENDANIMATION
03295  1744             
03296  1744             CHECKLOCK2 
03297  1744  C9 34                 CMP #SP_LOCK_2
03298  1746  D0 0E                 BNE CHECKLOCK6
03299  1748  A9 A3                 LDA #SPRITE_LOCK_2
03300  174A  85 07                 STA PARAM5
03301  174C  A9 A4                 LDA #SPRITE_LOCK_2 + 1
03302  174E  85 08                 STA PARAM6
03303  1750  20 A9 18              JSR ANIMATESIMPLESPRITE
03304  1753  4C 36 18              JMP ENDANIMATION
03305  1756             
03306  1756             CHECKLOCK6 
03307  1756  C9 38                 CMP #SP_LOCK_6
03308  1758  D0 0E                 BNE CHECKTRANSPORTER1
03309  175A  A9 A6                 LDA #SPRITE_LOCK_6
03310  175C  85 07                 STA PARAM5
03311  175E  A9 A7                 LDA #SPRITE_LOCK_6 + 1
03312  1760  85 08                 STA PARAM6
03313  1762  20 A9 18              JSR ANIMATESIMPLESPRITE
03314  1765  4C 36 18              JMP ENDANIMATION
03315  1768             
03316  1768             CHECKTRANSPORTER1 
03317  1768  C9 47                 CMP #SP_TRANSPORTER_1
03318  176A  D0 0E                 BNE CHECKTRANSPORTER2
03319  176C  A9 8E                 LDA #SPRITE_TRANSPORTER_1
03320  176E  85 07                 STA PARAM5
03321  1770  A9 8E                 LDA #SPRITE_TRANSPORTER_1
03322  1772  85 08                 STA PARAM6
03323  1774  20 A9 18              JSR ANIMATESIMPLESPRITE
03324  1777  4C 36 18              JMP ENDANIMATION
03325  177A             
03326  177A             CHECKTRANSPORTER2 
03327  177A  C9 48                 CMP #SP_TRANSPORTER_2
03328  177C  D0 0E                 BNE CHECKESTALACTITA
03329  177E  A9 A8                 LDA #SPRITE_TRANSPORTER_2
03330  1780  85 07                 STA PARAM5
03331  1782  A9 A9                 LDA #SPRITE_TRANSPORTER_2 + 1
03332  1784  85 08                 STA PARAM6
03333  1786  20 A9 18              JSR ANIMATESIMPLESPRITE
03334  1789  4C 36 18              JMP ENDANIMATION
03335  178C             
03336  178C             CHECKESTALACTITA 
03337  178C  C9 11                 CMP #SP_ESTALACTITA
03338  178E  D0 0E                 BNE CHECKVOLCAN
03339  1790  A9 AA                 LDA #SPRITE_ESTALACTITA
03340  1792  85 07                 STA PARAM5
03341  1794  A9 AE                 LDA #SPRITE_ESTALACTITA + 4
03342  1796  85 08                 STA PARAM6
03343  1798  20 37 18              JSR ANIMATESOLOBAJADA
03344  179B  4C 36 18              JMP ENDANIMATION
03345  179E             
03346  179E             CHECKVOLCAN 
03347  179E  C9 12                 CMP #SP_VOLCAN
03348  17A0  D0 0E                 BNE CHECKLOCK7
03349  17A2  A9 AF                 LDA #SPRITE_VOLCAN
03350  17A4  85 07                 STA PARAM5
03351  17A6  A9 B3                 LDA #SPRITE_VOLCAN + 4
03352  17A8  85 08                 STA PARAM6
03353  17AA  20 A9 18              JSR ANIMATESIMPLESPRITE
03354  17AD  4C 36 18              JMP ENDANIMATION
03355  17B0             
03356  17B0             CHECKLOCK7 
03357  17B0  C9 39                 CMP #SP_LOCK_7
03358  17B2  D0 0E                 BNE CHECKPEZ
03359  17B4  A9 B5                 LDA #SPRITE_LOCK_7
03360  17B6  85 07                 STA PARAM5
03361  17B8  A9 B6                 LDA #SPRITE_LOCK_7 + 1
03362  17BA  85 08                 STA PARAM6
03363  17BC  20 A9 18              JSR ANIMATESIMPLESPRITE
03364  17BF  4C 36 18              JMP ENDANIMATION
03365  17C2             
03366  17C2             CHECKPEZ
03367  17C2  C9 14                 CMP #SP_PEZ
03368  17C4  D0 16                 BNE CHECKFLECHA
03369  17C6  A9 BC                 LDA #SPRITE_PEZ_D
03370  17C8  85 07                 STA PARAM5
03371  17CA  A9 B8                 LDA #SPRITE_PEZ_U
03372  17CC  85 08                 STA PARAM6
03373  17CE  A9 BF                 LDA #SPRITE_PEZ_D + 3
03374  17D0  85 09                 STA PARAM7
03375  17D2  A9 BB                 LDA #SPRITE_PEZ_U + 3
03376  17D4  85 0A                 STA PARAM8
03377  17D6  20 64 18              JSR ANIMATEDOUBLESPRITE
03378  17D9  4C 36 18              JMP ENDANIMATION
03379  17DC             
03380  17DC             CHECKFLECHA 
03381  17DC  C9 15                 CMP #SP_FLECHA
03382  17DE  D0 0E                 BNE CHECKLOCK8
03383  17E0  A9 C0                 LDA #SPRITE_FLECHA
03384  17E2  85 07                 STA PARAM5
03385  17E4  A9 C0                 LDA #SPRITE_FLECHA
03386  17E6  85 08                 STA PARAM6
03387  17E8  20 A9 18              JSR ANIMATESIMPLESPRITE
03388  17EB  4C 36 18              JMP ENDANIMATION
03389  17EE             
03390  17EE             CHECKLOCK8 
03391  17EE  C9 3A                 CMP #SP_LOCK_8
03392  17F0  D0 0E                 BNE CHECKRAYO2
03393  17F2  A9 C1                 LDA #SPRITE_LOCK_8
03394  17F4  85 07                 STA PARAM5
03395  17F6  A9 C2                 LDA #SPRITE_LOCK_8 + 1
03396  17F8  85 08                 STA PARAM6
03397  17FA  20 A9 18              JSR ANIMATESIMPLESPRITE
03398  17FD  4C 36 18              JMP ENDANIMATION
03399  1800             
03400  1800             CHECKRAYO2 
03401  1800  C9 16                 CMP #SP_RAYO_2
03402  1802  D0 0E                 BNE CHECKLOCK9
03403  1804  A9 9A                 LDA #SPRITE_RAYO
03404  1806  85 07                 STA PARAM5
03405  1808  A9 9C                 LDA #SPRITE_RAYO + 2
03406  180A  85 08                 STA PARAM6
03407  180C  20 37 18              JSR ANIMATESOLOBAJADA
03408  180F  4C 36 18              JMP ENDANIMATION
03409  1812             
03410  1812             CHECKLOCK9 
03411  1812  C9 3B                 CMP #SP_LOCK_9
03412  1814  D0 0E                 BNE CHECKLOCK10_2
03413  1816  A9 C4                 LDA #SPRITE_LOCK_9
03414  1818  85 07                 STA PARAM5
03415  181A  A9 C5                 LDA #SPRITE_LOCK_9 + 1
03416  181C  85 08                 STA PARAM6
03417  181E  20 A9 18              JSR ANIMATESIMPLESPRITE
03418  1821  4C 36 18              JMP ENDANIMATION
03419  1824             
03420  1824             CHECKLOCK10_2 
03421  1824  C9 3D                 CMP #SP_LOCK_10_2
03422  1826  D0 0E                 BNE ENDANIMATION
03423  1828  A9 C7                 LDA #SPRITE_LOCK_10_2
03424  182A  85 07                 STA PARAM5
03425  182C  A9 C8                 LDA #SPRITE_LOCK_10_2 + 1
03426  182E  85 08                 STA PARAM6
03427  1830  20 A9 18              JSR ANIMATESIMPLESPRITE
03428  1833  4C 36 18              JMP ENDANIMATION
03429  1836             
03430  1836             ENDANIMATION 
03431  1836  60                    RTS
03432  1837             
03433  1837             
03434  1837             ;==============================================================================
03435  1837             ;ANIMATESOLOBAJADA - ANIMA LOS SPRITES QUE SOLO BAJAN COMO LAS GOTAS
03436  1837             ;PARAM5 - INDECE PRIMER SPRITE
03437  1837             ;PARAM6 - INDICE ÚLTIMO SPRITE
03438  1837             ;==============================================================================
03439  1837             ANIMATESOLOBAJADA 
03440  1837  BD AA 28              LDA SPRITE_CHAR_POS_Y,X
03441  183A  DD 8B 28              CMP ENEMY_END_Y_POS,X
03442  183D  D0 24                 BNE ENDANIMATESOLOBAJADA
03443  183F                        
03444  183F  BD F8 CF              LDA SPRITE_POINTER_BASE,X
03445  1842  C5 08                 CMP PARAM6
03446  1844  F0 0B                 BEQ RESETANIMSOLOBAJADA
03447  1846  FE F8 CF              INC SPRITE_POINTER_BASE,X
03448  1849             
03449  1849  A9 07                 LDA #SND_GOTA
03450  184B  20 9C 25              JSR INITPICKEDFX
03451  184E             
03452  184E  4C 63 18              JMP ENDANIMATESOLOBAJADA
03453  1851             
03454  1851             RESETANIMSOLOBAJADA 
03455  1851  A5 07                 LDA PARAM5
03456  1853  9D F8 CF              STA SPRITE_POINTER_BASE,X
03457  1856             
03458  1856  BD 79 28              LDA ENEMY_INI_X_POS,X   ;SE CARGAN LAS POSICIONES X E Y DE INICIO DEL SPRITE
03459  1859  85 03                 STA PARAM1
03460  185B  BD 7F 28              LDA ENEMY_INI_Y_POS,X
03461  185E  85 04                 STA PARAM2
03462  1860  20 39 19              JSR CALCSPRITEPOSFROMCHARPOS
03463  1863                        
03464  1863             ENDANIMATESOLOBAJADA 
03465  1863  60                    RTS
03466  1864             
03467  1864             
03468  1864             ;==============================================================================
03469  1864             ;ANIMATEDOUBLESPRITE - ANIMA LOS SPRITES QUE CAMBIÉN EN FUNCIÓN DE LA DIRECCIÓN
03470  1864             ;PARAM5 - INDICE SPRITE IZQUIERDA
03471  1864             ;PARAM6 - INDICE SPRITE DERECHA
03472  1864             ;PARAM7 - INDICE ÚLTIMO SPRITE IZQUIERDA
03473  1864             ;PARAM8 - INDICE ÚLTIMO SPRITE DERECHA
03474  1864             ;==============================================================================
03475  1864             ANIMATEDOUBLESPRITE 
03476  1864  BD 4F 28              LDA ENEMY_DIRECTION,X
03477  1867             
03478  1867  F0 13                 BEQ CHECKCAMBIOIZQUIERDA
03479  1869             
03480  1869                        ;SE MUEVE HACIA LA DERECHA
03481  1869  BD F8 CF              LDA SPRITE_POINTER_BASE,X
03482  186C  C5 07                 CMP PARAM5
03483  186E  30 0C                 BMI ANIMAR
03484  1870  C5 09                 CMP PARAM7
03485  1872  10 08                 BPL ANIMAR
03486  1874                        
03487  1874  A5 08                 LDA PARAM6
03488  1876  9D F8 CF              STA SPRITE_POINTER_BASE,X
03489  1879                        
03490  1879  4C 7C 18              JMP ANIMAR
03491  187C             
03492  187C             CHECKCAMBIOIZQUIERDA 
03493  187C             
03494  187C             
03495  187C             ANIMAR
03496  187C  BD 4F 28              LDA ENEMY_DIRECTION,X
03497  187F  F0 15                 BEQ ANIM2
03498  1881             
03499  1881             ANIM1      ;ANIMACIÓN HACIA LA DERECHA
03500  1881  BD F8 CF              LDA SPRITE_POINTER_BASE,X
03501  1884  C5 0A                 CMP PARAM8
03502  1886  10 06                 BPL RESETANIM1
03503  1888  FE F8 CF              INC SPRITE_POINTER_BASE,X
03504  188B  4C A8 18              JMP ENDANIMATEDOUBLESPRITE
03505  188E             
03506  188E             RESETANIM1 ;SE VUELVE AL PRIMER SPRITE HACIA LA DERECHA
03507  188E  A5 08                 LDA PARAM6
03508  1890  9D F8 CF              STA SPRITE_POINTER_BASE,X
03509  1893  4C A8 18              JMP ENDANIMATEDOUBLESPRITE
03510  1896             
03511  1896             ANIM2      ;ANIMACIÓN HACIA LA IZQUIERDA
03512  1896  BD F8 CF              LDA SPRITE_POINTER_BASE,X
03513  1899  C5 09                 CMP PARAM7
03514  189B  10 06                 BPL RESETANIM2
03515  189D  FE F8 CF              INC SPRITE_POINTER_BASE,X
03516  18A0  4C A8 18              JMP ENDANIMATEDOUBLESPRITE
03517  18A3             
03518  18A3             RESETANIM2 ;SE VUELVE AL PRIMER SPRITE HACIA LA IZQUIERDA
03519  18A3  A5 07                 LDA PARAM5
03520  18A5  9D F8 CF              STA SPRITE_POINTER_BASE,X
03521  18A8                        
03522  18A8             ENDANIMATEDOUBLESPRITE 
03523  18A8  60                    RTS
03524  18A9             
03525  18A9             ;==============================================================================
03526  18A9             ;ANIMATESIMPLESPRITE - ANIMACION DE SPRITES EN LOOP
03527  18A9             ;PARAM5 - INDECE PRIMER SPRITE
03528  18A9             ;PARAM6 - INDICE ÚLTIMO SPRITE
03529  18A9             ;==============================================================================
03530  18A9             ANIMATESIMPLESPRITE 
03531  18A9  BD F8 CF              LDA SPRITE_POINTER_BASE,X
03532  18AC  C5 08                 CMP PARAM6
03533  18AE  F0 06                 BEQ RESETANIMSIMPLESPRITE
03534  18B0  FE F8 CF              INC SPRITE_POINTER_BASE,X
03535  18B3  4C BB 18              JMP ENDANIMATESIMPLESPRITE
03536  18B6             
03537  18B6             RESETANIMSIMPLESPRITE 
03538  18B6  A5 07                 LDA PARAM5
03539  18B8  9D F8 CF              STA SPRITE_POINTER_BASE,X
03540  18BB                        
03541  18BB             ENDANIMATESIMPLESPRITE 
03542  18BB  60                    RTS
03543  18BC             
03544  18BC             ;=======================================
03545  18BC             ;ANIMACIÓN DEL JUGADOR ANDANDO A LA IZQUIERDA
03546  18BC             ;=======================================
03547  18BC             ANIMATEPLAYERLEFT 
03548  18BC  AD 42 28              LDA PLAYER_ANIM_DELAY
03549  18BF  F0 04                 BEQ DOANIMATEPLAYERLEFT
03550  18C1  CE 42 28              DEC PLAYER_ANIM_DELAY
03551  18C4  60                    RTS
03552  18C5                        
03553  18C5             DOANIMATEPLAYERLEFT 
03554  18C5  A9 03                 LDA #CONST_PLAYER_ANIM_DELAY          ;SE INICIALIZA EL RETARDO DE ANIMACIÓN
03555  18C7  8D 42 28              STA PLAYER_ANIM_DELAY
03556  18CA             
03557  18CA  AD F8 CF              LDA SPRITE_POINTER_BASE
03558  18CD  C9 4B                 CMP #SPRITE_PLAYER+11
03559  18CF  10 0A                 BPL RESETANIMPLAYERLEFT
03560  18D1  C9 49                 CMP #SPRITE_PLAYER+9
03561  18D3  30 06                 BMI RESETANIMPLAYERLEFT
03562  18D5  EE F8 CF              INC SPRITE_POINTER_BASE
03563  18D8  4C E5 18              JMP ENDANIMATEPLAYERLEFT
03564  18DB                        
03565  18DB             RESETANIMPLAYERLEFT 
03566  18DB  A9 49                 LDA #SPRITE_PLAYER+9
03567  18DD  8D F8 CF              STA SPRITE_POINTER_BASE
03568  18E0             
03569  18E0  A9 01                 LDA #SND_PASOS
03570  18E2  20 9C 25              JSR INITPICKEDFX
03571  18E5             
03572  18E5             ENDANIMATEPLAYERLEFT 
03573  18E5  60                    RTS
03574  18E6             
03575  18E6             ;=======================================
03576  18E6             ;ANIMACIÓN DEL JUGADOR A LA DERECHA
03577  18E6             ;=======================================
03578  18E6             ANIMATEPLAYERRIGHT 
03579  18E6  AD 42 28              LDA PLAYER_ANIM_DELAY
03580  18E9  F0 04                 BEQ DOANIMATEPLAYERRIGHT
03581  18EB  CE 42 28              DEC PLAYER_ANIM_DELAY
03582  18EE  60                    RTS
03583  18EF             
03584  18EF             DOANIMATEPLAYERRIGHT 
03585  18EF  A9 03                 LDA #CONST_PLAYER_ANIM_DELAY          ;SE INICIALIZA EL RETARDO DE ANIMACIÓN
03586  18F1  8D 42 28              STA PLAYER_ANIM_DELAY
03587  18F4             
03588  18F4  AD F8 CF              LDA SPRITE_POINTER_BASE
03589  18F7  C9 48                 CMP #SPRITE_PLAYER+8
03590  18F9  10 0A                 BPL RESETANIMPLAYERRIGHT
03591  18FB  C9 46                 CMP #SPRITE_PLAYER+6
03592  18FD  30 06                 BMI RESETANIMPLAYERRIGHT
03593  18FF  EE F8 CF              INC SPRITE_POINTER_BASE
03594  1902  4C 0F 19              JMP ENDANIMATEPLAYERRIGHT
03595  1905                        
03596  1905             RESETANIMPLAYERRIGHT 
03597  1905  A9 46                 LDA #SPRITE_PLAYER+6
03598  1907  8D F8 CF              STA SPRITE_POINTER_BASE
03599  190A             
03600  190A  A9 01                 LDA #SND_PASOS
03601  190C  20 9C 25              JSR INITPICKEDFX
03602  190F             
03603  190F             ENDANIMATEPLAYERRIGHT 
03604  190F  60                    RTS
03605  1910             
03606  1910             ;=======================================
03607  1910             ;ANIMACIÓN DEL JUGADOR SALTANDO
03608  1910             ;=======================================
03609  1910             ANIMATEPLAYERJUMP 
03610  1910  A9 43                 LDA #SPRITE_PLAYER+3
03611  1912  8D F8 CF              STA SPRITE_POINTER_BASE
03612  1915             
03613  1915  A9 02                 LDA #SND_SALTO
03614  1917  20 9C 25              JSR INITPICKEDFX
03615  191A             
03616  191A  60                    RTS
03617  191B             
03618  191B             ;=======================================
03619  191B             ;ANIMACIÓN DEL JUGADOR SALTANDO A LA IZQUIERDA
03620  191B             ;=======================================
03621  191B             ANIMATEPLAYERJUMPLEFT 
03622  191B  A9 45                 LDA #SPRITE_PLAYER+5
03623  191D  8D F8 CF              STA SPRITE_POINTER_BASE
03624  1920  60                    RTS
03625  1921             
03626  1921             ;=======================================
03627  1921             ;ANIMACIÓN DEL JUGADOR SALTANDO A LA DERECHA
03628  1921             ;=======================================
03629  1921             ANIMATEPLAYERJUMPRIGHT 
03630  1921  A9 44                 LDA #SPRITE_PLAYER+4
03631  1923  8D F8 CF              STA SPRITE_POINTER_BASE
03632  1926  60                    RTS
03633  1927             
03634  1927             ;=======================================
03635  1927             ;ANIMACIÓN DEL JUGADOR MIRANDO A LA DERECHA
03636  1927             ;=======================================
03637  1927             ANIMATEPLAYERLOOKRIGHT 
03638  1927  A9 40                 LDA #SPRITE_PLAYER
03639  1929  8D F8 CF              STA SPRITE_POINTER_BASE
03640  192C  60                    RTS
03641  192D             
03642  192D             ;=======================================
03643  192D             ;ANIMACIÓN DEL JUGADOR MIRANDO A LA IZQUIERDA
03644  192D             ;=======================================
03645  192D             ANIMATEPLAYERLOOKLEFT 
03646  192D  A9 41                 LDA #SPRITE_PLAYER+1
03647  192F  8D F8 CF              STA SPRITE_POINTER_BASE
03648  1932  60                    RTS
03649  1933             
03650  1933             ;=======================================
03651  1933             ;ANIMACIÓN DEL JUGADOR MIRANDO AL FRENTE
03652  1933             ;=======================================
03653  1933             ANIMATEPLAYERLOOKFRONT 
03654  1933  A9 42                 LDA #SPRITE_PLAYER+2
03655  1935  8D F8 CF              STA SPRITE_POINTER_BASE
03656  1938  60                    RTS
03657  1939             
03658  1939             ;------------------------------------------------------------
03659  1939             ;CALCSPRITEPOSFROMCHARPOS
03660  1939             ;CALCULATES THE REAL SPRITE COORDINATES FROM SCREEN CHAR POS
03661  1939             ;PARAM1 = CHAR_POS_X
03662  1939             ;PARAM2 = CHAR_POS_Y
03663  1939             ;X      = SPRITE INDEX
03664  1939             ;------------------------------------------------------------
03665  1939             CALCSPRITEPOSFROMCHARPOS 
03666  1939             
03667  1939                        ;OFFSET SCREEN TO BORDER 24,50
03668  1939  BD BB 28              LDA BIT_TABLE,X
03669  193C  49 FF                 EOR #$FF
03670  193E  2D 97 28              AND SPRITE_POS_X_EXTEND
03671  1941  8D 97 28              STA SPRITE_POS_X_EXTEND
03672  1944  8D 10 D0              STA VIC_SPRITE_X_EXTEND
03673  1947                        
03674  1947                        ;NEED EXTENDED X BIT?
03675  1947  A5 03                 LDA PARAM1
03676  1949  9D 9E 28              STA SPRITE_CHAR_POS_X,X
03677  194C  C9 1E                 CMP #30
03678  194E  90 0C                 BCC .NOXBIT
03679  1950                        
03680  1950  BD BB 28              LDA BIT_TABLE,X
03681  1953  0D 97 28              ORA SPRITE_POS_X_EXTEND
03682  1956  8D 97 28              STA SPRITE_POS_X_EXTEND
03683  1959  8D 10 D0              STA VIC_SPRITE_X_EXTEND
03684  195C                        
03685  195C             .NOXBIT    
03686  195C                        ;CALCULATE SPRITE POSITIONS (OFFSET FROM BORDER)
03687  195C  8A                    TXA
03688  195D  0A                    ASL
03689  195E  A8                    TAY
03690  195F                        
03691  195F  A5 03                 LDA PARAM1
03692  1961  0A                    ASL
03693  1962  0A                    ASL
03694  1963  0A                    ASL
03695  1964  18                    CLC
03696  1965                        ;ADC #(24-SPRITE_CENTER_OFFSET_X)
03697  1965  69 10                 ADC #16
03698  1967  9D 91 28              STA SPRITE_POS_X,X
03699  196A  99 00 D0              STA VIC_SPRITE_X_POS,Y
03700  196D                        
03701  196D  A5 04                 LDA PARAM2
03702  196F  9D AA 28              STA SPRITE_CHAR_POS_Y,X
03703  1972  0A                    ASL
03704  1973  0A                    ASL
03705  1974  0A                    ASL
03706  1975  18                    CLC
03707  1976                        ;ADC #( 50 - SPRITE_CENTER_OFFSET_Y )
03708  1976  69 2A                 ADC #42
03709  1978  9D 98 28              STA SPRITE_POS_Y,X
03710  197B  99 01 D0              STA VIC_SPRITE_Y_POS,Y
03711  197E                        
03712  197E  A9 00                 LDA #0
03713  1980  9D A4 28              STA SPRITE_CHAR_POS_X_DELTA,X
03714  1983  9D B0 28              STA SPRITE_CHAR_POS_Y_DELTA,X
03715  1986  60                    RTS
03716  1987             
03717  1987             
03718  1987             ;========================================================
03719  1987             ; BUILDSCOREPANEL
03720  1987             ; DIBUJA EL PANEL DE PUNTUACION
03721  1987             ;========================================================
03722  1987             BUILDSCOREPANEL 
03723  1987  A9 83                 LDA #>SCORE_SCREEN_DATA
03724  1989  85 18                 STA ZEROPAGE_POINTER_1+1
03725  198B  A9 FA                 LDA #<SCORE_SCREEN_DATA
03726  198D  85 17                 STA ZEROPAGE_POINTER_1
03727  198F                        
03728  198F  A9 CE                 LDA #>SCREEN_SCORE_CHAR
03729  1991  85 1A                 STA ZEROPAGE_POINTER_2+1
03730  1993  A9 A8                 LDA #<SCREEN_SCORE_CHAR
03731  1995  85 19                 STA ZEROPAGE_POINTER_2
03732  1997                        
03733  1997  A0 00                 LDY #0
03734  1999             .LOADSCOREPANELDATALOOP1 
03735  1999  B1 17                 LDA (ZEROPAGE_POINTER_1),Y
03736  199B  91 19                 STA (ZEROPAGE_POINTER_2),Y
03737  199D  C8                    INY
03738  199E  C0 28                 CPY #40
03739  19A0  D0 F7                 BNE .LOADSCOREPANELDATALOOP1
03740  19A2                        
03741  19A2             ;        INC ZEROPAGE_POINTER_1+1
03742  19A2             ;        INC ZEROPAGE_POINTER_2+1
03743  19A2             
03744  19A2             ;        LDY #0
03745  19A2             ;.LOADSCOREPANELDATALOOP2
03746  19A2             ;        LDA (ZEROPAGE_POINTER_1),Y
03747  19A2             ;        STA (ZEROPAGE_POINTER_2),Y
03748  19A2             ;        INY
03749  19A2             ;        CPY #104
03750  19A2             ;        BNE .LOADSCOREPANELDATALOOP2
03751  19A2             
03752  19A2             
03753  19A2  A9 84                 LDA #>SCORE_COLOUR_DATA
03754  19A4  85 18                 STA ZEROPAGE_POINTER_1+1
03755  19A6  A9 22                 LDA #<SCORE_COLOUR_DATA
03756  19A8  85 17                 STA ZEROPAGE_POINTER_1
03757  19AA                        
03758  19AA  A9 DA                 LDA #>SCREEN_SCORE_COLOR
03759  19AC  85 1A                 STA ZEROPAGE_POINTER_2+1
03760  19AE  A9 A8                 LDA #<SCREEN_SCORE_COLOR
03761  19B0  85 19                 STA ZEROPAGE_POINTER_2
03762  19B2             
03763  19B2  A0 00                 LDY #0
03764  19B4             .LOADSCOREPANELCOLORLOOP1 
03765  19B4  B1 17                 LDA (ZEROPAGE_POINTER_1),Y
03766  19B6  91 19                 STA (ZEROPAGE_POINTER_2),Y
03767  19B8  C8                    INY
03768  19B9  C0 28                 CPY #40
03769  19BB  D0 F7                 BNE .LOADSCOREPANELCOLORLOOP1
03770  19BD                        
03771  19BD             ;        INC ZEROPAGE_POINTER_1+1
03772  19BD             ;        INC ZEROPAGE_POINTER_2+1
03773  19BD             
03774  19BD             ;        LDY #0
03775  19BD             ;.LOADSCOREPANELCOLORLOOP2
03776  19BD             ;        LDA (ZEROPAGE_POINTER_1),Y
03777  19BD             ;        STA (ZEROPAGE_POINTER_2),Y
03778  19BD             ;        INY
03779  19BD             ;        CPY #104
03780  19BD             ;        BNE .LOADSCOREPANELCOLORLOOP2
03781  19BD             
03782  19BD  60                    RTS
03783  19BE                        
03784  19BE             
03785  19BE             ;========================================================
03786  19BE             ; BUILDINSTRUCCIONES
03787  19BE             ; DIBUJA LAS INSTRUCCIONES
03788  19BE             ;========================================================
03789  19BE             BUILDINSTRUCCIONES 
03790  19BE  A9 C2                 LDA #<INSTRUCCIONES_SCREEN_DATA
03791  19C0  85 17                 STA ZEROPAGE_POINTER_1
03792  19C2  A9 82                 LDA #>INSTRUCCIONES_SCREEN_DATA
03793  19C4  85 18                 STA ZEROPAGE_POINTER_1+1
03794  19C6             
03795  19C6  A9 00                 LDA #<SCREEN_CHAR
03796  19C8  85 19                 STA ZEROPAGE_POINTER_2
03797  19CA  A9 CC                 LDA #>SCREEN_CHAR
03798  19CC  85 1A                 STA ZEROPAGE_POINTER_2+1
03799  19CE             
03800  19CE  A9 00                 LDA #0                  ;SE INICIALIZAN LOS CONTADORES
03801  19D0  8D 9A 2A              STA CONT_ORIGEN
03802  19D3                        
03803  19D3  A9 26                 LDA #38                 ;DATOS POR LÍNEA
03804  19D5  8D 9C 2A              STA CONT_BYTES_LINEA
03805  19D8             
03806  19D8  A9 01                 LDA #1
03807  19DA  8D 9B 2A              STA CONT_DESTINO
03808  19DD             
03809  19DD             BUCLEINSTRUCCIONESDATOS 
03810  19DD  AC 9A 2A              LDY CONT_ORIGEN                 ;SE CARGA LA POSICIÓN ORIGEN
03811  19E0             
03812  19E0  B1 17                 LDA (ZEROPAGE_POINTER_1),Y
03813  19E2  C9 FF                 CMP #$FF                        ;SE COMPARA CON $FF PARA VER SI SE HA LLEGADO
03814  19E4  F0 36                 BEQ FININSTRUCCIONESDATOS                    ;AL FINAL DE LA INFORMACIÓN
03815  19E6             
03816  19E6  EE 9A 2A              INC CONT_ORIGEN                 ;SE AVANZA UNA POSICIÓN
03817  19E9  D0 02                 BNE CONTINSTRUCCIONES1                       ;SI SE HAN COMPLETADO 256 POSICIONES
03818  19EB  E6 18                 INC ZEROPAGE_POINTER_1+1        ;SE INCREMENTA EL ZERO_PAGE EN 256 POSICIONES
03819  19ED             CONTINSTRUCCIONES1 
03820  19ED  C8                    INY
03821  19EE             
03822  19EE  A2 01                 LDX #$01                        ;REPETICIONES DEL DATO
03823  19F0  C9 00                 CMP #$00                        ;SE COMPRUEBA SI ES UN DATO REPETIDO
03824  19F2  D0 04                 BNE BUCLEESCRIBIRINSTRUCCIONESDATO
03825  19F4             
03826  19F4                        ;CUANDO HAY REPETICIONES SE LEE EL NÚMERO DE ELLAS
03827  19F4  A2 26                 LDX #38
03828  19F6             
03829  19F6             CONTINSTRUCCIONES2 
03830  19F6  A9 20                 LDA #$20                        ;LAS REPETICIONES SON SIEMPRE SOBRE EL ESPACIO VACÍO (CÓDIGO $20)
03831  19F8             
03832  19F8             BUCLEESCRIBIRINSTRUCCIONESDATO 
03833  19F8  AC 9B 2A              LDY CONT_DESTINO                ;SE CARGA LA POSICIÓN DE MEMORIA DEL DESTINO
03834  19FB  91 19                 STA (ZEROPAGE_POINTER_2),Y      ;SE GUARDA EL DATO EN MEMORIA
03835  19FD                        
03836  19FD  CE 9C 2A              DEC CONT_BYTES_LINEA            ;SE INCREMENTA EL NÚMERO DE DATOS ESCRITOS
03837  1A00  D0 0D                 BNE NOFINLINEAINSTRUCCIONESDATO              ;SE COMPRUEBA SI SE HAN ESCRITO 32
03838  1A02             
03839  1A02                        ;NOS SALTAMOS LA ÚLTIMA POSICIÓN Y LA PRIMERA
03840  1A02  EE 9B 2A              INC CONT_DESTINO
03841  1A05  EE 9B 2A              INC CONT_DESTINO
03842  1A08             
03843  1A08  48                    PHA
03844  1A09  A9 26                 LDA #38                          ;SE PONE EL CONTADOR DE BYTES POR LINEA A 38
03845  1A0B  8D 9C 2A              STA CONT_BYTES_LINEA
03846  1A0E  68                    PLA
03847  1A0F             
03848  1A0F             NOFINLINEAINSTRUCCIONESDATO 
03849  1A0F  EE 9B 2A              INC CONT_DESTINO                ;SE INCREMENTA LA POSICIÓN DE DESTINO
03850  1A12  D0 02                 BNE NOPASODEPAGINAINSTRUCCIONESDATO
03851  1A14  E6 1A                 INC ZEROPAGE_POINTER_2+1        ;SE PASA DE PÁGINA DEL ZERO PAGE
03852  1A16             
03853  1A16             NOPASODEPAGINAINSTRUCCIONESDATO 
03854  1A16  CA                    DEX                     ;SE COMPRUEBA SI SE HAN SACADO TODOS LOS DATOS
03855  1A17  F0 C4                 BEQ BUCLEINSTRUCCIONESDATOS        ;SI ES ASÍ SE PASA AL SIGUIENTE
03856  1A19                        
03857  1A19  4C F8 19              JMP BUCLEESCRIBIRINSTRUCCIONESDATO
03858  1A1C                        
03859  1A1C                        ;RTS
03860  1A1C             
03861  1A1C             FININSTRUCCIONESDATOS 
03862  1A1C  A2 00                 LDX #0
03863  1A1E             
03864  1A1E             BUCLECOLOREAINSTRUCCIONES 
03865  1A1E  BD C3 28              LDA SCREEN_LINE_OFFSET_TABLE_LO,X
03866  1A21  85 17                 STA ZEROPAGE_POINTER_1
03867  1A23  BD E7 28              LDA COLOR_LINE_OFFSET_TABLE_HI,X
03868  1A26  85 18                 STA ZEROPAGE_POINTER_1+1
03869  1A28             
03870  1A28  A9 0F                 LDA #15
03871  1A2A  8D AB 2A              STA COLOR_PUERTA
03872  1A2D             BUCLECOLOR 
03873  1A2D  A0 26                 LDY #38
03874  1A2F             BUCLELINEA 
03875  1A2F  91 17                 STA (ZEROPAGE_POINTER_1),Y
03876  1A31  88                    DEY
03877  1A32  D0 FB                 BNE BUCLELINEA
03878  1A34  8A                    TXA
03879  1A35  48                    PHA
03880  1A36  20 24 1C              JSR WAITFRAME2
03881  1A39  20 24 1C              JSR WAITFRAME2
03882  1A3C  68                    PLA
03883  1A3D  AA                    TAX
03884  1A3E  CE AB 2A              DEC COLOR_PUERTA
03885  1A41  AD AB 2A              LDA COLOR_PUERTA
03886  1A44  C9 04                 CMP #4
03887  1A46  D0 E5                 BNE BUCLECOLOR
03888  1A48             
03889  1A48  E8                    INX
03890  1A49  E0 0F                 CPX #15
03891  1A4B  D0 D1                 BNE BUCLECOLOREAINSTRUCCIONES
03892  1A4D                        
03893  1A4D             FINCOLOREADO 
03894  1A4D  60                    RTS
03895  1A4E             
03896  1A4E             ;        LDY #0
03897  1A4E             ;.LOADINSTRUCCIONESSCREENLOOP2
03898  1A4E             ;        LDA (ZEROPAGE_POINTER_1),Y
03899  1A4E             ;        STA (ZEROPAGE_POINTER_2),Y
03900  1A4E             ;        INY
03901  1A4E             ;        BNE .LOADINSTRUCCIONESSCREENLOOP2
03902  1A4E             
03903  1A4E             ;        INC ZEROPAGE_POINTER_1+1
03904  1A4E             ;        INC ZEROPAGE_POINTER_2+1
03905  1A4E             
03906  1A4E             ;        LDA #$CE
03907  1A4E             ;        STA ZEROPAGE_POINTER_2+1
03908  1A4E             ;        LDA #$00
03909  1A4E             ;        STA ZEROPAGE_POINTER_2
03910  1A4E             
03911  1A4E             ;        LDY #0
03912  1A4E             ;.LOADINSTRUCCIONESSCREENLOOP3
03913  1A4E             ;        LDA (ZEROPAGE_POINTER_1),Y
03914  1A4E             ;        STA (ZEROPAGE_POINTER_2),Y
03915  1A4E             ;        INY
03916  1A4E             ;        CPY #$80
03917  1A4E             ;        BNE .LOADINSTRUCCIONESSCREENLOOP3
03918  1A4E             
03919  1A4E             
03920  1A4E             ;        LDA #>INSTRUCCIONES_COLOUR_DATA
03921  1A4E             ;        STA ZEROPAGE_POINTER_1+1
03922  1A4E             ;        LDA #<INSTRUCCIONES_COLOUR_DATA
03923  1A4E             ;        STA ZEROPAGE_POINTER_1
03924  1A4E             
03925  1A4E                        
03926  1A4E             ;        LDA #>SCREEN_COLOR
03927  1A4E             ;        STA ZEROPAGE_POINTER_2+1
03928  1A4E             ;        LDA #<SCREEN_COLOR
03929  1A4E             ;        STA ZEROPAGE_POINTER_2
03930  1A4E             
03931  1A4E             ;        LDY #0
03932  1A4E             ;.LOADINSTRUCCIONESSCREENCOLORLOOP1
03933  1A4E             ;        ;LDA (ZEROPAGE_POINTER_1),Y
03934  1A4E             ;        LDA #GREEN
03935  1A4E             ;        STA (ZEROPAGE_POINTER_2),Y
03936  1A4E             ;        INY
03937  1A4E             ;        BNE .LOADINSTRUCCIONESSCREENCOLORLOOP1
03938  1A4E             
03939  1A4E             ;        ;INC ZEROPAGE_POINTER_1+1
03940  1A4E             ;        INC ZEROPAGE_POINTER_2+1
03941  1A4E             
03942  1A4E             ;        LDY #0
03943  1A4E             ;.LOADINSTRUCCIONESSCREENCOLORLOOP2
03944  1A4E             ;        ;LDA (ZEROPAGE_POINTER_1),Y
03945  1A4E             ;        LDA #GREEN
03946  1A4E             ;        STA (ZEROPAGE_POINTER_2),Y
03947  1A4E             ;        INY
03948  1A4E             ;        BNE .LOADINSTRUCCIONESSCREENCOLORLOOP2
03949  1A4E             
03950  1A4E             ;        ;INC ZEROPAGE_POINTER_1+1
03951  1A4E             ;        INC ZEROPAGE_POINTER_2+1
03952  1A4E             
03953  1A4E             ;        LDY #0
03954  1A4E             ;.LOADINSTRUCCIONESSCREENCOLORLOOP3
03955  1A4E             ;        ;LDA (ZEROPAGE_POINTER_1),Y
03956  1A4E             ;        LDA #GREEN
03957  1A4E             ;        STA (ZEROPAGE_POINTER_2),Y
03958  1A4E             ;        INY
03959  1A4E             ;        CPY #$80
03960  1A4E             ;        BNE .LOADINSTRUCCIONESSCREENCOLORLOOP3
03961  1A4E             
03962  1A4E             ;;        RTS
03963  1A4E             
03964  1A4E             ;        LDA #<INSTRUCCIONES_SCREEN_DATA
03965  1A4E             ;        STA ZEROPAGE_POINTER_1
03966  1A4E             ;        LDA #>INSTRUCCIONES_SCREEN_DATA
03967  1A4E             ;        STA ZEROPAGE_POINTER_1+1
03968  1A4E             
03969  1A4E             ;        LDX #16
03970  1A4E             ;        LDA SCREEN_LINE_OFFSET_TABLE_LO,X
03971  1A4E             ;        STA ZEROPAGE_POINTER_2
03972  1A4E             ;        LDA SCREEN_LINE_OFFSET_TABLE_HI,X
03973  1A4E             ;        STA ZEROPAGE_POINTER_2 + 1
03974  1A4E             
03975  1A4E             ;        LDX #16
03976  1A4E             ;FILAS
03977  1A4E             ;        LDY #0
03978  1A4E             ;PRINTFILA
03979  1A4E             ;        TXA
03980  1A4E             ;        AND #$01
03981  1A4E             ;        BEQ PAR
03982  1A4E             ;        LDA #$20
03983  1A4E             ;        JMP COPIACARACTER
03984  1A4E             ;PAR
03985  1A4E             ;        LDA (ZEROPAGE_POINTER_1),Y
03986  1A4E             
03987  1A4E             ;COPIACARACTER
03988  1A4E             ;        STA (ZEROPAGE_POINTER_2),Y
03989  1A4E             
03990  1A4E             ;;        INC ZEROPAGE_POINTER_1
03991  1A4E             ;;        BNE SEGUIR
03992  1A4E             ;;        INC ZEROPAGE_POINTER_1 + 1
03993  1A4E             
03994  1A4E             ;;SEGUIR
03995  1A4E             
03996  1A4E             ;        INY
03997  1A4E             ;        CPY #40
03998  1A4E             ;        BNE PRINTFILA
03999  1A4E             
04000  1A4E             ;        ;JSR ESPERATECLA
04001  1A4E             
04002  1A4E             ;        LDY #7
04003  1A4E             ;        LDA VIC_SCREEN_CONTROL
04004  1A4E             ;        ;AND #%11111000
04005  1A4E             ;        ORA #%00000111
04006  1A4E             ;        ;AND #%11111000
04007  1A4E             ;        STA VIC_SCREEN_CONTROL
04008  1A4E             ;MOVERFILA
04009  1A4E             ;        ;JSR ESPERATECLA
04010  1A4E             ;        JSR WAITFRAME
04011  1A4E             ;        JSR WAITFRAME
04012  1A4E             ;        JSR WAITFRAME
04013  1A4E             
04014  1A4E             ;;        LDA VIC_SCREEN_CONTROL
04015  1A4E             ;;        AND #%00000111
04016  1A4E             ;;        BNE NOCAMBIO
04017  1A4E             ;;        LDA VIC_SCREEN_CONTROL
04018  1A4E             ;;        ORA #%00000111
04019  1A4E             ;;        STA VIC_SCREEN_CONTROL
04020  1A4E             ;;        DEY
04021  1A4E             ;;        JMP MOVERFILA
04022  1A4E             
04023  1A4E             ;NOCAMBIO
04024  1A4E             ;        DEC VIC_SCREEN_CONTROL
04025  1A4E             ;        ;INC VIC_SCREEN_CONTROL
04026  1A4E             ;        DEY
04027  1A4E             ;        BNE MOVERFILA
04028  1A4E             
04029  1A4E             ;;        JSR WAITFRAME
04030  1A4E             ;;        JSR WAITFRAME
04031  1A4E             ;;        JSR WAITFRAME
04032  1A4E             
04033  1A4E             ;        ;JSR ESPERATECLA
04034  1A4E             ;        JSR DESPLAZATODO
04035  1A4E             
04036  1A4E             ;;        LDA VIC_SCREEN_CONTROL
04037  1A4E             ;;        ORA #%00000011
04038  1A4E             ;;        STA VIC_SCREEN_CONTROL
04039  1A4E             
04040  1A4E             ;        ;JSR WAITFRAME
04041  1A4E             ;        ;JSR ESPERATECLA
04042  1A4E             
04043  1A4E             ;        TXA
04044  1A4E             ;        AND #$01
04045  1A4E             ;        BNE IMPAR
04046  1A4E             
04047  1A4E             ;        LDA ZEROPAGE_POINTER_1
04048  1A4E             ;        CLC
04049  1A4E             ;        ADC #40
04050  1A4E             ;        BCC SIGUIENTE
04051  1A4E             ;        ;CMP #40
04052  1A4E             ;        INC ZEROPAGE_POINTER_1 + 1
04053  1A4E             
04054  1A4E             ;SIGUIENTE
04055  1A4E             ;        STA ZEROPAGE_POINTER_1
04056  1A4E             
04057  1A4E             ;IMPAR
04058  1A4E             ;;        LDY #39
04059  1A4E             ;;        LDA #20
04060  1A4E             ;;BORRAFILA
04061  1A4E             ;;        STA (ZEROPAGE_POINTER_2),Y
04062  1A4E             ;;        DEY
04063  1A4E             ;;        BNE BORRAFILA
04064  1A4E             
04065  1A4E             ;        DEX
04066  1A4E             ;        BNE FILAS
04067  1A4E             
04068  1A4E             ;        LDA VIC_SCREEN_CONTROL
04069  1A4E             ;        ORA #%00000011
04070  1A4E             ;        STA VIC_SCREEN_CONTROL
04071  1A4E             ;
04072  1A4E             ;        RTS
04073  1A4E             
04074  1A4E             
04075  1A4E             ;ESPERATECLA
04076  1A4E             ;        PHA
04077  1A4E             ;        TXA
04078  1A4E             ;        PHA
04079  1A4E             ;        TYA
04080  1A4E             ;        PHA
04081  1A4E             ;KEY1
04082  1A4E             ;        JSR KERNAL_GETIN
04083  1A4E             ;        BEQ KEY1
04084  1A4E             
04085  1A4E             ;        PLA
04086  1A4E             ;        TAY
04087  1A4E             ;        PLA
04088  1A4E             ;        TAX
04089  1A4E             ;        PLA
04090  1A4E             ;        RTS
04091  1A4E             
04092  1A4E             
04093  1A4E             ;DESPLAZATODO
04094  1A4E             ;        TXA
04095  1A4E             ;        PHA
04096  1A4E             ;        TYA
04097  1A4E             ;        PHA
04098  1A4E             
04099  1A4E             ;        LDX #0
04100  1A4E             
04101  1A4E             ;BUCLE
04102  1A4E             ;        LDA SCREEN_LINE_OFFSET_TABLE_LO,X
04103  1A4E             ;        STA ZEROPAGE_POINTER_3
04104  1A4E             ;        LDA SCREEN_LINE_OFFSET_TABLE_HI,X
04105  1A4E             ;        STA ZEROPAGE_POINTER_3 + 1
04106  1A4E             ;
04107  1A4E             ;        INX
04108  1A4E             ;        LDA SCREEN_LINE_OFFSET_TABLE_LO,X
04109  1A4E             ;        STA ZEROPAGE_POINTER_4
04110  1A4E             ;        LDA SCREEN_LINE_OFFSET_TABLE_HI,X
04111  1A4E             ;        STA ZEROPAGE_POINTER_4 + 1
04112  1A4E             
04113  1A4E             ;        LDY #0
04114  1A4E             ;COPIALINEA
04115  1A4E             ;        LDA (ZEROPAGE_POINTER_4),Y
04116  1A4E             ;        STA (ZEROPAGE_POINTER_3),Y
04117  1A4E             ;;        LDA #$20
04118  1A4E             ;;        STA (ZEROPAGE_POINTER_4),Y
04119  1A4E             ;        INY
04120  1A4E             ;        CPY #40
04121  1A4E             ;        BNE COPIALINEA
04122  1A4E             
04123  1A4E             ;        CPX #16
04124  1A4E             ;        BNE BUCLE
04125  1A4E             
04126  1A4E             ;        PLA
04127  1A4E             ;        TAY
04128  1A4E             ;        PLA
04129  1A4E             ;        TAX
04130  1A4E             
04131  1A4E             ;        RTS
04132  1A4E             
04133  1A4E             
04134  1A4E             ;========================================================
04135  1A4E             ; BUILD SCREEN
04136  1A4E             ;DIBUJA EL AREA DE JUEGO
04137  1A4E             ;========================================================
04138  1A4E             BUILDSCREEN 
04139  1A4E  AD 43 28              LDA CUR_SCREEN
04140  1A51  AA                    TAX
04141  1A52             
04142  1A52                        ;SE APAGA LA PANTALLA
04143  1A52             ;        LDA VIC_SCREEN_CONTROL
04144  1A52             ;        AND #$1F
04145  1A52             ;        STA VIC_SCREEN_CONTROL
04146  1A52             ;        JSR WAITFRAME
04147  1A52                        
04148  1A52                        ;LAS PANTALLAS ENTRE LA 30 Y 34 LOS SPRITES VAN TRAS EL FONDO
04149  1A52  C9 1D                 CMP #29
04150  1A54  30 09                 BMI SPRITESDELANTEFONDO
04151  1A56  C9 23                 CMP #35
04152  1A58  10 05                 BPL SPRITESDELANTEFONDO
04153  1A5A             
04154  1A5A             SPRITESTRASFONDO 
04155  1A5A                        ;LOS SPRITES SE VEN POR DETRÁS DEL FONDO PARA LAS PANTALLAS DE LAS CAVERNAS CON AGUA
04156  1A5A  A9 0F                 LDA #$0F
04157  1A5C  4C 61 1A              JMP UPDATESPRITEPRIORITY
04158  1A5F             
04159  1A5F             SPRITESDELANTEFONDO 
04160  1A5F                        ;LOS SPRITES SE VEN DELANTE DEL FONDO
04161  1A5F  A9 00                 LDA #$00
04162  1A61             
04163  1A61             UPDATESPRITEPRIORITY 
04164  1A61  8D 1B D0              STA VIC_SPRITE_PRIORITY
04165  1A64             
04166  1A64                        ;SE COMPRUEBA SI SE HA VISITADO LA PANTALLA
04167  1A64  BD 29 29              LDA SCREENS_VISITED,X
04168  1A67  D0 08                 BNE LOADSCREENDATA
04169  1A69  A9 01                 LDA #1                   ;SI NO SE HA VISITADO SE PONE A 1
04170  1A6B  9D 29 29              STA SCREENS_VISITED,X
04171  1A6E  20 D9 15              JSR INCNUMPANTALLA
04172  1A71             
04173  1A71             LOADSCREENDATA 
04174  1A71             ;        SEI             ;SE DESHABILITAN LAS INTERRUPCIONES
04175  1A71  A5 01                 LDA $01         ;SE GUARDA LA CONFIGURACIÓN
04176  1A73  48                    PHA
04177  1A74  A9 36                 LDA #$36        ;SE HABILITA LA RAM DE $A000
04178  1A76  85 01                 STA $01
04179  1A78             
04180  1A78  BD 57 29              LDA SCREENS_DATA_TABLE_HI,X
04181  1A7B  85 18                 STA ZEROPAGE_POINTER_1+1
04182  1A7D  BD 85 29              LDA SCREENS_DATA_TABLE_LO,X
04183  1A80  85 17                 STA ZEROPAGE_POINTER_1
04184  1A82             
04185  1A82  A9 CC                 LDA #>SCREEN_CHAR
04186  1A84  85 1A                 STA ZEROPAGE_POINTER_2+1
04187  1A86  A9 00                 LDA #<SCREEN_CHAR
04188  1A88  85 19                 STA ZEROPAGE_POINTER_2
04189  1A8A             
04190  1A8A             
04191  1A8A  A9 00                 LDA #0                  ;SE INICIALIZAN LOS CONTADORES
04192  1A8C  8D 9A 2A              STA CONT_ORIGEN
04193  1A8F                        
04194  1A8F  A9 20                 LDA #32                 ;DATOS POR LÍNEA
04195  1A91  8D 9C 2A              STA CONT_BYTES_LINEA
04196  1A94             
04197  1A94  A9 04                 LDA #4                  ;SE SALTAN LAS 4 PRIMERAS POSICIONES DE PANTALLA
04198  1A96  8D 9B 2A              STA CONT_DESTINO
04199  1A99             
04200  1A99             BUCLEDATOS 
04201  1A99  AC 9A 2A              LDY CONT_ORIGEN                 ;SE CARGA LA POSICIÓN ORIGEN
04202  1A9C             
04203  1A9C  B1 17                 LDA (ZEROPAGE_POINTER_1),Y
04204  1A9E  C9 FF                 CMP #$FF                        ;SE COMPARA CON $FF PARA VER SI SE HA LLEGADO
04205  1AA0  F0 3F                 BEQ FINDATOS                    ;AL FINAL DE LA INFORMACIÓN
04206  1AA2             
04207  1AA2  EE 9A 2A              INC CONT_ORIGEN                 ;SE AVANZA UNA POSICIÓN
04208  1AA5  D0 02                 BNE CONT1                       ;SI SE HAN COMPLETADO 256 POSICIONES
04209  1AA7  E6 18                 INC ZEROPAGE_POINTER_1+1        ;SE INCREMENTA EL ZERO_PAGE EN 256 POSICIONES
04210  1AA9  C8         CONT1      INY
04211  1AAA             
04212  1AAA  A2 01                 LDX #$01                        ;REPETICIONES DEL DATO
04213  1AAC  C9 00                 CMP #$00                        ;SE COMPRUEBA SI ES UN DATO REPETIDO
04214  1AAE  D0 0C                 BNE BUCLEESCRIBIRDATO
04215  1AB0             
04216  1AB0                        ;CUANDO HAY REPETICIONES SE LEE EL NÚMERO DE ELLAS
04217  1AB0  B1 17                 LDA (ZEROPAGE_POINTER_1),Y      ;SE CARGA EL NÚMERO DE REPETICIONES
04218  1AB2  AA                    TAX                             ;SE PASA EL NÚMERO DE REPETICIONES A X
04219  1AB3             
04220  1AB3             ;        ;SE LEE EL DATO A ESCRIBIR
04221  1AB3  EE 9A 2A              INC CONT_ORIGEN
04222  1AB6  D0 02                 BNE CONT2                       ;SI SE HAN COMPLETADO 256 POSICIONES
04223  1AB8  E6 18                 INC ZEROPAGE_POINTER_1+1        ;SE INCREMENTA EL ZERO_PAGE EN 256 POSICIONES
04224  1ABA             ;CONT2   INY
04225  1ABA             ;        LDA (ZEROPAGE_POINTER_1),Y
04226  1ABA             
04227  1ABA             ;        INC CONT_ORIGEN                 ;SE INCREMENTA LA POSICIÓN ORIGEN
04228  1ABA             ;        BNE BUCLEESCRIBIRDATO           ;SI SE HAN COMPLETADO 256 POSICIONES
04229  1ABA             ;        INC ZEROPAGE_POINTER_1+1        ;SE INCREMENTA EL ZERO_PAGE EN 256 POSICIONES
04230  1ABA             CONT2
04231  1ABA  A9 20                 LDA #$20                        ;LAS REPETICIONES SON SIEMPRE SOBRE EL ESPACIO VACÍO (CÓDIGO $20)
04232  1ABC             
04233  1ABC             BUCLEESCRIBIRDATO 
04234  1ABC  AC 9B 2A              LDY CONT_DESTINO                ;SE CARGA LA POSICIÓN DE MEMORIA DEL DESTINO
04235  1ABF  91 19                 STA (ZEROPAGE_POINTER_2),Y      ;SE GUARDA EL DATO EN MEMORIA
04236  1AC1                        
04237  1AC1  CE 9C 2A              DEC CONT_BYTES_LINEA            ;SE INCREMENTA EL NÚMERO DE DATOS ESCRITOS
04238  1AC4  D0 0E                 BNE NOFINLINEADATO              ;SE COMPRUEBA SI SE HAN ESCRITO 32
04239  1AC6             
04240  1AC6  AD 9B 2A              LDA CONT_DESTINO                ;SE SUMA 8 AL DESTINO PARA SALTARSE LAS 4 ÚLTIMAS POSICIONES DE LÍNEA
04241  1AC9  18                    CLC                             ;Y LAS 4 PRIMERAS DE LA SIGUIENTE
04242  1ACA  69 08                 ADC #8
04243  1ACC  8D 9B 2A              STA CONT_DESTINO
04244  1ACF             
04245  1ACF  A9 20                 LDA #32                          ;SE PONE EL CONTADOR DE BYTES POR LINEA A 0
04246  1AD1  8D 9C 2A              STA CONT_BYTES_LINEA
04247  1AD4             
04248  1AD4             NOFINLINEADATO 
04249  1AD4  EE 9B 2A              INC CONT_DESTINO                ;SE INCREMENTA LA POSICIÓN DE DESTINO
04250  1AD7  D0 02                 BNE NOPASODEPAGINADATO
04251  1AD9  E6 1A                 INC ZEROPAGE_POINTER_2+1        ;SE PASA DE PÁGINA DEL ZERO PAGE
04252  1ADB             
04253  1ADB             NOPASODEPAGINADATO 
04254  1ADB  CA                    DEX                     ;SE COMPRUEBA SI SE HAN SACADO TODOS LOS DATOS
04255  1ADC  F0 BB                 BEQ BUCLEDATOS        ;SI ES ASÍ SE PASA AL SIGUIENTE
04256  1ADE                        
04257  1ADE  4C BC 1A              JMP BUCLEESCRIBIRDATO
04258  1AE1                        
04259  1AE1             FINDATOS
04260  1AE1             
04261  1AE1             ;        LDY #0
04262  1AE1             ;.LOADPLAYSCREENLOOP1
04263  1AE1             ;        LDA (ZEROPAGE_POINTER_1),Y
04264  1AE1             ;        STA (ZEROPAGE_POINTER_2),Y
04265  1AE1             ;        INY
04266  1AE1             ;        BNE .LOADPLAYSCREENLOOP1
04267  1AE1             
04268  1AE1             ;        INC ZEROPAGE_POINTER_1+1
04269  1AE1             ;        INC ZEROPAGE_POINTER_2+1
04270  1AE1             
04271  1AE1             ;        LDY #0
04272  1AE1             ;.LOADPLAYSCREENLOOP2
04273  1AE1             ;        LDA (ZEROPAGE_POINTER_1),Y
04274  1AE1             ;        STA (ZEROPAGE_POINTER_2),Y
04275  1AE1             ;        INY
04276  1AE1             ;        BNE .LOADPLAYSCREENLOOP2
04277  1AE1             
04278  1AE1             ;        INC ZEROPAGE_POINTER_1+1
04279  1AE1             ;        INC ZEROPAGE_POINTER_2+1
04280  1AE1             
04281  1AE1             ;        LDY #0
04282  1AE1             ;.LOADPLAYSCREENLOOP3
04283  1AE1             ;        LDA (ZEROPAGE_POINTER_1),Y
04284  1AE1             ;        STA (ZEROPAGE_POINTER_2),Y
04285  1AE1             ;        INY
04286  1AE1             ;        CPY #$80
04287  1AE1             ;        BNE .LOADPLAYSCREENLOOP3
04288  1AE1             
04289  1AE1             
04290  1AE1  AD 43 28              LDA CUR_SCREEN
04291  1AE4  AA                    TAX
04292  1AE5             
04293  1AE5  BD B3 29              LDA SCREENS_COLOR_TABLE_HI,X
04294  1AE8  85 18                 STA ZEROPAGE_POINTER_1+1
04295  1AEA  BD E1 29              LDA SCREENS_COLOR_TABLE_LO,X
04296  1AED  85 17                 STA ZEROPAGE_POINTER_1
04297  1AEF             
04298  1AEF  A9 D8                 LDA #>SCREEN_COLOR
04299  1AF1  85 1A                 STA ZEROPAGE_POINTER_2+1
04300  1AF3  A9 00                 LDA #<SCREEN_COLOR
04301  1AF5  85 19                 STA ZEROPAGE_POINTER_2
04302  1AF7             
04303  1AF7  A9 00                 LDA #0                  ;SE INICIALIZAN LOS CONTADORES
04304  1AF9  8D 9A 2A              STA CONT_ORIGEN
04305  1AFC                        
04306  1AFC  A9 20                 LDA #32                 ;DATOS DE COLOR POR LÍNEA
04307  1AFE  8D 9C 2A              STA CONT_BYTES_LINEA
04308  1B01             
04309  1B01  A9 04                 LDA #4                  ;SE SALTAN LAS 4 PRIMERAS POSICIONES DE PANTALLA
04310  1B03  8D 9B 2A              STA CONT_DESTINO
04311  1B06             
04312  1B06             BUCLECOLORES 
04313  1B06  AC 9A 2A              LDY CONT_ORIGEN                 ;SE CARGA LA POSICIÓN ORIGEN
04314  1B09             
04315  1B09  B1 17                 LDA (ZEROPAGE_POINTER_1),Y
04316  1B0B  C9 FF                 CMP #$FF                        ;SE COMPARA CON $FF PARA VER SI SE HA LLEGADO
04317  1B0D  F0 38                 BEQ FINCOLOR                    ;AL FINAL DE LA INFORMACIÓN
04318  1B0F             
04319  1B0F  4A                    LSR                             ;SE DESPLAZA 4 POSICIONES A LA DERECHA
04320  1B10  4A                    LSR                             ;PARA QUEDARNOS CON EL NIBBLE ALTO QUE ES EL NÚMERO DE REPETICIONES
04321  1B11  4A                    LSR
04322  1B12  4A                    LSR
04323  1B13  18                    CLC                             ;EL NÚMERO DE REPETICIONES ES UNO MÁS DEL QUE SE INDICA EN EL DATO
04324  1B14  69 01                 ADC #1
04325  1B16  AA                    TAX                             ;SE PASA EL NÚMERO DE REPETICIONES A X
04326  1B17  B1 17                 LDA (ZEROPAGE_POINTER_1),Y      ;SE VUELVE A LEER EL DATO
04327  1B19  29 0F                 AND #$0F                         ;EN A SE QUEDA EL CÓDIGO DEL COLOR
04328  1B1B             
04329  1B1B  EE 9A 2A              INC CONT_ORIGEN                 ;SE INCREMENTA LA POSICIÓN ORIGEN
04330  1B1E  D0 02                 BNE BUCLEDATOCOLOR              ;SI SE HAN COMPLETADO 256 POSICIONES
04331  1B20  E6 18                 INC ZEROPAGE_POINTER_1+1        ;SE INCREMENTA EL ZERO_PAGE EN 256 POSICIONES
04332  1B22             
04333  1B22             BUCLEDATOCOLOR 
04334  1B22  AC 9B 2A              LDY CONT_DESTINO                ;SE CARGA LA POSICIÓN DE MEMORIA DEL DESTINO
04335  1B25  91 19                 STA (ZEROPAGE_POINTER_2),Y      ;SE GUARDA EL COLOR EN MEMORIA
04336  1B27                        
04337  1B27  CE 9C 2A              DEC CONT_BYTES_LINEA            ;SE INCREMENTA EL NÚMERO DE DATOS ESCRITOS
04338  1B2A  D0 0E                 BNE NOFINLINEACOLOR             ;SE COMPRUEBA SI SE HAN ESCRITO 32
04339  1B2C             
04340  1B2C  AD 9B 2A              LDA CONT_DESTINO                ;SE SUMA 8 AL DESTINO PARA SALTARSE LAS 4 ÚLTIMAS POSICIONES DE LÍNEA
04341  1B2F  18                    CLC                             ;Y LAS 4 PRIMERAS DE LA SIGUIENTE
04342  1B30  69 08                 ADC #8
04343  1B32  8D 9B 2A              STA CONT_DESTINO
04344  1B35             
04345  1B35  A9 20                 LDA #32                          ;SE PONE EL CONTADOR DE BYTES POR LINEA A 0
04346  1B37  8D 9C 2A              STA CONT_BYTES_LINEA
04347  1B3A             
04348  1B3A             NOFINLINEACOLOR 
04349  1B3A  EE 9B 2A              INC CONT_DESTINO                ;SE INCREMENTA LA POSICIÓN DE DESTINO
04350  1B3D  D0 02                 BNE NOPASODEPAGINACOLOR
04351  1B3F  E6 1A                 INC ZEROPAGE_POINTER_2+1        ;SE PASA DE PÁGINA DEL ZERO PAGE
04352  1B41             
04353  1B41             NOPASODEPAGINACOLOR 
04354  1B41  CA                    DEX                     ;SE COMPRUEBA SI SE HAN SACADO TODOS LOS COLORES DEL DATO
04355  1B42  F0 C2                 BEQ BUCLECOLORES        ;SI ES ASÍ SE PASA AL SIGUIENTE
04356  1B44                        
04357  1B44  4C 22 1B              JMP BUCLEDATOCOLOR
04358  1B47                        
04359  1B47             FINCOLOR
04360  1B47             
04361  1B47             ;.LOADPLAYSCREENCOLORLOOP1
04362  1B47             ;        LDA (ZEROPAGE_POINTER_1),Y
04363  1B47             ;        STA (ZEROPAGE_POINTER_2),Y
04364  1B47             ;        INY
04365  1B47             ;        BNE .LOADPLAYSCREENCOLORLOOP1
04366  1B47             
04367  1B47             ;        INC ZEROPAGE_POINTER_1+1
04368  1B47             ;        INC ZEROPAGE_POINTER_2+1
04369  1B47             
04370  1B47             ;        LDY #0
04371  1B47             ;.LOADPLAYSCREENCOLORLOOP2
04372  1B47             ;        LDA (ZEROPAGE_POINTER_1),Y
04373  1B47             ;        STA (ZEROPAGE_POINTER_2),Y
04374  1B47             ;        INY
04375  1B47             ;        BNE .LOADPLAYSCREENCOLORLOOP2
04376  1B47             
04377  1B47             ;        INC ZEROPAGE_POINTER_1+1
04378  1B47             ;        INC ZEROPAGE_POINTER_2+1
04379  1B47             
04380  1B47             ;        LDY #0
04381  1B47             ;.LOADPLAYSCREENCOLORLOOP3
04382  1B47             ;        LDA (ZEROPAGE_POINTER_1),Y
04383  1B47             ;        STA (ZEROPAGE_POINTER_2),Y
04384  1B47             ;        INY
04385  1B47             ;        CPY #$80
04386  1B47             ;        BNE .LOADPLAYSCREENCOLORLOOP3
04387  1B47             
04388  1B47                        ;SE ABREN LAS PUERTAS DE LA PANTALLA SI YA SE HABÍAN ABIERTO
04389  1B47  20 6E 12              JSR USAROBJETO
04390  1B4A             
04391  1B4A  AD 43 28              LDA CUR_SCREEN
04392  1B4D  AA                    TAX
04393  1B4E             
04394  1B4E  BD 0F 2A              LDA SCREENS_INFO_TABLE_HI,X
04395  1B51  85 18                 STA ZEROPAGE_POINTER_1+1
04396  1B53  BD 3D 2A              LDA SCREENS_INFO_TABLE_LO,X
04397  1B56  85 17                 STA ZEROPAGE_POINTER_1
04398  1B58             
04399  1B58                        ;SE CARGAN LAS SALIDAS DE LA PANTALLA ACTUAL
04400  1B58  A2 00                 LDX #0
04401  1B5A  A0 00                 LDY #0
04402  1B5C             LOADSALIDAS 
04403  1B5C  B1 17                 LDA (ZEROPAGE_POINTER_1),Y
04404  1B5E  9D 44 28              STA SALIDAS_CURR_SCREEN,X
04405  1B61  C8                    INY
04406  1B62  E8                    INX
04407  1B63  E0 04                 CPX #4
04408  1B65  D0 F5                 BNE LOADSALIDAS
04409  1B67             
04410  1B67                        ;LDA VIC_SPRITE_ENABLE
04411  1B67                        ;AND #$C1        ;DESHABILITAR TODOS LOS SPRITES EXCEPTO EL JUGADOR
04412  1B67  A9 01                 LDA #1
04413  1B69  8D 15 D0              STA VIC_SPRITE_ENABLE
04414  1B6C             
04415  1B6C  A2 01                 LDX #1
04416  1B6E  A9 00                 LDA #0
04417  1B70             BORRAENEMIGOS 
04418  1B70  9D 49 28              STA ENEMY_TYPE,X
04419  1B73  E8                    INX
04420  1B74  E0 08                 CPX #8
04421  1B76  D0 F8                 BNE BORRAENEMIGOS
04422  1B78             
04423  1B78  B1 17                 LDA (ZEROPAGE_POINTER_1),Y
04424  1B7A  8D 48 28              STA ENEMIES_CUR_SCREEN
04425  1B7D  F0 70                 BEQ ENDLOADENEMIES
04426  1B7F  C8                    INY
04427  1B80             
04428  1B80  A2 00                 LDX #0  ;ITERADOR
04429  1B82                        ;INY     ;INDICE PARA IR LEYENDO DATOS
04430  1B82             LOADENEMIES 
04431  1B82  E8                    INX
04432  1B83  B1 17                 LDA (ZEROPAGE_POINTER_1),Y  ;SE LEE EL TIPO DE ENEMIGO
04433  1B85  9D 49 28              STA ENEMY_TYPE,X
04434  1B88  C8                    INY
04435  1B89  B1 17                 LDA (ZEROPAGE_POINTER_1),Y  ;SE LEE EL TIPO DE MOVIMIENTO
04436  1B8B  9D 55 28              STA ENEMY_MOVEMENT,X
04437  1B8E  C8                    INY
04438  1B8F                        ;LDA (ZEROPAGE_POINTER_1),Y  ;SE LEE LA DIRECCION HACIA LA QUE VA INICIALMENTE EL SPRITE
04439  1B8F  A9 FF                 LDA #$FF                     ;TODOS LOS SPRITES EMPIEZAN O YENDO A LA DERECHA O ABAJO
04440  1B91  9D 4F 28              STA ENEMY_DIRECTION,X
04441  1B94                        ;INY
04442  1B94  B1 17                 LDA (ZEROPAGE_POINTER_1),Y  ;SE LEE EL DIVISOR DE MOVIMIENTO DEL SPRITE (VELOCIDAD)
04443  1B96  9D 5B 28              STA ENEMY_MOV_DELAY,X
04444  1B99  9D 61 28              STA ENEMY_MOV_DELAY_CUR,X
04445  1B9C  C8                    INY
04446  1B9D  B1 17                 LDA (ZEROPAGE_POINTER_1),Y  ;SE LEE EL RETARDO EN LA ANIMACIÓN DEL SPRITE
04447  1B9F  9D 67 28              STA ENEMY_ANIM_DELAY,X     ;SE ESCRIBE TAMBIÉN COMO VALOR ACTUAL
04448  1BA2  9D 6D 28              STA ENEMY_ANIM_DELAY_CUR,X
04449  1BA5  C8                    INY
04450  1BA6  B1 17                 LDA (ZEROPAGE_POINTER_1),Y  ;SE LEE EL COLOR DEL SPRITE
04451  1BA8  9D 73 28              STA ENEMY_COLOR,X
04452  1BAB             
04453  1BAB  BD 49 28              LDA ENEMY_TYPE,X
04454  1BAE  C9 0F                 CMP #SP_DIAMANTE_L
04455  1BB0  F0 04                 BEQ PONERCOLORDIAMANTE
04456  1BB2  C9 10                 CMP #SP_DIAMANTE_R
04457  1BB4  D0 06                 BNE CARGARCOORDENADAS
04458  1BB6             
04459  1BB6             PONERCOLORDIAMANTE 
04460  1BB6  AD 9F 2A              LDA COLOR_DIAMANTE
04461  1BB9  9D 73 28              STA ENEMY_COLOR,X
04462  1BBC             
04463  1BBC             CARGARCOORDENADAS 
04464  1BBC  C8                    INY
04465  1BBD  B1 17                 LDA (ZEROPAGE_POINTER_1),Y  ;SE LEE LA COORDENADA X DE INICIO
04466  1BBF  9D 79 28              STA ENEMY_INI_X_POS,X
04467  1BC2  9D 85 28              STA ENEMY_END_X_POS,X
04468  1BC5  C8                    INY
04469  1BC6  B1 17                 LDA (ZEROPAGE_POINTER_1),Y  ;SE LEE LA COORDENADA Y DE INICIO
04470  1BC8  9D 7F 28              STA ENEMY_INI_Y_POS,X
04471  1BCB  9D 8B 28              STA ENEMY_END_Y_POS,X
04472  1BCE  C8                    INY
04473  1BCF             
04474  1BCF  BD 55 28              LDA ENEMY_MOVEMENT,X        ;SI EL ENEMIGO NO SE MUEVE NO SE CARGAN LAS COORDENADAS DE FIN
04475  1BD2  F0 13                 BEQ PONERSPRITE
04476  1BD4             
04477  1BD4                        ;SI ES MOVIMIENTO SP_D O SP_UD HAY QUE CARGAR LA COORDENADA Y (LA X NO CAMBIA)
04478  1BD4  C9 03                 CMP #SP_UD
04479  1BD6  10 09                 BPL CARGACOORDENADAY
04480  1BD8             
04481  1BD8                        ;SE CARGA LA COORDENADA X FINAL PARA LOS CASOS DE MOVIMIENTO SP_R Y SP_LR
04482  1BD8  B1 17                 LDA (ZEROPAGE_POINTER_1),Y  ;SE LEE LA COORDENADA X DE FIN
04483  1BDA  9D 85 28              STA ENEMY_END_X_POS,X
04484  1BDD  C8                    INY
04485  1BDE  4C E7 1B              JMP PONERSPRITE
04486  1BE1             
04487  1BE1             CARGACOORDENADAY 
04488  1BE1                        ;SE CARGA LA COORDENADA Y FINAL PARA LOS CASOS DE MOVIMIENTO SP_D Y SP_UD
04489  1BE1  B1 17                 LDA (ZEROPAGE_POINTER_1),Y  ;SE LEE LA COORDENADA Y DE FIN
04490  1BE3  9D 8B 28              STA ENEMY_END_Y_POS,X
04491  1BE6  C8                    INY
04492  1BE7             
04493  1BE7             PONERSPRITE 
04494  1BE7  20 F3 1B              JSR COLOCARSPRITE
04495  1BEA             
04496  1BEA  EC 48 28              CPX ENEMIES_CUR_SCREEN
04497  1BED  D0 93                 BNE LOADENEMIES
04498  1BEF             
04499  1BEF             ENDLOADENEMIES 
04500  1BEF                        ;JSR MOSTRARINVENTARIO
04501  1BEF             
04502  1BEF  68                    PLA
04503  1BF0  85 01                 STA $01
04504  1BF2             ;        CLI
04505  1BF2             
04506  1BF2                        ;SE HABILITA LA PANTALLA
04507  1BF2             ;        LDA VIC_SCREEN_CONTROL
04508  1BF2             ;        ORA #$10
04509  1BF2             ;        STA VIC_SCREEN_CONTROL
04510  1BF2             
04511  1BF2  60                    RTS
04512  1BF3                        
04513  1BF3             
04514  1BF3             
04515  1BF3             
04516  1BF3             COLOCARSPRITE 
04517  1BF3  BD 79 28              LDA ENEMY_INI_X_POS,X   ;SE CARGAN LAS POSICIONES X E Y DE INICIO DEL SPRITE
04518  1BF6  85 03                 STA PARAM1
04519  1BF8  BD 7F 28              LDA ENEMY_INI_Y_POS,X
04520  1BFB  85 04                 STA PARAM2
04521  1BFD  98                    TYA                     ;ALMACENA Y EN EL ACUMULADOR
04522  1BFE  48                    PHA                     ;SE ALMACENA Y EN LA PILA
04523  1BFF  20 39 19              JSR CALCSPRITEPOSFROMCHARPOS
04524  1C02  68                    PLA                     ;SE RECUPERA Y DE LA PILA
04525  1C03  A8                    TAY                     ;SE CARGA EN Y
04526  1C04             
04527  1C04  20 D2 23              JSR CARGARSPRITE
04528  1C07             
04529  1C07                        ;SET SPRITE COLOR
04530  1C07  BD 73 28              LDA ENEMY_COLOR,X
04531  1C0A  9D 27 D0              STA SPRITE_COLOR_BASE,X
04532  1C0D             
04533  1C0D                        ;ENABLE SPRITES
04534  1C0D  38                    SEC                     ;SE PONE EL CARRY A 1
04535  1C0E  2E 15 D0              ROL VIC_SPRITE_ENABLE   ;SE ROTA LA HABILITACIÓN DE SPRITES AÑADIENDO EL SPRITE NUEVO
04536  1C11                        ;DESDE EL CARRY
04537  1C11  60                    RTS
04538  1C12             
04539  1C12             
04540  1C12             ;========================================================
04541  1C12             ; WAITFRAME
04542  1C12             ;========================================================
04543  1C12                        ;WAIT FOR THE RASTER TO REACH LINE $F8
04544  1C12                        ;THIS IS KEEPING OUR TIMING STABLE
04545  1C12                        
04546  1C12                        ;ARE WE ON LINE $F8 ALREADY? IF SO, WAIT FOR THE NEXT FULL SCREEN
04547  1C12                        ;PREVENTS MISTIMINGS IF CALLED TOO FAST
04548  1C12             WAITFRAME  
04549  1C12  AD 12 D0              LDA $D012
04550  1C15  C9 F8                 CMP #$F8
04551  1C17  F0 F9                 BEQ WAITFRAME
04552  1C19             
04553  1C19                        ;WAIT FOR THE RASTER TO REACH LINE $F8 (SHOULD BE CLOSER TO THE START OF THIS LINE THIS WAY)
04554  1C19             .WAITSTEP2 
04555  1C19  AD 12 D0              LDA $D012
04556  1C1C  C9 F8                 CMP #$F8
04557  1C1E  D0 F9                 BNE .WAITSTEP2
04558  1C20             
04559  1C20  20 84 26              JSR PLAYPICKEDFX
04560  1C23                        
04561  1C23  60                    RTS
04562  1C24             
04563  1C24             WAITFRAME2 
04564  1C24  AD 12 D0              LDA $D012
04565  1C27  C9 F8                 CMP #$F8
04566  1C29  F0 F9                 BEQ WAITFRAME2
04567  1C2B             
04568  1C2B                        ;WAIT FOR THE RASTER TO REACH LINE $F8 (SHOULD BE CLOSER TO THE START OF THIS LINE THIS WAY)
04569  1C2B             .WAITSTEP22 
04570  1C2B  AD 12 D0              LDA $D012
04571  1C2E  C9 F8                 CMP #$F8
04572  1C30  D0 F9                 BNE .WAITSTEP22
04573  1C32             
04574  1C32                        ;PLAY MUSIC
04575  1C32  20 03 2C              JSR MUSIC_PLAYER + 3
04576  1C35  60                    RTS
04577  1C36             
04578  1C36             
04579  1C36             ;========================================================
04580  1C36             ; COPYCHARSET
04581  1C36             ;  ZEROPAGE_POINTER_1 -> DIRECCIÓN DEL CHARSET A COPIAR
04582  1C36             ;========================================================
04583  1C36             COPYCHARSET 
04584  1C36  A5 05                 LDA PARAM3      ;SE GUARDA PARAM3 PORQUE SE USA EN OTROS SITIOS
04585  1C38  48                    PHA
04586  1C39             
04587  1C39                        ;SET TARGET ADDRESS ($F800)
04588  1C39  A9 00                 LDA #$00
04589  1C3B  85 19                 STA ZEROPAGE_POINTER_2
04590  1C3D  A9 F8                 LDA #$F8
04591  1C3F  85 1A                 STA ZEROPAGE_POINTER_2 + 1
04592  1C41             
04593  1C41  A2 00                 LDX #$00
04594  1C43  A0 00                 LDY #$00
04595  1C45  A9 00                 LDA #0
04596  1C47  85 05                 STA PARAM3
04597  1C49             
04598  1C49             .NEXTLINE
04599  1C49  B1 17                 LDA (ZEROPAGE_POINTER_1),Y
04600  1C4B  91 19                 STA (ZEROPAGE_POINTER_2),Y
04601  1C4D  E8                    INX
04602  1C4E  C8                    INY
04603  1C4F  E0 08                 CPX #$08
04604  1C51  D0 F6                 BNE .NEXTLINE
04605  1C53  C0 00                 CPY #$00
04606  1C55  D0 04                 BNE .PAGEBOUNDARYNOTREACHED
04607  1C57                        
04608  1C57                        ;WE'VE REACHED THE NEXT 256 BYTES, INC HIGH BYTE
04609  1C57  E6 18                 INC ZEROPAGE_POINTER_1 + 1
04610  1C59  E6 1A                 INC ZEROPAGE_POINTER_2 + 1
04611  1C5B             
04612  1C5B             .PAGEBOUNDARYNOTREACHED 
04613  1C5B             
04614  1C5B                        ;ONLY COPY 254 CHARS TO KEEP IRQ VECTORS INTACT
04615  1C5B  E6 05                 INC PARAM3
04616  1C5D  A5 05                 LDA PARAM3
04617  1C5F  C9 FE                 CMP #254
04618  1C61  F0 05                 BEQ .COPYCHARSETDONE
04619  1C63  A2 00                 LDX #$00
04620  1C65  4C 49 1C              JMP .NEXTLINE
04621  1C68             
04622  1C68             .COPYCHARSETDONE 
04623  1C68  68                    PLA             ;SE RECUPERA PARAM3
04624  1C69  85 05                 STA PARAM3
04625  1C6B  60                    RTS
04626  1C6C             
04627  1C6C             ;========================================================
04628  1C6C             ; COPYSPRITES
04629  1C6C             ;  ZEROPAGE_POINTER_1 -> DIRECCIÓN DE LOS SPRITES A COPIAR
04630  1C6C             ;========================================================
04631  1C6C             COPYSPRITES 
04632  1C6C                        ;TAKE SOURCE ADDRESS FROM SPRITES
04633  1C6C  A9 40                 LDA #<SPRITES
04634  1C6E  85 17                 STA ZEROPAGE_POINTER_1
04635  1C70  A9 5F                 LDA #>SPRITES
04636  1C72  85 18                 STA ZEROPAGE_POINTER_1 + 1
04637  1C74             
04638  1C74  A0 00                 LDY #$00
04639  1C76  A2 00                 LDX #$00
04640  1C78                        
04641  1C78  A9 00                 LDA #00
04642  1C7A  85 19                 STA ZEROPAGE_POINTER_2
04643  1C7C  A9 D0                 LDA #$D0
04644  1C7E  85 1A                 STA ZEROPAGE_POINTER_2 + 1
04645  1C80                        
04646  1C80                        ;4 SPRITES PER LOOP
04647  1C80             .SPRITELOOP 
04648  1C80  B1 17                 LDA (ZEROPAGE_POINTER_1),Y
04649  1C82  91 19                 STA (ZEROPAGE_POINTER_2),Y
04650  1C84  C8                    INY
04651  1C85  D0 F9                 BNE .SPRITELOOP
04652  1C87  E8                    INX
04653  1C88  E6 18                 INC ZEROPAGE_POINTER_1+1
04654  1C8A  E6 1A                 INC ZEROPAGE_POINTER_2+1
04655  1C8C  E0 23                 CPX #NUMBER_OF_SPRITES_DIV_4
04656  1C8E  D0 F0                 BNE .SPRITELOOP
04657  1C90             
04658  1C90  60                    RTS
04659  1C91             
04660  1C91             ;========================================================
04661  1C91             ; COPYBITMAPCOLOR
04662  1C91             ;  COPIA EL COLOR DEL BITMAP DE LA PARTE INFERIOR DE LA PANTALLA
04663  1C91             ;========================================================
04664  1C91             COPYBITMAPCOLOR 
04665  1C91  A9 AA                 LDA #<BITMAP_COLOR_DATA
04666  1C93  85 17                 STA ZEROPAGE_POINTER_1
04667  1C95  A9 34                 LDA #>BITMAP_COLOR_DATA
04668  1C97  85 18                 STA ZEROPAGE_POINTER_1 + 1
04669  1C99             
04670  1C99  A0 00                 LDY #$00
04671  1C9B                        
04672  1C9B  A9 F8                 LDA #<BITMAP_SCREEN_COLOR
04673  1C9D  85 19                 STA ZEROPAGE_POINTER_2
04674  1C9F  A9 06                 LDA #>BITMAP_SCREEN_COLOR
04675  1CA1  85 1A                 STA ZEROPAGE_POINTER_2 + 1
04676  1CA3                        
04677  1CA3             COPYLOOP
04678  1CA3  B1 17                 LDA (ZEROPAGE_POINTER_1),Y
04679  1CA5  91 19                 STA (ZEROPAGE_POINTER_2),Y
04680  1CA7  C8                    INY
04681  1CA8  C0 F0                 CPY #240
04682  1CAA  D0 F7                 BNE COPYLOOP
04683  1CAC             ;=============================================================
04684  1CAC             ;CHECK JOYSTICK (PLAYER CONTROL)
04685  1CAC             ;=============================================================
04686  1CAC             PLAYERCONTROL 
04687  1CAC             ;        LDA PLAYER_MOV_DELAY
04688  1CAC             ;        BEQ DOPLAYERCOTROL
04689  1CAC             ;        DEC PLAYER_MOV_DELAY
04690  1CAC             ;        RTS
04691  1CAC             
04692  1CAC             DOPLAYERCOTROL 
04693  1CAC             ;        LDA #CONST_PLAYER_MOV_DELAY
04694  1CAC             ;        STA PLAYER_MOV_DELAY
04695  1CAC             
04696  1CAC  A2 00                 LDX #0        ;INDICE DEL SPRITE ES EL 0
04697  1CAE             
04698  1CAE  AD F9 28              LDA PLAYER_JUMP_POS   ;SE COMPRUEBA LA POSICIÓN DE SALTO
04699  1CB1  F0 45                 BEQ .NOTJUMPING  ;SI NO ES 0 ES PORQUE SE ESTÁ SALTANDO
04700  1CB3             
04701  1CB3             .PLAYERISJUMPING 
04702  1CB3  EE F9 28              INC PLAYER_JUMP_POS   ;SE INCREMENTA 1 LA POSICIÓN DE SALTO
04703  1CB6  AD F9 28              LDA PLAYER_JUMP_POS
04704  1CB9  CD FA 28              CMP PLAYER_CURR_JUMP_TABLE_LENGTH            ;SE COMPRUEBA SI SE HA LLEGADO AL FINAL DE LA TABLA
04705  1CBC  D0 0B                 BNE .JUMPON
04706  1CBE                        
04707  1CBE  A9 00                 LDA #0                ;EL SALTO HA TERMINADO
04708  1CC0  8D F9 28              STA PLAYER_JUMP_POS
04709  1CC3  20 27 19              JSR ANIMATEPLAYERLOOKRIGHT
04710  1CC6  4C 8A 1D              JMP .JUMPCOMPLETE
04711  1CC9                        
04712  1CC9             .JUMPON    
04713  1CC9  AC F9 28              LDY PLAYER_JUMP_POS
04714  1CCC                        
04715  1CCC  AD FA 28              LDA PLAYER_CURR_JUMP_TABLE_LENGTH
04716  1CCF  C9 14                 CMP #JUMP_TABLE_SIZE_LONG     ;SE COMPRUEBA SI SE HA HECHO UN SALTO LARGO
04717  1CD1  D0 06                 BNE SHORTJUMP
04718  1CD3  B9 08 29              LDA PLAYER_JUMP_TABLE_LONG,Y  ;SE CARGA EL VALOR DE SALTO LARGO
04719  1CD6                        
04720  1CD6  4C DC 1C              JMP CHECK
04721  1CD9             SHORTJUMP
04722  1CD9  B9 FB 28              LDA PLAYER_JUMP_TABLE_SHORT,Y ;SE CARGA EL VALOR DE SALTO CORTO
04723  1CDC  D0 01      CHECK      BNE .CONTINUEJUMP
04724  1CDE  60                    RTS
04725  1CDF             
04726  1CDF             .CONTINUEJUMP 
04727  1CDF  85 07                 STA PARAM5                    ;SE ALMACENA EL VALOR DEL SALTO EN PARAM5
04728  1CE1                        
04729  1CE1             .JUMPCONTINUE 
04730  1CE1  20 2D 0E              JSR SPRITEMOVEUP      ;SE MUEVE HACIA ARRIBA Y SE COMPRUEBA SI SE CHOCA
04731  1CE4  F0 0A                 BEQ .JUMPBLOCKED
04732  1CE6                        
04733  1CE6  20 8B 1D              JSR CHECKDIAGONAL
04734  1CE9             
04735  1CE9  C6 07                 DEC PARAM5            ;SE DECREMENTA EL VALOR DEL SALTO
04736  1CEB  D0 F4                 BNE .JUMPCONTINUE     ;SE CONTINUA SI NO SE HA LLEGADO EL FINAL DEL SALTO
04737  1CED  4C 8A 1D              JMP .JUMPCOMPLETE     ;SE LLEGA AL FINAL DEL SALTO
04738  1CF0             
04739  1CF0             .JUMPBLOCKED 
04740  1CF0  A9 00                 LDA #0                ;SI SE CHOCA CON ALGO SE PARA EL SALTO
04741  1CF2  8D F9 28              STA PLAYER_JUMP_POS
04742  1CF5  4C 8A 1D              JMP .JUMPSTOPPED
04743  1CF8             
04744  1CF8             .NOTJUMPING 
04745  1CF8  20 94 0E              JSR SPRITEMOVEDOWN    ;SE COMPRUEBA SI SE ESTÁ CAYENDO
04746  1CFB  F0 03                 BEQ .NOTFALLING       ;SI NO SE ESTÁ CAYENDO (NI SALTANDO) SE COMPRUEBA EL JOYSTICK
04747  1CFD                        
04748  1CFD                        ;PLAYER FELL ONE PIXEL
04749  1CFD  4C 69 1D              JMP .PLAYERFELL       ;SE HACE QUE CAIGA UN PIXEL
04750  1D00             
04751  1D00             .NOTFALLING 
04752  1D00  A9 00                 LDA #0                ;SI NO SE CAE SE PONE LA POSICIÓN DE CAIDA A 0
04753  1D02  8D 1C 29              STA PLAYER_FALL_POS
04754  1D05             
04755  1D05             ;CHECK UP
04756  1D05             .CHECKUP   
04757  1D05  A9 00                 LDA #$0
04758  1D07  85 05                 STA PARAM3    ;SE BORRA PARAM3 PORQUE YA NO SE SALTA
04759  1D09             
04760  1D09  20 A2 1D              JSR LEERJOYSTICKYTECLADO
04761  1D0C             
04762  1D0C             ;          LDA #$1               ;SE COMPRUEBA SI SE PULSA ARRIBA
04763  1D0C             ;          BIT JOYSTICK
04764  1D0C             ;          BNE .CHECKDOWN
04765  1D0C             ;          LDA #JUMP_TABLE_SIZE_LONG     ;SE CARGA EL TAMAÑO DE LA TABLA DE SALTO LARGO
04766  1D0C             ;          STA PLAYER_CURR_JUMP_TABLE_LENGTH
04767  1D0C             ;          JSR ANIMATEPLAYERJUMP
04768  1D0C             ;          JMP .CHECKDIAGONAL
04769  1D0C             
04770  1D0C             ;;CHECK DOWN
04771  1D0C             ;.CHECKDOWN
04772  1D0C             ;          LDA #$2               ;SE COMPRUEBA SI SE PULSA ABAJO
04773  1D0C             ;          BIT JOYSTICK
04774  1D0C             ;          BNE .CHECKLEFT
04775  1D0C             ;          LDA #JUMP_TABLE_SIZE_SHORT        ;SE CARGA EL TAMAÑO DE LA TABLA DE SALTO CORTO
04776  1D0C             ;          STA PLAYER_CURR_JUMP_TABLE_LENGTH
04777  1D0C             ;          JSR ANIMATEPLAYERJUMP
04778  1D0C             
04779  1D0C  A9 11                 LDA #$11               ;SE COMPRUEBA SI SE PULSA ARRIBA Y FUEGO
04780  1D0E  2C A6 2A              BIT CONTROL_MOVIMIENTO
04781  1D11  D0 0B                 BNE .CHECKDOWN
04782  1D13  A9 0D                 LDA #JUMP_TABLE_SIZE_SHORT     ;SE CARGA EL TAMAÑO DE LA TABLA DE SALTO LARGO
04783  1D15  8D FA 28              STA PLAYER_CURR_JUMP_TABLE_LENGTH
04784  1D18  20 10 19              JSR ANIMATEPLAYERJUMP
04785  1D1B  4C 2D 1D              JMP .CHECKDIAGONAL
04786  1D1E             
04787  1D1E             ;CHECK DOWN
04788  1D1E             .CHECKDOWN 
04789  1D1E  A9 01                 LDA #$01               ;SE COMPRUEBA SI SE PULSA ARRIBA
04790  1D20  2C A6 2A              BIT CONTROL_MOVIMIENTO
04791  1D23  D0 2A                 BNE .CHECKLEFT
04792  1D25  A9 14                 LDA #JUMP_TABLE_SIZE_LONG        ;SE CARGA EL TAMAÑO DE LA TABLA DE SALTO LARGO
04793  1D27  8D FA 28              STA PLAYER_CURR_JUMP_TABLE_LENGTH
04794  1D2A  20 10 19              JSR ANIMATEPLAYERJUMP
04795  1D2D             
04796  1D2D             .CHECKDIAGONAL 
04797  1D2D  A9 04                 LDA #$04      ;COMPRUEBA SI SE PULSA DIAGONAL IZQUIERDA A LA VEZ
04798  1D2F  2C A6 2A              BIT CONTROL_MOVIMIENTO
04799  1D32  D0 0A                 BNE .CHECKDOWNRIGHT
04800  1D34  A9 01                 LDA #1        ;SE CARGA 1 EN PARAM3 SI SE PULSA DIAGONAL IZQUIERDA
04801  1D36  85 05                 STA PARAM3
04802  1D38  20 1B 19              JSR ANIMATEPLAYERJUMPLEFT
04803  1D3B  4C 4C 1D              JMP .ENDCHECKDOWN          ;SE PASA A SALTAR
04804  1D3E             .CHECKDOWNRIGHT 
04805  1D3E  A9 08                 LDA #$8       ;COMPRUEBA SI SE PULSA DIAGONAL DERECHA
04806  1D40  2C A6 2A              BIT CONTROL_MOVIMIENTO
04807  1D43  D0 07                 BNE .ENDCHECKDOWN
04808  1D45  A9 02                 LDA #2        ;SE CARGA 2 EN PARAM3 SI SE PULSA DIAGONAL IZQUIERDA
04809  1D47  85 05                 STA PARAM3
04810  1D49  20 21 19              JSR ANIMATEPLAYERJUMPRIGHT
04811  1D4C             .ENDCHECKDOWN 
04812  1D4C  4C B3 1C              JMP .PLAYERISJUMPING          ;SE PASA A SALTAR
04813  1D4F             
04814  1D4F             ;CHECK LEFT
04815  1D4F             .CHECKLEFT 
04816  1D4F  A9 04                 LDA #$04              ;SE COMPRUEBA SI SE PULSA IZQUIERDA
04817  1D51  2C A6 2A              BIT CONTROL_MOVIMIENTO
04818  1D54  D0 06                 BNE .CHECKRIGHT
04819  1D56  20 69 0D              JSR SPRITEMOVELEFT
04820  1D59  20 BC 18              JSR ANIMATEPLAYERLEFT
04821  1D5C             
04822  1D5C             ;CHECK RIGHT
04823  1D5C             .CHECKRIGHT 
04824  1D5C  A9 08                 LDA #$08              ;SE COMPRUEBA SI SE PULSA DERECHA
04825  1D5E  2C A6 2A              BIT CONTROL_MOVIMIENTO
04826  1D61  D0 27                 BNE .NODIRECTIONPRESSED
04827  1D63  20 CB 0D              JSR SPRITEMOVERIGHT
04828  1D66  20 E6 18              JSR ANIMATEPLAYERRIGHT
04829  1D69             
04830  1D69             .PLAYERFELL 
04831  1D69  AC 1C 29              LDY PLAYER_FALL_POS           ;SE CARGA EN PARAM5 EL VALOR DEL SIGUIENTE VALOR DE CAIDA
04832  1D6C  B9 1D 29              LDA FALL_SPEED_TABLE,Y
04833  1D6F  F0 0F                 BEQ .FALLCOMPLETE
04834  1D71  85 07                 STA PARAM5
04835  1D73             
04836  1D73             .FALLLOOP  
04837  1D73  C6 07                 DEC PARAM5                    ;SE CAE HASTA QUE SE TERMINE EL LOOP
04838  1D75  F0 09                 BEQ .FALLCOMPLETE
04839  1D77             
04840  1D77  20 8B 1D              JSR CHECKDIAGONAL
04841  1D7A                        
04842  1D7A  20 94 0E              JSR SPRITEMOVEDOWN
04843  1D7D  4C 73 1D              JMP .FALLLOOP
04844  1D80                        
04845  1D80             .FALLCOMPLETE 
04846  1D80  AD 1C 29              LDA PLAYER_FALL_POS           ;SE COMPRUEBA SI SE HA LLEGADO AL FINAL DE LA TABLA DE CAIDA
04847  1D83  C9 09                 CMP #9
04848  1D85  F0 03                 BEQ .FALLSPEEDATMAX
04849  1D87                        
04850  1D87  EE 1C 29              INC PLAYER_FALL_POS
04851  1D8A             
04852  1D8A             .NODIRECTIONPRESSED 
04853  1D8A                        ;JSR ANIMATEPLAYERLOOKRIGHT
04854  1D8A             
04855  1D8A             .JUMPSTOPPED 
04856  1D8A             
04857  1D8A             .JUMPCOMPLETE 
04858  1D8A             .FALLSPEEDATMAX 
04859  1D8A  60                    RTS
04860  1D8B             
04861  1D8B             ;------------------------------------------------------------
04862  1D8B             ;CHECKDIAGONAL - COMPRUEBA SI SE HA PULSADO DIAGONAL EN EL SALTO Y CAÍDA
04863  1D8B             ;       PARAM3 - 1 SI ES DIAGONAL IZQUIERDA
04864  1D8B             ;              - 2 DIAGONAL DERECHA
04865  1D8B             ;              - CUALQUIER OTRO VALOR NO HACE NADA
04866  1D8B             ;------------------------------------------------------------
04867  1D8B             CHECKDIAGONAL 
04868  1D8B  A5 05                 LDA PARAM3            ;SE COMPRUEBA EL VALOR DE PARAM3 PARA DIAGONALES
04869  1D8D  C9 01                 CMP #1
04870  1D8F  F0 0D                 BEQ .FALLMOVELEFT         ;CAIDA DIAGONAL IZQUIERDA
04871  1D91  C9 02                 CMP #2
04872  1D93  F0 03                 BEQ .FALLMOVERIGHT        ;CAIDA DIAGONAL DERECHA
04873  1D95  4C A1 1D              JMP .ENDCHECKDIAGONAL
04874  1D98                        
04875  1D98             .FALLMOVERIGHT 
04876  1D98                        ;JSR ANIMATEPLAYERJUMPRIGHT
04877  1D98  20 CB 0D              JSR SPRITEMOVERIGHT
04878  1D9B  4C A1 1D              JMP .ENDCHECKDIAGONAL
04879  1D9E             .FALLMOVELEFT 
04880  1D9E                        ;JSR ANIMATEPLAYERJUMPLEFT
04881  1D9E  20 69 0D              JSR SPRITEMOVELEFT
04882  1DA1             .ENDCHECKDIAGONAL 
04883  1DA1  60                    RTS
04884  1DA2             
04885  1DA2             
04886  1DA2             ;DISPLAYCODE
04887  1DA2             ;        TAX
04888  1DA2             ;        AND #%10000000
04889  1DA2             ;        STA SCREEN_CHAR
04890  1DA2             ;        LDA $1
04891  1DA2             ;        STA SCREEN_COLOR
04892  1DA2             ;        TXA
04893  1DA2             
04894  1DA2             ;        AND #%010000000
04895  1DA2             ;        STA SCREEN_CHAR+1
04896  1DA2             ;        LDA $1
04897  1DA2             ;        STA SCREEN_COLOR+1
04898  1DA2             ;        TXA
04899  1DA2             ;        AND #%00100000
04900  1DA2             ;        STA SCREEN_CHAR+2
04901  1DA2             ;        LDA $1
04902  1DA2             ;        STA SCREEN_COLOR+2
04903  1DA2             ;        TXA
04904  1DA2             ;        AND #%00010000
04905  1DA2             ;        STA SCREEN_CHAR+3
04906  1DA2             ;        LDA $1
04907  1DA2             ;        STA SCREEN_COLOR+3
04908  1DA2             ;        TXA
04909  1DA2             ;        AND #%00001000
04910  1DA2             ;        STA SCREEN_CHAR+4
04911  1DA2             ;        LDA $1
04912  1DA2             ;        STA SCREEN_COLOR+4
04913  1DA2             ;        TXA
04914  1DA2             ;        AND #%00000100
04915  1DA2             ;        STA SCREEN_CHAR+5
04916  1DA2             ;        LDA $1
04917  1DA2             ;        STA SCREEN_COLOR+5
04918  1DA2             ;        TXA
04919  1DA2             ;        AND #%00000010
04920  1DA2             ;        STA SCREEN_CHAR+6
04921  1DA2             ;        LDA $1
04922  1DA2             ;        STA SCREEN_COLOR+6
04923  1DA2             ;        TXA
04924  1DA2             ;        AND #%00000001
04925  1DA2             ;        STA SCREEN_CHAR+7
04926  1DA2             ;        LDA $1
04927  1DA2             ;        STA SCREEN_COLOR+7
04928  1DA2             ;        TXA
04929  1DA2             
04930  1DA2             ;        RTS
04931  1DA2             
04932  1DA2             ;------------------------------------------------------------
04933  1DA2             ;LEERJOYSTICKYTECLADO - LEE EL JOYSTICK Y EL TECLADO PARA MOVER AL PERSONAJE
04934  1DA2             ;       MODIFICA LA VARIABLE CONTROL_MOVIMIENTO CON LOS DATOS DEL MOVIMIENTO
04935  1DA2             ;------------------------------------------------------------
04936  1DA2             LEERJOYSTICKYTECLADO 
04937  1DA2             
04938  1DA2             COMPRUEBATECLADO 
04939  1DA2             ;        LDA #$FF
04940  1DA2             ;        STA CIA_DATA_DIRECTION_A
04941  1DA2             ;        LDA #$00
04942  1DA2             ;        STA CIA_DATA_DIRECTION_B
04943  1DA2             
04944  1DA2  A9 EF                 LDA #%11101111  ;FILA 4
04945  1DA4  8D 00 DC              STA CIA_PORT_A
04946  1DA7  AD 01 DC              LDA CIA_PORT_B
04947  1DAA  C9 BF                 CMP #%10111111  ;COLUMNA 6
04948  1DAC  D0 0C                 BNE SEGUIR      ;SE HA PULSADO O
04949  1DAE             
04950  1DAE  A9 3F                 LDA #%0111111  ;FILAS 7
04951  1DB0  8D 00 DC              STA CIA_PORT_A
04952  1DB3  AD 01 DC              LDA CIA_PORT_B
04953  1DB6                        ;JSR DISPLAYCODE
04954  1DB6  C9 BF                 CMP #%10111111  ;COLUMNA 6
04955  1DB8  F0 5B                 BEQ OYQ         ;SE HA PULSADO O Y Q
04956  1DBA             
04957  1DBA             SEGUIR
04958  1DBA  A9 ED                 LDA #%11101101  ;FILAS 4 Y 1
04959  1DBC  8D 00 DC              STA CIA_PORT_A
04960  1DBF  AD 01 DC              LDA CIA_PORT_B
04961  1DC2  C9 BB                 CMP #%10111011  ;COLUMNAS 2 Y 6
04962  1DC4  F0 54                 BEQ OYA         ;SE HA PULSADO O Y A A LA VEZ
04963  1DC6             
04964  1DC6  A9 5F                 LDA #%01011111  ;FILAS 5 Y 7
04965  1DC8  8D 00 DC              STA CIA_PORT_A
04966  1DCB  AD 01 DC              LDA CIA_PORT_B
04967  1DCE  C9 BD                 CMP #%10111101  ;COLUMNAS 1 Y 6
04968  1DD0  F0 4D                 BEQ PYQ         ;SE HA PULSADO P Y Q A LA VEZ
04969  1DD2             
04970  1DD2  A9 DD                 LDA #%11011101  ;FILAS 5 Y 1
04971  1DD4  8D 00 DC              STA CIA_PORT_A
04972  1DD7  AD 01 DC              LDA CIA_PORT_B
04973  1DDA  C9 F9                 CMP #%11111001  ;COLUMNAS 1 Y 2
04974  1DDC  F0 46                 BEQ PYA         ;SE HA PULSADO P Y A A LA VEZ
04975  1DDE             
04976  1DDE  A9 FD                 LDA #%11111101  ;FILA Y 1
04977  1DE0  8D 00 DC              STA CIA_PORT_A
04978  1DE3  AD 01 DC              LDA CIA_PORT_B
04979  1DE6  C9 FB                 CMP #%11111011  ;COLUMNA 2
04980  1DE8  F0 44                 BEQ PULSADOA    ;SE HA PULSADO A
04981  1DEA             
04982  1DEA  A9 EF                 LDA #%11101111  ;FILA 4
04983  1DEC  8D 00 DC              STA CIA_PORT_A
04984  1DEF  AD 01 DC              LDA CIA_PORT_B
04985  1DF2  C9 BF                 CMP #%10111111  ;COLUMNA 6
04986  1DF4  F0 33                 BEQ PULSADOO    ;SE HA PULSADO O
04987  1DF6             
04988  1DF6  A9 DF                 LDA #%11011111  ;FILA 5
04989  1DF8  8D 00 DC              STA CIA_PORT_A
04990  1DFB  AD 01 DC              LDA CIA_PORT_B
04991  1DFE  C9 FD                 CMP #%11111101  ;COLUMNA 1
04992  1E00  F0 31                 BEQ PULSADOP    ;SE HA PULSADO P
04993  1E02             
04994  1E02  A9 7F                 LDA #%01111111  ;FILA 7
04995  1E04  8D 00 DC              STA CIA_PORT_A
04996  1E07  AD 01 DC              LDA CIA_PORT_B
04997  1E0A  C9 BF                 CMP #%10111111  ;COLUMNA 6
04998  1E0C  F0 2A                 BEQ PULSADOQ    ;SE HA PULSADO Q
04999  1E0E             
05000  1E0E  AD 00 DC              LDA JOYSTICK
05001  1E11  4C 3A 1E              JMP SALIR
05002  1E14  60                    RTS
05003  1E15             
05004  1E15             OYQ
05005  1E15  A9 FA                 LDA #%11111010
05006  1E17  4C 3A 1E              JMP SALIR
05007  1E1A             
05008  1E1A             OYA
05009  1E1A  A9 EA                 LDA #%11101010
05010  1E1C  4C 3A 1E              JMP SALIR
05011  1E1F             
05012  1E1F             PYQ
05013  1E1F  A9 F6                 LDA #%11110110
05014  1E21  4C 3A 1E              JMP SALIR
05015  1E24             
05016  1E24             PYA
05017  1E24  A9 E6                 LDA #%11100110
05018  1E26  4C 3A 1E              JMP SALIR
05019  1E29             
05020  1E29             PULSADOO
05021  1E29  A9 FB                 LDA #%11111011
05022  1E2B  4C 3A 1E              JMP SALIR
05023  1E2E             
05024  1E2E             PULSADOA
05025  1E2E  A9 EE                 LDA #%11101110
05026  1E30  4C 3A 1E              JMP SALIR
05027  1E33             
05028  1E33             PULSADOP
05029  1E33  A9 F7                 LDA #%11110111
05030  1E35  4C 3A 1E              JMP SALIR
05031  1E38             
05032  1E38             PULSADOQ
05033  1E38  A9 FE                 LDA #%11111110
05034  1E3A             
05035  1E3A             SALIR
05036  1E3A  8D A6 2A              STA CONTROL_MOVIMIENTO
05037  1E3D  60                    RTS
05038  1E3E             ;------------------------------------------------------------
05039  1E3E             ;CARGARTABLASCREENS
05040  1E3E             ;RELLENA LA TABLA CON LAS DIRECCIONES DE LAS PANTALLAS
05041  1E3E             ;------------------------------------------------------------
05042  1E3E             CARGARTABLASCREENS 
05043  1E3E  A2 00                 LDX #0
05044  1E40                        
05045  1E40  A9 81                 LDA #>SCREEN_0_SCREEN_DATA
05046  1E42  9D 57 29              STA SCREENS_DATA_TABLE_HI,X
05047  1E45  A9 C0                 LDA #<SCREEN_0_SCREEN_DATA
05048  1E47  9D 85 29              STA SCREENS_DATA_TABLE_LO,X
05049  1E4A  A9 82                 LDA #>SCREEN_0_COLOUR_DATA
05050  1E4C  9D B3 29              STA SCREENS_COLOR_TABLE_HI,X
05051  1E4F  A9 69                 LDA #<SCREEN_0_COLOUR_DATA
05052  1E51  9D E1 29              STA SCREENS_COLOR_TABLE_LO,X
05053  1E54  A9 82                 LDA #>SCREEN_0_INFO_DATA
05054  1E56  9D 0F 2A              STA SCREENS_INFO_TABLE_HI,X
05055  1E59  A9 BD                 LDA #<SCREEN_0_INFO_DATA
05056  1E5B  9D 3D 2A              STA SCREENS_INFO_TABLE_LO,X
05057  1E5E  E8                    INX
05058  1E5F             
05059  1E5F  A9 84                 LDA #>SCREEN_1_SCREEN_DATA
05060  1E61  9D 57 29              STA SCREENS_DATA_TABLE_HI,X
05061  1E64  A9 4A                 LDA #<SCREEN_1_SCREEN_DATA
05062  1E66  9D 85 29              STA SCREENS_DATA_TABLE_LO,X
05063  1E69  A9 85                 LDA #>SCREEN_1_COLOUR_DATA
05064  1E6B  9D B3 29              STA SCREENS_COLOR_TABLE_HI,X
05065  1E6E  A9 94                 LDA #<SCREEN_1_COLOUR_DATA
05066  1E70  9D E1 29              STA SCREENS_COLOR_TABLE_LO,X
05067  1E73  A9 86                 LDA #>SCREEN_1_INFO_DATA
05068  1E75  9D 0F 2A              STA SCREENS_INFO_TABLE_HI,X
05069  1E78  A9 0D                 LDA #<SCREEN_1_INFO_DATA
05070  1E7A  9D 3D 2A              STA SCREENS_INFO_TABLE_LO,X
05071  1E7D  E8                    INX
05072  1E7E             
05073  1E7E  A9 86                 LDA #>SCREEN_2_SCREEN_DATA
05074  1E80  9D 57 29              STA SCREENS_DATA_TABLE_HI,X
05075  1E83  A9 31                 LDA #<SCREEN_2_SCREEN_DATA
05076  1E85  9D 85 29              STA SCREENS_DATA_TABLE_LO,X
05077  1E88  A9 87                 LDA #>SCREEN_2_COLOUR_DATA
05078  1E8A  9D B3 29              STA SCREENS_COLOR_TABLE_HI,X
05079  1E8D  A9 1F                 LDA #<SCREEN_2_COLOUR_DATA
05080  1E8F  9D E1 29              STA SCREENS_COLOR_TABLE_LO,X
05081  1E92  A9 87                 LDA #>SCREEN_2_INFO_DATA
05082  1E94  9D 0F 2A              STA SCREENS_INFO_TABLE_HI,X
05083  1E97  A9 63                 LDA #<SCREEN_2_INFO_DATA
05084  1E99  9D 3D 2A              STA SCREENS_INFO_TABLE_LO,X
05085  1E9C  E8                    INX
05086  1E9D             
05087  1E9D  A9 87                 LDA #>SCREEN_3_SCREEN_DATA
05088  1E9F  9D 57 29              STA SCREENS_DATA_TABLE_HI,X
05089  1EA2  A9 7F                 LDA #<SCREEN_3_SCREEN_DATA
05090  1EA4  9D 85 29              STA SCREENS_DATA_TABLE_LO,X
05091  1EA7  A9 88                 LDA #>SCREEN_3_COLOUR_DATA
05092  1EA9  9D B3 29              STA SCREENS_COLOR_TABLE_HI,X
05093  1EAC  A9 AB                 LDA #<SCREEN_3_COLOUR_DATA
05094  1EAE  9D E1 29              STA SCREENS_COLOR_TABLE_LO,X
05095  1EB1  A9 88                 LDA #>SCREEN_3_INFO_DATA
05096  1EB3  9D 0F 2A              STA SCREENS_INFO_TABLE_HI,X
05097  1EB6  A9 FD                 LDA #<SCREEN_3_INFO_DATA
05098  1EB8  9D 3D 2A              STA SCREENS_INFO_TABLE_LO,X
05099  1EBB  E8                    INX
05100  1EBC             
05101  1EBC  A9 89                 LDA #>SCREEN_4_SCREEN_DATA
05102  1EBE  9D 57 29              STA SCREENS_DATA_TABLE_HI,X
05103  1EC1  A9 28                 LDA #<SCREEN_4_SCREEN_DATA
05104  1EC3  9D 85 29              STA SCREENS_DATA_TABLE_LO,X
05105  1EC6  A9 8A                 LDA #>SCREEN_4_COLOUR_DATA
05106  1EC8  9D B3 29              STA SCREENS_COLOR_TABLE_HI,X
05107  1ECB  A9 53                 LDA #<SCREEN_4_COLOUR_DATA
05108  1ECD  9D E1 29              STA SCREENS_COLOR_TABLE_LO,X
05109  1ED0  A9 8A                 LDA #>SCREEN_4_INFO_DATA
05110  1ED2  9D 0F 2A              STA SCREENS_INFO_TABLE_HI,X
05111  1ED5  A9 9D                 LDA #<SCREEN_4_INFO_DATA
05112  1ED7  9D 3D 2A              STA SCREENS_INFO_TABLE_LO,X
05113  1EDA  E8                    INX
05114  1EDB             
05115  1EDB  A9 8A                 LDA #>SCREEN_5_SCREEN_DATA
05116  1EDD  9D 57 29              STA SCREENS_DATA_TABLE_HI,X
05117  1EE0  A9 C1                 LDA #<SCREEN_5_SCREEN_DATA
05118  1EE2  9D 85 29              STA SCREENS_DATA_TABLE_LO,X
05119  1EE5  A9 8C                 LDA #>SCREEN_5_COLOUR_DATA
05120  1EE7  9D B3 29              STA SCREENS_COLOR_TABLE_HI,X
05121  1EEA  A9 15                 LDA #<SCREEN_5_COLOUR_DATA
05122  1EEC  9D E1 29              STA SCREENS_COLOR_TABLE_LO,X
05123  1EEF  A9 8C                 LDA #>SCREEN_5_INFO_DATA
05124  1EF1  9D 0F 2A              STA SCREENS_INFO_TABLE_HI,X
05125  1EF4  A9 69                 LDA #<SCREEN_5_INFO_DATA
05126  1EF6  9D 3D 2A              STA SCREENS_INFO_TABLE_LO,X
05127  1EF9  E8                    INX
05128  1EFA             
05129  1EFA  A9 8C                 LDA #>SCREEN_6_SCREEN_DATA
05130  1EFC  9D 57 29              STA SCREENS_DATA_TABLE_HI,X
05131  1EFF  A9 86                 LDA #<SCREEN_6_SCREEN_DATA
05132  1F01  9D 85 29              STA SCREENS_DATA_TABLE_LO,X
05133  1F04  A9 8D                 LDA #>SCREEN_6_COLOUR_DATA
05134  1F06  9D B3 29              STA SCREENS_COLOR_TABLE_HI,X
05135  1F09  A9 E3                 LDA #<SCREEN_6_COLOUR_DATA
05136  1F0B  9D E1 29              STA SCREENS_COLOR_TABLE_LO,X
05137  1F0E  A9 8E                 LDA #>SCREEN_6_INFO_DATA
05138  1F10  9D 0F 2A              STA SCREENS_INFO_TABLE_HI,X
05139  1F13  A9 24                 LDA #<SCREEN_6_INFO_DATA
05140  1F15  9D 3D 2A              STA SCREENS_INFO_TABLE_LO,X
05141  1F18  E8                    INX
05142  1F19             
05143  1F19  A9 8E                 LDA #>SCREEN_7_SCREEN_DATA
05144  1F1B  9D 57 29              STA SCREENS_DATA_TABLE_HI,X
05145  1F1E  A9 4F                 LDA #<SCREEN_7_SCREEN_DATA
05146  1F20  9D 85 29              STA SCREENS_DATA_TABLE_LO,X
05147  1F23  A9 8F                 LDA #>SCREEN_7_COLOUR_DATA
05148  1F25  9D B3 29              STA SCREENS_COLOR_TABLE_HI,X
05149  1F28  A9 98                 LDA #<SCREEN_7_COLOUR_DATA
05150  1F2A  9D E1 29              STA SCREENS_COLOR_TABLE_LO,X
05151  1F2D  A9 8F                 LDA #>SCREEN_7_INFO_DATA
05152  1F2F  9D 0F 2A              STA SCREENS_INFO_TABLE_HI,X
05153  1F32  A9 E7                 LDA #<SCREEN_7_INFO_DATA
05154  1F34  9D 3D 2A              STA SCREENS_INFO_TABLE_LO,X
05155  1F37  E8                    INX
05156  1F38             
05157  1F38  A9 90                 LDA #>SCREEN_8_SCREEN_DATA
05158  1F3A  9D 57 29              STA SCREENS_DATA_TABLE_HI,X
05159  1F3D  A9 04                 LDA #<SCREEN_8_SCREEN_DATA
05160  1F3F  9D 85 29              STA SCREENS_DATA_TABLE_LO,X
05161  1F42  A9 91                 LDA #>SCREEN_8_COLOUR_DATA
05162  1F44  9D B3 29              STA SCREENS_COLOR_TABLE_HI,X
05163  1F47  A9 3D                 LDA #<SCREEN_8_COLOUR_DATA
05164  1F49  9D E1 29              STA SCREENS_COLOR_TABLE_LO,X
05165  1F4C  A9 91                 LDA #>SCREEN_8_INFO_DATA
05166  1F4E  9D 0F 2A              STA SCREENS_INFO_TABLE_HI,X
05167  1F51  A9 7F                 LDA #<SCREEN_8_INFO_DATA
05168  1F53  9D 3D 2A              STA SCREENS_INFO_TABLE_LO,X
05169  1F56  E8                    INX
05170  1F57             
05171  1F57  A9 91                 LDA #>SCREEN_9_SCREEN_DATA
05172  1F59  9D 57 29              STA SCREENS_DATA_TABLE_HI,X
05173  1F5C  A9 A3                 LDA #<SCREEN_9_SCREEN_DATA
05174  1F5E  9D 85 29              STA SCREENS_DATA_TABLE_LO,X
05175  1F61  A9 92                 LDA #>SCREEN_9_COLOUR_DATA
05176  1F63  9D B3 29              STA SCREENS_COLOR_TABLE_HI,X
05177  1F66  A9 D4                 LDA #<SCREEN_9_COLOUR_DATA
05178  1F68  9D E1 29              STA SCREENS_COLOR_TABLE_LO,X
05179  1F6B  A9 93                 LDA #>SCREEN_9_INFO_DATA
05180  1F6D  9D 0F 2A              STA SCREENS_INFO_TABLE_HI,X
05181  1F70  A9 1B                 LDA #<SCREEN_9_INFO_DATA
05182  1F72  9D 3D 2A              STA SCREENS_INFO_TABLE_LO,X
05183  1F75  E8                    INX
05184  1F76             
05185  1F76  A9 93                 LDA #>SCREEN_10_SCREEN_DATA
05186  1F78  9D 57 29              STA SCREENS_DATA_TABLE_HI,X
05187  1F7B  A9 3F                 LDA #<SCREEN_10_SCREEN_DATA
05188  1F7D  9D 85 29              STA SCREENS_DATA_TABLE_LO,X
05189  1F80  A9 94                 LDA #>SCREEN_10_COLOUR_DATA
05190  1F82  9D B3 29              STA SCREENS_COLOR_TABLE_HI,X
05191  1F85  A9 8B                 LDA #<SCREEN_10_COLOUR_DATA
05192  1F87  9D E1 29              STA SCREENS_COLOR_TABLE_LO,X
05193  1F8A  A9 94                 LDA #>SCREEN_10_INFO_DATA
05194  1F8C  9D 0F 2A              STA SCREENS_INFO_TABLE_HI,X
05195  1F8F  A9 DF                 LDA #<SCREEN_10_INFO_DATA
05196  1F91  9D 3D 2A              STA SCREENS_INFO_TABLE_LO,X
05197  1F94  E8                    INX
05198  1F95             
05199  1F95  A9 95                 LDA #>SCREEN_11_SCREEN_DATA
05200  1F97  9D 57 29              STA SCREENS_DATA_TABLE_HI,X
05201  1F9A  A9 0A                 LDA #<SCREEN_11_SCREEN_DATA
05202  1F9C  9D 85 29              STA SCREENS_DATA_TABLE_LO,X
05203  1F9F  A9 96                 LDA #>SCREEN_11_COLOUR_DATA
05204  1FA1  9D B3 29              STA SCREENS_COLOR_TABLE_HI,X
05205  1FA4  A9 2A                 LDA #<SCREEN_11_COLOUR_DATA
05206  1FA6  9D E1 29              STA SCREENS_COLOR_TABLE_LO,X
05207  1FA9  A9 96                 LDA #>SCREEN_11_INFO_DATA
05208  1FAB  9D 0F 2A              STA SCREENS_INFO_TABLE_HI,X
05209  1FAE  A9 93                 LDA #<SCREEN_11_INFO_DATA
05210  1FB0  9D 3D 2A              STA SCREENS_INFO_TABLE_LO,X
05211  1FB3  E8                    INX
05212  1FB4             
05213  1FB4  A9 96                 LDA #>SCREEN_12_SCREEN_DATA
05214  1FB6  9D 57 29              STA SCREENS_DATA_TABLE_HI,X
05215  1FB9  A9 B0                 LDA #<SCREEN_12_SCREEN_DATA
05216  1FBB  9D 85 29              STA SCREENS_DATA_TABLE_LO,X
05217  1FBE  A9 98                 LDA #>SCREEN_12_COLOUR_DATA
05218  1FC0  9D B3 29              STA SCREENS_COLOR_TABLE_HI,X
05219  1FC3  A9 0E                 LDA #<SCREEN_12_COLOUR_DATA
05220  1FC5  9D E1 29              STA SCREENS_COLOR_TABLE_LO,X
05221  1FC8  A9 98                 LDA #>SCREEN_12_INFO_DATA
05222  1FCA  9D 0F 2A              STA SCREENS_INFO_TABLE_HI,X
05223  1FCD  A9 78                 LDA #<SCREEN_12_INFO_DATA
05224  1FCF  9D 3D 2A              STA SCREENS_INFO_TABLE_LO,X
05225  1FD2  E8                    INX
05226  1FD3             
05227  1FD3  A9 98                 LDA #>SCREEN_13_SCREEN_DATA
05228  1FD5  9D 57 29              STA SCREENS_DATA_TABLE_HI,X
05229  1FD8  A9 A3                 LDA #<SCREEN_13_SCREEN_DATA
05230  1FDA  9D 85 29              STA SCREENS_DATA_TABLE_LO,X
05231  1FDD  A9 99                 LDA #>SCREEN_13_COLOUR_DATA
05232  1FDF  9D B3 29              STA SCREENS_COLOR_TABLE_HI,X
05233  1FE2  A9 ED                 LDA #<SCREEN_13_COLOUR_DATA
05234  1FE4  9D E1 29              STA SCREENS_COLOR_TABLE_LO,X
05235  1FE7  A9 9A                 LDA #>SCREEN_13_INFO_DATA
05236  1FE9  9D 0F 2A              STA SCREENS_INFO_TABLE_HI,X
05237  1FEC  A9 55                 LDA #<SCREEN_13_INFO_DATA
05238  1FEE  9D 3D 2A              STA SCREENS_INFO_TABLE_LO,X
05239  1FF1  E8                    INX
05240  1FF2             
05241  1FF2  A9 9A                 LDA #>SCREEN_14_SCREEN_DATA
05242  1FF4  9D 57 29              STA SCREENS_DATA_TABLE_HI,X
05243  1FF7  A9 72                 LDA #<SCREEN_14_SCREEN_DATA
05244  1FF9  9D 85 29              STA SCREENS_DATA_TABLE_LO,X
05245  1FFC  A9 9B                 LDA #>SCREEN_14_COLOUR_DATA
05246  1FFE  9D B3 29              STA SCREENS_COLOR_TABLE_HI,X
05247  2001  A9 51                 LDA #<SCREEN_14_COLOUR_DATA
05248  2003  9D E1 29              STA SCREENS_COLOR_TABLE_LO,X
05249  2006  A9 9B                 LDA #>SCREEN_14_INFO_DATA
05250  2008  9D 0F 2A              STA SCREENS_INFO_TABLE_HI,X
05251  200B  A9 78                 LDA #<SCREEN_14_INFO_DATA
05252  200D  9D 3D 2A              STA SCREENS_INFO_TABLE_LO,X
05253  2010  E8                    INX
05254  2011             
05255  2011  A9 9B                 LDA #>SCREEN_15_SCREEN_DATA
05256  2013  9D 57 29              STA SCREENS_DATA_TABLE_HI,X
05257  2016  A9 95                 LDA #<SCREEN_15_SCREEN_DATA
05258  2018  9D 85 29              STA SCREENS_DATA_TABLE_LO,X
05259  201B  A9 9C                 LDA #>SCREEN_15_COLOUR_DATA
05260  201D  9D B3 29              STA SCREENS_COLOR_TABLE_HI,X
05261  2020  A9 9E                 LDA #<SCREEN_15_COLOUR_DATA
05262  2022  9D E1 29              STA SCREENS_COLOR_TABLE_LO,X
05263  2025  A9 9C                 LDA #>SCREEN_15_INFO_DATA
05264  2027  9D 0F 2A              STA SCREENS_INFO_TABLE_HI,X
05265  202A  A9 DB                 LDA #<SCREEN_15_INFO_DATA
05266  202C  9D 3D 2A              STA SCREENS_INFO_TABLE_LO,X
05267  202F  E8                    INX
05268  2030             
05269  2030  A9 9C                 LDA #>SCREEN_16_SCREEN_DATA
05270  2032  9D 57 29              STA SCREENS_DATA_TABLE_HI,X
05271  2035  A9 F8                 LDA #<SCREEN_16_SCREEN_DATA
05272  2037  9D 85 29              STA SCREENS_DATA_TABLE_LO,X
05273  203A  A9 9E                 LDA #>SCREEN_16_COLOUR_DATA
05274  203C  9D B3 29              STA SCREENS_COLOR_TABLE_HI,X
05275  203F  A9 6B                 LDA #<SCREEN_16_COLOUR_DATA
05276  2041  9D E1 29              STA SCREENS_COLOR_TABLE_LO,X
05277  2044  A9 9E                 LDA #>SCREEN_16_INFO_DATA
05278  2046  9D 0F 2A              STA SCREENS_INFO_TABLE_HI,X
05279  2049  A9 C6                 LDA #<SCREEN_16_INFO_DATA
05280  204B  9D 3D 2A              STA SCREENS_INFO_TABLE_LO,X
05281  204E  E8                    INX
05282  204F             
05283  204F  A9 9E                 LDA #>SCREEN_17_SCREEN_DATA
05284  2051  9D 57 29              STA SCREENS_DATA_TABLE_HI,X
05285  2054  A9 F1                 LDA #<SCREEN_17_SCREEN_DATA
05286  2056  9D 85 29              STA SCREENS_DATA_TABLE_LO,X
05287  2059  A9 A0                 LDA #>SCREEN_17_COLOUR_DATA
05288  205B  9D B3 29              STA SCREENS_COLOR_TABLE_HI,X
05289  205E  A9 43                 LDA #<SCREEN_17_COLOUR_DATA
05290  2060  9D E1 29              STA SCREENS_COLOR_TABLE_LO,X
05291  2063  A9 A0                 LDA #>SCREEN_17_INFO_DATA
05292  2065  9D 0F 2A              STA SCREENS_INFO_TABLE_HI,X
05293  2068  A9 80                 LDA #<SCREEN_17_INFO_DATA
05294  206A  9D 3D 2A              STA SCREENS_INFO_TABLE_LO,X
05295  206D  E8                    INX
05296  206E             
05297  206E  A9 A0                 LDA #>SCREEN_18_SCREEN_DATA
05298  2070  9D 57 29              STA SCREENS_DATA_TABLE_HI,X
05299  2073  A9 AC                 LDA #<SCREEN_18_SCREEN_DATA
05300  2075  9D 85 29              STA SCREENS_DATA_TABLE_LO,X
05301  2078  A9 A1                 LDA #>SCREEN_18_COLOUR_DATA
05302  207A  9D B3 29              STA SCREENS_COLOR_TABLE_HI,X
05303  207D  A9 9E                 LDA #<SCREEN_18_COLOUR_DATA
05304  207F  9D E1 29              STA SCREENS_COLOR_TABLE_LO,X
05305  2082  A9 A2                 LDA #>SCREEN_18_INFO_DATA
05306  2084  9D 0F 2A              STA SCREENS_INFO_TABLE_HI,X
05307  2087  A9 03                 LDA #<SCREEN_18_INFO_DATA
05308  2089  9D 3D 2A              STA SCREENS_INFO_TABLE_LO,X
05309  208C  E8                    INX
05310  208D             
05311  208D  A9 A2                 LDA #>SCREEN_19_SCREEN_DATA
05312  208F  9D 57 29              STA SCREENS_DATA_TABLE_HI,X
05313  2092  A9 20                 LDA #<SCREEN_19_SCREEN_DATA
05314  2094  9D 85 29              STA SCREENS_DATA_TABLE_LO,X
05315  2097  A9 A3                 LDA #>SCREEN_19_COLOUR_DATA
05316  2099  9D B3 29              STA SCREENS_COLOR_TABLE_HI,X
05317  209C  A9 4D                 LDA #<SCREEN_19_COLOUR_DATA
05318  209E  9D E1 29              STA SCREENS_COLOR_TABLE_LO,X
05319  20A1  A9 A3                 LDA #>SCREEN_19_INFO_DATA
05320  20A3  9D 0F 2A              STA SCREENS_INFO_TABLE_HI,X
05321  20A6  A9 9A                 LDA #<SCREEN_19_INFO_DATA
05322  20A8  9D 3D 2A              STA SCREENS_INFO_TABLE_LO,X
05323  20AB  E8                    INX
05324  20AC             
05325  20AC  A9 A3                 LDA #>SCREEN_20_SCREEN_DATA
05326  20AE  9D 57 29              STA SCREENS_DATA_TABLE_HI,X
05327  20B1  A9 B7                 LDA #<SCREEN_20_SCREEN_DATA
05328  20B3  9D 85 29              STA SCREENS_DATA_TABLE_LO,X
05329  20B6  A9 A4                 LDA #>SCREEN_20_COLOUR_DATA
05330  20B8  9D B3 29              STA SCREENS_COLOR_TABLE_HI,X
05331  20BB  A9 DC                 LDA #<SCREEN_20_COLOUR_DATA
05332  20BD  9D E1 29              STA SCREENS_COLOR_TABLE_LO,X
05333  20C0  A9 A5                 LDA #>SCREEN_20_INFO_DATA
05334  20C2  9D 0F 2A              STA SCREENS_INFO_TABLE_HI,X
05335  20C5  A9 29                 LDA #<SCREEN_20_INFO_DATA
05336  20C7  9D 3D 2A              STA SCREENS_INFO_TABLE_LO,X
05337  20CA  E8                    INX
05338  20CB             
05339  20CB  A9 A5                 LDA #>SCREEN_21_SCREEN_DATA
05340  20CD  9D 57 29              STA SCREENS_DATA_TABLE_HI,X
05341  20D0  A9 4D                 LDA #<SCREEN_21_SCREEN_DATA
05342  20D2  9D 85 29              STA SCREENS_DATA_TABLE_LO,X
05343  20D5  A9 A6                 LDA #>SCREEN_21_COLOUR_DATA
05344  20D7  9D B3 29              STA SCREENS_COLOR_TABLE_HI,X
05345  20DA  A9 72                 LDA #<SCREEN_21_COLOUR_DATA
05346  20DC  9D E1 29              STA SCREENS_COLOR_TABLE_LO,X
05347  20DF  A9 A6                 LDA #>SCREEN_21_INFO_DATA
05348  20E1  9D 0F 2A              STA SCREENS_INFO_TABLE_HI,X
05349  20E4  A9 CA                 LDA #<SCREEN_21_INFO_DATA
05350  20E6  9D 3D 2A              STA SCREENS_INFO_TABLE_LO,X
05351  20E9  E8                    INX
05352  20EA             
05353  20EA  A9 A6                 LDA #>SCREEN_22_SCREEN_DATA
05354  20EC  9D 57 29              STA SCREENS_DATA_TABLE_HI,X
05355  20EF  A9 EE                 LDA #<SCREEN_22_SCREEN_DATA
05356  20F1  9D 85 29              STA SCREENS_DATA_TABLE_LO,X
05357  20F4  A9 A7                 LDA #>SCREEN_22_COLOUR_DATA
05358  20F6  9D B3 29              STA SCREENS_COLOR_TABLE_HI,X
05359  20F9  A9 B5                 LDA #<SCREEN_22_COLOUR_DATA
05360  20FB  9D E1 29              STA SCREENS_COLOR_TABLE_LO,X
05361  20FE  A9 A8                 LDA #>SCREEN_22_INFO_DATA
05362  2100  9D 0F 2A              STA SCREENS_INFO_TABLE_HI,X
05363  2103  A9 08                 LDA #<SCREEN_22_INFO_DATA
05364  2105  9D 3D 2A              STA SCREENS_INFO_TABLE_LO,X
05365  2108  E8                    INX
05366  2109             
05367  2109  A9 A8                 LDA #>SCREEN_23_SCREEN_DATA
05368  210B  9D 57 29              STA SCREENS_DATA_TABLE_HI,X
05369  210E  A9 2C                 LDA #<SCREEN_23_SCREEN_DATA
05370  2110  9D 85 29              STA SCREENS_DATA_TABLE_LO,X
05371  2113  A9 A9                 LDA #>SCREEN_23_COLOUR_DATA
05372  2115  9D B3 29              STA SCREENS_COLOR_TABLE_HI,X
05373  2118  A9 47                 LDA #<SCREEN_23_COLOUR_DATA
05374  211A  9D E1 29              STA SCREENS_COLOR_TABLE_LO,X
05375  211D  A9 A9                 LDA #>SCREEN_23_INFO_DATA
05376  211F  9D 0F 2A              STA SCREENS_INFO_TABLE_HI,X
05377  2122  A9 93                 LDA #<SCREEN_23_INFO_DATA
05378  2124  9D 3D 2A              STA SCREENS_INFO_TABLE_LO,X
05379  2127  E8                    INX
05380  2128             
05381  2128  A9 A9                 LDA #>SCREEN_24_SCREEN_DATA
05382  212A  9D 57 29              STA SCREENS_DATA_TABLE_HI,X
05383  212D  A9 B0                 LDA #<SCREEN_24_SCREEN_DATA
05384  212F  9D 85 29              STA SCREENS_DATA_TABLE_LO,X
05385  2132  A9 AA                 LDA #>SCREEN_24_COLOUR_DATA
05386  2134  9D B3 29              STA SCREENS_COLOR_TABLE_HI,X
05387  2137  A9 A1                 LDA #<SCREEN_24_COLOUR_DATA
05388  2139  9D E1 29              STA SCREENS_COLOR_TABLE_LO,X
05389  213C  A9 AA                 LDA #>SCREEN_24_INFO_DATA
05390  213E  9D 0F 2A              STA SCREENS_INFO_TABLE_HI,X
05391  2141  A9 DB                 LDA #<SCREEN_24_INFO_DATA
05392  2143  9D 3D 2A              STA SCREENS_INFO_TABLE_LO,X
05393  2146  E8                    INX
05394  2147             
05395  2147  A9 AA                 LDA #>SCREEN_25_SCREEN_DATA
05396  2149  9D 57 29              STA SCREENS_DATA_TABLE_HI,X
05397  214C  A9 F8                 LDA #<SCREEN_25_SCREEN_DATA
05398  214E  9D 85 29              STA SCREENS_DATA_TABLE_LO,X
05399  2151  A9 AC                 LDA #>SCREEN_25_COLOUR_DATA
05400  2153  9D B3 29              STA SCREENS_COLOR_TABLE_HI,X
05401  2156  A9 28                 LDA #<SCREEN_25_COLOUR_DATA
05402  2158  9D E1 29              STA SCREENS_COLOR_TABLE_LO,X
05403  215B  A9 AC                 LDA #>SCREEN_25_INFO_DATA
05404  215D  9D 0F 2A              STA SCREENS_INFO_TABLE_HI,X
05405  2160  A9 81                 LDA #<SCREEN_25_INFO_DATA
05406  2162  9D 3D 2A              STA SCREENS_INFO_TABLE_LO,X
05407  2165  E8                    INX
05408  2166             
05409  2166  A9 AC                 LDA #>SCREEN_26_SCREEN_DATA
05410  2168  9D 57 29              STA SCREENS_DATA_TABLE_HI,X
05411  216B  A9 AB                 LDA #<SCREEN_26_SCREEN_DATA
05412  216D  9D 85 29              STA SCREENS_DATA_TABLE_LO,X
05413  2170  A9 AD                 LDA #>SCREEN_26_COLOUR_DATA
05414  2172  9D B3 29              STA SCREENS_COLOR_TABLE_HI,X
05415  2175  A9 FE                 LDA #<SCREEN_26_COLOUR_DATA
05416  2177  9D E1 29              STA SCREENS_COLOR_TABLE_LO,X
05417  217A  A9 AE                 LDA #>SCREEN_26_INFO_DATA
05418  217C  9D 0F 2A              STA SCREENS_INFO_TABLE_HI,X
05419  217F  A9 59                 LDA #<SCREEN_26_INFO_DATA
05420  2181  9D 3D 2A              STA SCREENS_INFO_TABLE_LO,X
05421  2184  E8                    INX
05422  2185             
05423  2185  A9 AE                 LDA #>SCREEN_27_SCREEN_DATA
05424  2187  9D 57 29              STA SCREENS_DATA_TABLE_HI,X
05425  218A  A9 7D                 LDA #<SCREEN_27_SCREEN_DATA
05426  218C  9D 85 29              STA SCREENS_DATA_TABLE_LO,X
05427  218F  A9 AF                 LDA #>SCREEN_27_COLOUR_DATA
05428  2191  9D B3 29              STA SCREENS_COLOR_TABLE_HI,X
05429  2194  A9 A4                 LDA #<SCREEN_27_COLOUR_DATA
05430  2196  9D E1 29              STA SCREENS_COLOR_TABLE_LO,X
05431  2199  A9 B0                 LDA #>SCREEN_27_INFO_DATA
05432  219B  9D 0F 2A              STA SCREENS_INFO_TABLE_HI,X
05433  219E  A9 11                 LDA #<SCREEN_27_INFO_DATA
05434  21A0  9D 3D 2A              STA SCREENS_INFO_TABLE_LO,X
05435  21A3  E8                    INX
05436  21A4             
05437  21A4  A9 B0                 LDA #>SCREEN_28_SCREEN_DATA
05438  21A6  9D 57 29              STA SCREENS_DATA_TABLE_HI,X
05439  21A9  A9 3C                 LDA #<SCREEN_28_SCREEN_DATA
05440  21AB  9D 85 29              STA SCREENS_DATA_TABLE_LO,X
05441  21AE  A9 B1                 LDA #>SCREEN_28_COLOUR_DATA
05442  21B0  9D B3 29              STA SCREENS_COLOR_TABLE_HI,X
05443  21B3  A9 51                 LDA #<SCREEN_28_COLOUR_DATA
05444  21B5  9D E1 29              STA SCREENS_COLOR_TABLE_LO,X
05445  21B8  A9 B1                 LDA #>SCREEN_28_INFO_DATA
05446  21BA  9D 0F 2A              STA SCREENS_INFO_TABLE_HI,X
05447  21BD  A9 A4                 LDA #<SCREEN_28_INFO_DATA
05448  21BF  9D 3D 2A              STA SCREENS_INFO_TABLE_LO,X
05449  21C2  E8                    INX
05450  21C3             
05451  21C3  A9 B1                 LDA #>SCREEN_29_SCREEN_DATA
05452  21C5  9D 57 29              STA SCREENS_DATA_TABLE_HI,X
05453  21C8  A9 C1                 LDA #<SCREEN_29_SCREEN_DATA
05454  21CA  9D 85 29              STA SCREENS_DATA_TABLE_LO,X
05455  21CD  A9 B2                 LDA #>SCREEN_29_COLOUR_DATA
05456  21CF  9D B3 29              STA SCREENS_COLOR_TABLE_HI,X
05457  21D2  A9 FE                 LDA #<SCREEN_29_COLOUR_DATA
05458  21D4  9D E1 29              STA SCREENS_COLOR_TABLE_LO,X
05459  21D7  A9 B3                 LDA #>SCREEN_29_INFO_DATA
05460  21D9  9D 0F 2A              STA SCREENS_INFO_TABLE_HI,X
05461  21DC  A9 52                 LDA #<SCREEN_29_INFO_DATA
05462  21DE  9D 3D 2A              STA SCREENS_INFO_TABLE_LO,X
05463  21E1  E8                    INX
05464  21E2             
05465  21E2  A9 B3                 LDA #>SCREEN_30_SCREEN_DATA
05466  21E4  9D 57 29              STA SCREENS_DATA_TABLE_HI,X
05467  21E7  A9 76                 LDA #<SCREEN_30_SCREEN_DATA
05468  21E9  9D 85 29              STA SCREENS_DATA_TABLE_LO,X
05469  21EC  A9 B4                 LDA #>SCREEN_30_COLOUR_DATA
05470  21EE  9D B3 29              STA SCREENS_COLOR_TABLE_HI,X
05471  21F1  A9 55                 LDA #<SCREEN_30_COLOUR_DATA
05472  21F3  9D E1 29              STA SCREENS_COLOR_TABLE_LO,X
05473  21F6  A9 B4                 LDA #>SCREEN_30_INFO_DATA
05474  21F8  9D 0F 2A              STA SCREENS_INFO_TABLE_HI,X
05475  21FB  A9 93                 LDA #<SCREEN_30_INFO_DATA
05476  21FD  9D 3D 2A              STA SCREENS_INFO_TABLE_LO,X
05477  2200  E8                    INX
05478  2201             
05479  2201  A9 B4                 LDA #>SCREEN_31_SCREEN_DATA
05480  2203  9D 57 29              STA SCREENS_DATA_TABLE_HI,X
05481  2206  A9 A8                 LDA #<SCREEN_31_SCREEN_DATA
05482  2208  9D 85 29              STA SCREENS_DATA_TABLE_LO,X
05483  220B  A9 B5                 LDA #>SCREEN_31_COLOUR_DATA
05484  220D  9D B3 29              STA SCREENS_COLOR_TABLE_HI,X
05485  2210  A9 6F                 LDA #<SCREEN_31_COLOUR_DATA
05486  2212  9D E1 29              STA SCREENS_COLOR_TABLE_LO,X
05487  2215  A9 B5                 LDA #>SCREEN_31_INFO_DATA
05488  2217  9D 0F 2A              STA SCREENS_INFO_TABLE_HI,X
05489  221A  A9 A4                 LDA #<SCREEN_31_INFO_DATA
05490  221C  9D 3D 2A              STA SCREENS_INFO_TABLE_LO,X
05491  221F  E8                    INX
05492  2220             
05493  2220  A9 B5                 LDA #>SCREEN_32_SCREEN_DATA
05494  2222  9D 57 29              STA SCREENS_DATA_TABLE_HI,X
05495  2225  A9 C1                 LDA #<SCREEN_32_SCREEN_DATA
05496  2227  9D 85 29              STA SCREENS_DATA_TABLE_LO,X
05497  222A  A9 B6                 LDA #>SCREEN_32_COLOUR_DATA
05498  222C  9D B3 29              STA SCREENS_COLOR_TABLE_HI,X
05499  222F  A9 AF                 LDA #<SCREEN_32_COLOUR_DATA
05500  2231  9D E1 29              STA SCREENS_COLOR_TABLE_LO,X
05501  2234  A9 B6                 LDA #>SCREEN_32_INFO_DATA
05502  2236  9D 0F 2A              STA SCREENS_INFO_TABLE_HI,X
05503  2239  A9 E8                 LDA #<SCREEN_32_INFO_DATA
05504  223B  9D 3D 2A              STA SCREENS_INFO_TABLE_LO,X
05505  223E  E8                    INX
05506  223F             
05507  223F  A9 B7                 LDA #>SCREEN_33_SCREEN_DATA
05508  2241  9D 57 29              STA SCREENS_DATA_TABLE_HI,X
05509  2244  A9 05                 LDA #<SCREEN_33_SCREEN_DATA
05510  2246  9D 85 29              STA SCREENS_DATA_TABLE_LO,X
05511  2249  A9 B8                 LDA #>SCREEN_33_COLOUR_DATA
05512  224B  9D B3 29              STA SCREENS_COLOR_TABLE_HI,X
05513  224E  A9 08                 LDA #<SCREEN_33_COLOUR_DATA
05514  2250  9D E1 29              STA SCREENS_COLOR_TABLE_LO,X
05515  2253  A9 B8                 LDA #>SCREEN_33_INFO_DATA
05516  2255  9D 0F 2A              STA SCREENS_INFO_TABLE_HI,X
05517  2258  A9 54                 LDA #<SCREEN_33_INFO_DATA
05518  225A  9D 3D 2A              STA SCREENS_INFO_TABLE_LO,X
05519  225D  E8                    INX
05520  225E             
05521  225E  A9 B8                 LDA #>SCREEN_34_SCREEN_DATA
05522  2260  9D 57 29              STA SCREENS_DATA_TABLE_HI,X
05523  2263  A9 71                 LDA #<SCREEN_34_SCREEN_DATA
05524  2265  9D 85 29              STA SCREENS_DATA_TABLE_LO,X
05525  2268  A9 B9                 LDA #>SCREEN_34_COLOUR_DATA
05526  226A  9D B3 29              STA SCREENS_COLOR_TABLE_HI,X
05527  226D  A9 B9                 LDA #<SCREEN_34_COLOUR_DATA
05528  226F  9D E1 29              STA SCREENS_COLOR_TABLE_LO,X
05529  2272  A9 BA                 LDA #>SCREEN_34_INFO_DATA
05530  2274  9D 0F 2A              STA SCREENS_INFO_TABLE_HI,X
05531  2277  A9 04                 LDA #<SCREEN_34_INFO_DATA
05532  2279  9D 3D 2A              STA SCREENS_INFO_TABLE_LO,X
05533  227C  E8                    INX
05534  227D             
05535  227D  A9 BA                 LDA #>SCREEN_35_SCREEN_DATA
05536  227F  9D 57 29              STA SCREENS_DATA_TABLE_HI,X
05537  2282  A9 21                 LDA #<SCREEN_35_SCREEN_DATA
05538  2284  9D 85 29              STA SCREENS_DATA_TABLE_LO,X
05539  2287  A9 BB                 LDA #>SCREEN_35_COLOUR_DATA
05540  2289  9D B3 29              STA SCREENS_COLOR_TABLE_HI,X
05541  228C  A9 2E                 LDA #<SCREEN_35_COLOUR_DATA
05542  228E  9D E1 29              STA SCREENS_COLOR_TABLE_LO,X
05543  2291  A9 BB                 LDA #>SCREEN_35_INFO_DATA
05544  2293  9D 0F 2A              STA SCREENS_INFO_TABLE_HI,X
05545  2296  A9 8A                 LDA #<SCREEN_35_INFO_DATA
05546  2298  9D 3D 2A              STA SCREENS_INFO_TABLE_LO,X
05547  229B  E8                    INX
05548  229C             
05549  229C  A9 BB                 LDA #>SCREEN_36_SCREEN_DATA
05550  229E  9D 57 29              STA SCREENS_DATA_TABLE_HI,X
05551  22A1  A9 A7                 LDA #<SCREEN_36_SCREEN_DATA
05552  22A3  9D 85 29              STA SCREENS_DATA_TABLE_LO,X
05553  22A6  A9 BC                 LDA #>SCREEN_36_COLOUR_DATA
05554  22A8  9D B3 29              STA SCREENS_COLOR_TABLE_HI,X
05555  22AB  A9 FE                 LDA #<SCREEN_36_COLOUR_DATA
05556  22AD  9D E1 29              STA SCREENS_COLOR_TABLE_LO,X
05557  22B0  A9 BD                 LDA #>SCREEN_36_INFO_DATA
05558  22B2  9D 0F 2A              STA SCREENS_INFO_TABLE_HI,X
05559  22B5  A9 4D                 LDA #<SCREEN_36_INFO_DATA
05560  22B7  9D 3D 2A              STA SCREENS_INFO_TABLE_LO,X
05561  22BA  E8                    INX
05562  22BB             
05563  22BB  A9 BD                 LDA #>SCREEN_37_SCREEN_DATA
05564  22BD  9D 57 29              STA SCREENS_DATA_TABLE_HI,X
05565  22C0  A9 69                 LDA #<SCREEN_37_SCREEN_DATA
05566  22C2  9D 85 29              STA SCREENS_DATA_TABLE_LO,X
05567  22C5  A9 BE                 LDA #>SCREEN_37_COLOUR_DATA
05568  22C7  9D B3 29              STA SCREENS_COLOR_TABLE_HI,X
05569  22CA  A9 C6                 LDA #<SCREEN_37_COLOUR_DATA
05570  22CC  9D E1 29              STA SCREENS_COLOR_TABLE_LO,X
05571  22CF  A9 BF                 LDA #>SCREEN_37_INFO_DATA
05572  22D1  9D 0F 2A              STA SCREENS_INFO_TABLE_HI,X
05573  22D4  A9 41                 LDA #<SCREEN_37_INFO_DATA
05574  22D6  9D 3D 2A              STA SCREENS_INFO_TABLE_LO,X
05575  22D9  E8                    INX
05576  22DA             
05577  22DA  A9 BF                 LDA #>SCREEN_38_SCREEN_DATA
05578  22DC  9D 57 29              STA SCREENS_DATA_TABLE_HI,X
05579  22DF  A9 6C                 LDA #<SCREEN_38_SCREEN_DATA
05580  22E1  9D 85 29              STA SCREENS_DATA_TABLE_LO,X
05581  22E4  A9 C0                 LDA #>SCREEN_38_COLOUR_DATA
05582  22E6  9D B3 29              STA SCREENS_COLOR_TABLE_HI,X
05583  22E9  A9 61                 LDA #<SCREEN_38_COLOUR_DATA
05584  22EB  9D E1 29              STA SCREENS_COLOR_TABLE_LO,X
05585  22EE  A9 C0                 LDA #>SCREEN_38_INFO_DATA
05586  22F0  9D 0F 2A              STA SCREENS_INFO_TABLE_HI,X
05587  22F3  A9 C1                 LDA #<SCREEN_38_INFO_DATA
05588  22F5  9D 3D 2A              STA SCREENS_INFO_TABLE_LO,X
05589  22F8  E8                    INX
05590  22F9             
05591  22F9  A9 C0                 LDA #>SCREEN_39_SCREEN_DATA
05592  22FB  9D 57 29              STA SCREENS_DATA_TABLE_HI,X
05593  22FE  A9 EC                 LDA #<SCREEN_39_SCREEN_DATA
05594  2300  9D 85 29              STA SCREENS_DATA_TABLE_LO,X
05595  2303  A9 C1                 LDA #>SCREEN_39_COLOUR_DATA
05596  2305  9D B3 29              STA SCREENS_COLOR_TABLE_HI,X
05597  2308  A9 C5                 LDA #<SCREEN_39_COLOUR_DATA
05598  230A  9D E1 29              STA SCREENS_COLOR_TABLE_LO,X
05599  230D  A9 C1                 LDA #>SCREEN_39_INFO_DATA
05600  230F  9D 0F 2A              STA SCREENS_INFO_TABLE_HI,X
05601  2312  A9 FE                 LDA #<SCREEN_39_INFO_DATA
05602  2314  9D 3D 2A              STA SCREENS_INFO_TABLE_LO,X
05603  2317  E8                    INX
05604  2318             
05605  2318  A9 C2                 LDA #>SCREEN_40_SCREEN_DATA
05606  231A  9D 57 29              STA SCREENS_DATA_TABLE_HI,X
05607  231D  A9 1B                 LDA #<SCREEN_40_SCREEN_DATA
05608  231F  9D 85 29              STA SCREENS_DATA_TABLE_LO,X
05609  2322  A9 C2                 LDA #>SCREEN_40_COLOUR_DATA
05610  2324  9D B3 29              STA SCREENS_COLOR_TABLE_HI,X
05611  2327  A9 FD                 LDA #<SCREEN_40_COLOUR_DATA
05612  2329  9D E1 29              STA SCREENS_COLOR_TABLE_LO,X
05613  232C  A9 C3                 LDA #>SCREEN_40_INFO_DATA
05614  232E  9D 0F 2A              STA SCREENS_INFO_TABLE_HI,X
05615  2331  A9 4D                 LDA #<SCREEN_40_INFO_DATA
05616  2333  9D 3D 2A              STA SCREENS_INFO_TABLE_LO,X
05617  2336  E8                    INX
05618  2337             
05619  2337  A9 C3                 LDA #>SCREEN_41_SCREEN_DATA
05620  2339  9D 57 29              STA SCREENS_DATA_TABLE_HI,X
05621  233C  A9 6A                 LDA #<SCREEN_41_SCREEN_DATA
05622  233E  9D 85 29              STA SCREENS_DATA_TABLE_LO,X
05623  2341  A9 C4                 LDA #>SCREEN_41_COLOUR_DATA
05624  2343  9D B3 29              STA SCREENS_COLOR_TABLE_HI,X
05625  2346  A9 63                 LDA #<SCREEN_41_COLOUR_DATA
05626  2348  9D E1 29              STA SCREENS_COLOR_TABLE_LO,X
05627  234B  A9 C4                 LDA #>SCREEN_41_INFO_DATA
05628  234D  9D 0F 2A              STA SCREENS_INFO_TABLE_HI,X
05629  2350  A9 BF                 LDA #<SCREEN_41_INFO_DATA
05630  2352  9D 3D 2A              STA SCREENS_INFO_TABLE_LO,X
05631  2355  E8                    INX
05632  2356             
05633  2356  A9 C4                 LDA #>SCREEN_42_SCREEN_DATA
05634  2358  9D 57 29              STA SCREENS_DATA_TABLE_HI,X
05635  235B  A9 DC                 LDA #<SCREEN_42_SCREEN_DATA
05636  235D  9D 85 29              STA SCREENS_DATA_TABLE_LO,X
05637  2360  A9 C6                 LDA #>SCREEN_42_COLOUR_DATA
05638  2362  9D B3 29              STA SCREENS_COLOR_TABLE_HI,X
05639  2365  A9 0B                 LDA #<SCREEN_42_COLOUR_DATA
05640  2367  9D E1 29              STA SCREENS_COLOR_TABLE_LO,X
05641  236A  A9 C6                 LDA #>SCREEN_42_INFO_DATA
05642  236C  9D 0F 2A              STA SCREENS_INFO_TABLE_HI,X
05643  236F  A9 58                 LDA #<SCREEN_42_INFO_DATA
05644  2371  9D 3D 2A              STA SCREENS_INFO_TABLE_LO,X
05645  2374  E8                    INX
05646  2375             
05647  2375  A9 C6                 LDA #>SCREEN_43_SCREEN_DATA
05648  2377  9D 57 29              STA SCREENS_DATA_TABLE_HI,X
05649  237A  A9 75                 LDA #<SCREEN_43_SCREEN_DATA
05650  237C  9D 85 29              STA SCREENS_DATA_TABLE_LO,X
05651  237F  A9 C7                 LDA #>SCREEN_43_COLOUR_DATA
05652  2381  9D B3 29              STA SCREENS_COLOR_TABLE_HI,X
05653  2384  A9 B3                 LDA #<SCREEN_43_COLOUR_DATA
05654  2386  9D E1 29              STA SCREENS_COLOR_TABLE_LO,X
05655  2389  A9 C8                 LDA #>SCREEN_43_INFO_DATA
05656  238B  9D 0F 2A              STA SCREENS_INFO_TABLE_HI,X
05657  238E  A9 0D                 LDA #<SCREEN_43_INFO_DATA
05658  2390  9D 3D 2A              STA SCREENS_INFO_TABLE_LO,X
05659  2393  E8                    INX
05660  2394             
05661  2394  A9 C8                 LDA #>SCREEN_44_SCREEN_DATA
05662  2396  9D 57 29              STA SCREENS_DATA_TABLE_HI,X
05663  2399  A9 38                 LDA #<SCREEN_44_SCREEN_DATA
05664  239B  9D 85 29              STA SCREENS_DATA_TABLE_LO,X
05665  239E  A9 C9                 LDA #>SCREEN_44_COLOUR_DATA
05666  23A0  9D B3 29              STA SCREENS_COLOR_TABLE_HI,X
05667  23A3  A9 89                 LDA #<SCREEN_44_COLOUR_DATA
05668  23A5  9D E1 29              STA SCREENS_COLOR_TABLE_LO,X
05669  23A8  A9 C9                 LDA #>SCREEN_44_INFO_DATA
05670  23AA  9D 0F 2A              STA SCREENS_INFO_TABLE_HI,X
05671  23AD  A9 D2                 LDA #<SCREEN_44_INFO_DATA
05672  23AF  9D 3D 2A              STA SCREENS_INFO_TABLE_LO,X
05673  23B2  E8                    INX
05674  23B3             
05675  23B3  A9 C9                 LDA #>SCREEN_45_SCREEN_DATA
05676  23B5  9D 57 29              STA SCREENS_DATA_TABLE_HI,X
05677  23B8  A9 F6                 LDA #<SCREEN_45_SCREEN_DATA
05678  23BA  9D 85 29              STA SCREENS_DATA_TABLE_LO,X
05679  23BD  A9 CB                 LDA #>SCREEN_45_COLOUR_DATA
05680  23BF  9D B3 29              STA SCREENS_COLOR_TABLE_HI,X
05681  23C2  A9 3F                 LDA #<SCREEN_45_COLOUR_DATA
05682  23C4  9D E1 29              STA SCREENS_COLOR_TABLE_LO,X
05683  23C7  A9 CB                 LDA #>SCREEN_45_INFO_DATA
05684  23C9  9D 0F 2A              STA SCREENS_INFO_TABLE_HI,X
05685  23CC  A9 94                 LDA #<SCREEN_45_INFO_DATA
05686  23CE  9D 3D 2A              STA SCREENS_INFO_TABLE_LO,X
05687  23D1                        ;INX
05688  23D1             
05689  23D1  60                    RTS
05690  23D2             
05691  23D2             
05692  23D2             ;========================================================
05693  23D2             ; CARGARSPRITE
05694  23D2             ;  X -> ÍNDICE DEL SPRITE A CARGAR
05695  23D2             ;CARGA LOS SPRITES
05696  23D2             ;========================================================
05697  23D2             CARGARSPRITE 
05698  23D2  BD 49 28              LDA ENEMY_TYPE,X
05699  23D5  C9 03                 CMP #SP_PLANO           ;PLANO
05700  23D7  D0 05                 BNE CHECKCARGAMURCIELAGO
05701  23D9  A9 5D                 LDA #SPRITE_PLANO
05702  23DB  4C 63 25              JMP ENDCARGASPRITE
05703  23DE             
05704  23DE             CHECKCARGAMURCIELAGO 
05705  23DE  C9 02                 CMP #SP_MURCIELAGO      ;MURCIÉLAGO
05706  23E0  D0 05                 BNE CHECKCARGAGOTA
05707  23E2  A9 57                 LDA #SPRITE_MURCIELAGO_R
05708  23E4  4C 63 25              JMP ENDCARGASPRITE
05709  23E7             
05710  23E7             CHECKCARGAGOTA 
05711  23E7  C9 01                 CMP #SP_GOTA            ;GOTA
05712  23E9  D0 05                 BNE CHECKCARGAGOTA2
05713  23EB  A9 4C                 LDA #SPRITE_GOTA
05714  23ED  4C 63 25              JMP ENDCARGASPRITE
05715  23F0             
05716  23F0             CHECKCARGAGOTA2 
05717  23F0  C9 13                 CMP #SP_GOTA_2            ;GOTA SIN SALPICADURAS
05718  23F2  D0 05                 BNE CHECKCARGAKEY1
05719  23F4  A9 4C                 LDA #SPRITE_GOTA
05720  23F6  4C 63 25              JMP ENDCARGASPRITE
05721  23F9             
05722  23F9             CHECKCARGAKEY1 
05723  23F9  C9 5B                 CMP #SP_KEY_1           ;LLAVE 1
05724  23FB  D0 05                 BNE CARGARMOSCAS
05725  23FD  A9 65                 LDA #SPRITE_KEY_1
05726  23FF  4C 63 25              JMP ENDCARGASPRITE
05727  2402             
05728  2402             CARGARMOSCAS 
05729  2402  C9 04                 CMP #SP_MOSCAS          ;MOSCAS
05730  2404  D0 05                 BNE CARGARPALMAS
05731  2406  A9 66                 LDA #SPRITE_MOSCAS
05732  2408  4C 63 25              JMP ENDCARGASPRITE
05733  240B             
05734  240B             CARGARPALMAS 
05735  240B  C9 05                 CMP #SP_PALMAS          ;PALMAS
05736  240D  D0 05                 BNE CARGARSERPIENTE
05737  240F  A9 6A                 LDA #SPRITE_PALMAS
05738  2411  4C 63 25              JMP ENDCARGASPRITE
05739  2414             
05740  2414             CARGARSERPIENTE 
05741  2414  C9 06                 CMP #SP_SERPIENTE       ;SERPIENTE
05742  2416  D0 05                 BNE CARGARMAZO
05743  2418  A9 72                 LDA #SPRITE_SERPIENTE_R
05744  241A  4C 63 25              JMP ENDCARGASPRITE
05745  241D             
05746  241D             CARGARMAZO 
05747  241D  C9 07                 CMP #SP_MAZO            ;MAZO
05748  241F  D0 05                 BNE CARGARARANA
05749  2421  A9 76                 LDA #SPRITE_MAZO
05750  2423  4C 63 25              JMP ENDCARGASPRITE
05751  2426             
05752  2426             CARGARARANA 
05753  2426  C9 08                 CMP #SP_ARANA           ;ARAÑA
05754  2428  D0 05                 BNE CARGARMOMIA
05755  242A  A9 7C                 LDA #SPRITE_ARANA
05756  242C  4C 63 25              JMP ENDCARGASPRITE
05757  242F             
05758  242F             CARGARMOMIA 
05759  242F  C9 09                 CMP #SP_MOMIA           ;MOMIA
05760  2431  D0 05                 BNE CARGARPINCHOS1
05761  2433  A9 85                 LDA #SPRITE_MOMIA_R
05762  2435  4C 63 25              JMP ENDCARGASPRITE
05763  2438             
05764  2438             CARGARPINCHOS1 
05765  2438  C9 0A                 CMP #SP_PINCHOS_1       ;PINCHOS 1
05766  243A  D0 05                 BNE CARGARPINCHOS2
05767  243C  A9 89                 LDA #SPRITE_PINCHOS_1
05768  243E  4C 63 25              JMP ENDCARGASPRITE
05769  2441             
05770  2441             CARGARPINCHOS2 
05771  2441  C9 0B                 CMP #SP_PINCHOS_2       ;PINCHOS 2
05772  2443  D0 05                 BNE CARGARLOCK1
05773  2445  A9 8A                 LDA #SPRITE_PINCHOS_2
05774  2447  4C 63 25              JMP ENDCARGASPRITE
05775  244A             
05776  244A             CARGARLOCK1 
05777  244A  C9 33                 CMP #SP_LOCK_1          ;CERRADURA 1
05778  244C  D0 05                 BNE CARGARKEY2
05779  244E  A9 8B                 LDA #SPRITE_LOCK_1
05780  2450  4C 63 25              JMP ENDCARGASPRITE
05781  2453             
05782  2453             CARGARKEY2 
05783  2453  C9 5C                 CMP #SP_KEY_2           ;LLAVE 2
05784  2455  D0 05                 BNE CARGARTRANSPORTER1
05785  2457  A9 8D                 LDA #SPRITE_KEY_2
05786  2459  4C 63 25              JMP ENDCARGASPRITE
05787  245C             
05788  245C             CARGARTRANSPORTER1 
05789  245C  C9 47                 CMP #SP_TRANSPORTER_1   ;TRANSPORTADOR 1
05790  245E  D0 05                 BNE CARGARBOLA
05791  2460  A9 8E                 LDA #SPRITE_TRANSPORTER_1
05792  2462  4C 63 25              JMP ENDCARGASPRITE
05793  2465             
05794  2465             CARGARBOLA 
05795  2465  C9 0C                 CMP #SP_BOLA            ;BOLA
05796  2467  D0 05                 BNE CARGARARO
05797  2469  A9 8F                 LDA #SPRITE_BOLA
05798  246B  4C 63 25              JMP ENDCARGASPRITE
05799  246E             
05800  246E             CARGARARO
05801  246E  C9 0D                 CMP #SP_ARO             ;ARO
05802  2470  D0 05                 BNE CARGARKEY3
05803  2472  A9 91                 LDA #SPRITE_ARO
05804  2474  4C 63 25              JMP ENDCARGASPRITE
05805  2477             
05806  2477             CARGARKEY3 
05807  2477  C9 5D                 CMP #SP_KEY_3           ;LLAVE 3
05808  2479  D0 05                 BNE CARGARLOCK3
05809  247B  A9 97                 LDA #SPRITE_KEY_3
05810  247D  4C 63 25              JMP ENDCARGASPRITE
05811  2480             
05812  2480             CARGARLOCK3 
05813  2480  C9 35                 CMP #SP_LOCK_3          ;CERRADURA 3
05814  2482  D0 05                 BNE CARGARRAYO
05815  2484  A9 98                 LDA #SPRITE_LOCK_3
05816  2486  4C 63 25              JMP ENDCARGASPRITE
05817  2489                        
05818  2489             CARGARRAYO 
05819  2489  C9 0E                 CMP #SP_RAYO            ;RAYO
05820  248B  D0 05                 BNE CARGARKEY4
05821  248D  A9 9A                 LDA #SPRITE_RAYO
05822  248F  4C 63 25              JMP ENDCARGASPRITE
05823  2492             
05824  2492             CARGARKEY4 
05825  2492  C9 5E                 CMP #SP_KEY_4           ;LLAVE 4
05826  2494  D0 05                 BNE CARGARLOCK4
05827  2496  A9 9D                 LDA #SPRITE_KEY_4
05828  2498  4C 63 25              JMP ENDCARGASPRITE
05829  249B             
05830  249B             CARGARLOCK4 
05831  249B  C9 36                 CMP #SP_LOCK_4          ;CERRADURA 4
05832  249D  D0 05                 BNE CARGARDIAMANTEL
05833  249F  A9 9E                 LDA #SPRITE_LOCK_4
05834  24A1  4C 63 25              JMP ENDCARGASPRITE
05835  24A4             
05836  24A4             CARGARDIAMANTEL 
05837  24A4  C9 0F                 CMP #SP_DIAMANTE_L      ;DIAMANTE IZQUIERDA
05838  24A6  D0 05                 BNE CARGARDIAMANTER
05839  24A8  A9 A0                 LDA #SPRITE_DIAMANTE_L
05840  24AA  4C 63 25              JMP ENDCARGASPRITE
05841  24AD             
05842  24AD             CARGARDIAMANTER 
05843  24AD  C9 10                 CMP #SP_DIAMANTE_R      ;DIAMANTE DERECHA
05844  24AF  D0 05                 BNE CARGARKEY5
05845  24B1  A9 A1                 LDA #SPRITE_DIAMANTE_R
05846  24B3  4C 63 25              JMP ENDCARGASPRITE
05847  24B6             
05848  24B6             CARGARKEY5 
05849  24B6  C9 5F                 CMP #SP_KEY_5      ;LLAVE 5
05850  24B8  D0 05                 BNE CARGARLOCK2
05851  24BA  A9 A2                 LDA #SPRITE_KEY_5
05852  24BC  4C 63 25              JMP ENDCARGASPRITE
05853  24BF             
05854  24BF             CARGARLOCK2 
05855  24BF  C9 34                 CMP #SP_LOCK_2      ;CERRADURA 2
05856  24C1  D0 05                 BNE CARGARKEY6
05857  24C3  A9 A3                 LDA #SPRITE_LOCK_2
05858  24C5  4C 63 25              JMP ENDCARGASPRITE
05859  24C8             
05860  24C8             CARGARKEY6 
05861  24C8  C9 60                 CMP #SP_KEY_6      ;LLAVE 6
05862  24CA  D0 05                 BNE CARGARLOCK6
05863  24CC  A9 A5                 LDA #SPRITE_KEY_6
05864  24CE  4C 63 25              JMP ENDCARGASPRITE
05865  24D1             
05866  24D1             CARGARLOCK6 
05867  24D1  C9 38                 CMP #SP_LOCK_6      ;CERRADURA 6
05868  24D3  D0 05                 BNE CARGARTRANSPORTER2
05869  24D5  A9 A6                 LDA #SPRITE_LOCK_6
05870  24D7  4C 63 25              JMP ENDCARGASPRITE
05871  24DA             
05872  24DA             CARGARTRANSPORTER2 
05873  24DA  C9 48                 CMP #SP_TRANSPORTER_2   ;TRANSPORTADOR 1
05874  24DC  D0 05                 BNE CARGARESTALACTITA
05875  24DE  A9 A8                 LDA #SPRITE_TRANSPORTER_2
05876  24E0  4C 63 25              JMP ENDCARGASPRITE
05877  24E3             
05878  24E3             CARGARESTALACTITA 
05879  24E3  C9 11                 CMP #SP_ESTALACTITA   ;ESTALACTITA
05880  24E5  D0 05                 BNE CARGARVOLCAN
05881  24E7  A9 AA                 LDA #SPRITE_ESTALACTITA
05882  24E9  4C 63 25              JMP ENDCARGASPRITE
05883  24EC             
05884  24EC             CARGARVOLCAN 
05885  24EC  C9 12                 CMP #SP_VOLCAN   ;VOLCAN
05886  24EE  D0 05                 BNE CARGARKEY7
05887  24F0  A9 AF                 LDA #SPRITE_VOLCAN
05888  24F2  4C 63 25              JMP ENDCARGASPRITE
05889  24F5             
05890  24F5             CARGARKEY7 
05891  24F5  C9 61                 CMP #SP_KEY_7   ;LLAVE 7
05892  24F7  D0 05                 BNE CARGARLOCK7
05893  24F9  A9 B4                 LDA #SPRITE_KEY_7
05894  24FB  4C 63 25              JMP ENDCARGASPRITE
05895  24FE             
05896  24FE             CARGARLOCK7 
05897  24FE  C9 39                 CMP #SP_LOCK_7   ;CERRADURA 7
05898  2500  D0 05                 BNE CARGARKEY8
05899  2502  A9 B5                 LDA #SPRITE_LOCK_7
05900  2504  4C 63 25              JMP ENDCARGASPRITE
05901  2507             
05902  2507             CARGARKEY8 
05903  2507  C9 62                 CMP #SP_KEY_8   ;LLAVE 8
05904  2509  D0 05                 BNE CARGARPEZ
05905  250B  A9 B7                 LDA #SPRITE_KEY_8
05906  250D  4C 63 25              JMP ENDCARGASPRITE
05907  2510             
05908  2510             CARGARPEZ
05909  2510  C9 14                 CMP #SP_PEZ   ;PEZ
05910  2512  D0 05                 BNE CARGARFLECHA
05911  2514  A9 B8                 LDA #SPRITE_PEZ_U
05912  2516  4C 63 25              JMP ENDCARGASPRITE
05913  2519             
05914  2519             CARGARFLECHA 
05915  2519  C9 15                 CMP #SP_FLECHA   ;FLECHA
05916  251B  D0 05                 BNE CARGARLOCK8
05917  251D  A9 C0                 LDA #SPRITE_FLECHA
05918  251F  4C 63 25              JMP ENDCARGASPRITE
05919  2522             
05920  2522             CARGARLOCK8 
05921  2522  C9 3A                 CMP #SP_LOCK_8   ;CERRADURA 8
05922  2524  D0 05                 BNE CARGARRAYO2
05923  2526  A9 C1                 LDA #SPRITE_LOCK_8
05924  2528  4C 63 25              JMP ENDCARGASPRITE
05925  252B             
05926  252B             CARGARRAYO2 
05927  252B  C9 16                 CMP #SP_RAYO_2   ;RAYO 2
05928  252D  D0 05                 BNE CARGARKEY9
05929  252F  A9 9A                 LDA #SPRITE_RAYO
05930  2531  4C 63 25              JMP ENDCARGASPRITE
05931  2534             
05932  2534             CARGARKEY9 
05933  2534  C9 63                 CMP #SP_KEY_9   ;LLAVE 9
05934  2536  D0 05                 BNE CARGARLOCK9
05935  2538  A9 C3                 LDA #SPRITE_KEY_9
05936  253A  4C 63 25              JMP ENDCARGASPRITE
05937  253D             
05938  253D             CARGARLOCK9 
05939  253D  C9 3B                 CMP #SP_LOCK_9   ;CERRADURA 9
05940  253F  D0 05                 BNE CARGARKEY10
05941  2541  A9 C4                 LDA #SPRITE_LOCK_9
05942  2543  4C 63 25              JMP ENDCARGASPRITE
05943  2546             
05944  2546             CARGARKEY10 
05945  2546  C9 64                 CMP #SP_KEY_10   ;LLAVE 10
05946  2548  D0 05                 BNE CARGARLOCK10
05947  254A  A9 C6                 LDA #SPRITE_KEY_10
05948  254C  4C 63 25              JMP ENDCARGASPRITE
05949  254F             
05950  254F             CARGARLOCK10 
05951  254F  C9 3C                 CMP #SP_LOCK_10   ;CERRADURA 10
05952  2551  D0 05                 BNE CARGARLOCK10_2
05953  2553  A9 C9                 LDA #SPRITE_LOCK_10
05954  2555  4C 63 25              JMP ENDCARGASPRITE
05955  2558             
05956  2558             CARGARLOCK10_2 
05957  2558  C9 3D                 CMP #SP_LOCK_10_2   ;CERRADURA 10 QUE NO SE ALCANZA
05958  255A  D0 05                 BNE CARGARPLAYER
05959  255C  A9 C7                 LDA #SPRITE_LOCK_10_2
05960  255E  4C 63 25              JMP ENDCARGASPRITE
05961  2561             
05962  2561             CARGARPLAYER 
05963  2561  A9 40                 LDA #SPRITE_PLAYER      ;JUGADOR
05964  2563                        
05965  2563             ENDCARGASPRITE 
05966  2563  9D F8 CF              STA SPRITE_POINTER_BASE,X
05967  2566  60                    RTS
05968  2567             
05969  2567             ;------------------------------------------------------------
05970  2567             ;ISCHARBLOCKING
05971  2567             ;CHECKS IF A CHAR IS BLOCKING
05972  2567             ;PARAM1 = CHAR_POS_X
05973  2567             ;PARAM2 = CHAR_POS_Y
05974  2567             ;RETURNS 1 FOR BLOCKING, 0 FOR NOT BLOCKING
05975  2567             ;------------------------------------------------------------
05976  2567             ISCHARBLOCKING 
05977  2567  C9 20                 CMP #$20
05978  2569  F0 07                 BEQ .NOBLOCKING
05979  256B  C9 F8                 CMP #$F8
05980  256D  F0 03                 BEQ .NOBLOCKING
05981  256F                        
05982  256F  A9 01                 LDA #1
05983  2571  60                    RTS
05984  2572                        
05985  2572             .NOBLOCKING 
05986  2572  A9 00                 LDA #0
05987  2574  60                    RTS
05988  2575             
05989  2575             ;CUSTOM SOUND EFFECTS PLAYER FOR
05990  2575             ;C64 PORT OF ABU SIMBEL
05991  2575             ;BY RICHARD BAYLISS
05992  2575             
05993  2575             ;DESIRED SOUND EFFECTS FOR GAME ARE:
05994  2575             ;
05995  2575             ;- 1-STEPS (WHEN THE CARACTER WALKDS ALONG THE TOMBS)
05996  2575             ;- 2-CHARACTER JUMP (LONG JUMP AND SHORT JUMP)
05997  2575             ;- 3-DROP FALLING
05998  2575             ;- 4-PICKING UP AN OBJECT
05999  2575             ;- 5-WHEN YOU LOSE A LIFE
06000  2575             ;- 6-GAME OVER SOUND
06001  2575             ;- 7-GOTA
06002  2575             ;- 8-ABRIR PUERTA
06003  2575             ;- 9-TRANSPORTAR
06004  2575             ; 10 SYS (2304)
06005  2575             
06006  2575             ;SFXINIT = $1000 ;WHEN YOU MAKE THE SFX
06007  2575             ;SFXPLAY = $1003 ;ADDRESSES CAN BE CHANGED
06008  2575             ;                ;TO SUIT YOUR GAME PROGRAM
06009  2575             ;*=$0801
06010  2575             
06011  2575             ;        BYTE    $0E, $08, $0A, $00, $9E, $20, $28,  $32, $33, $30, $34, $29, $00, $00, $00
06012  2575             
06013  2575             ;        *=$0900 ;TEST PROGRAM
06014  2575             
06015  2575             SID_CONTROL_V1 = $D404  ;54276
06016  2575             SID_CONTROL_V2 = $D40B  ;54283
06017  2575             SID_CONTROL_V3 = $D412  ;54290
06018  2575             
06019  2575             SID_FREQ_V1 = $D401  ;54273
06020  2575             SID_FREQ_V2 = $D408  ;54280
06021  2575             SID_FREQ_V3 = $D40F  ;54287
06022  2575             
06023  2575             SID_PULSE_WIDTH_LO_V1 = $D402      ;54274
06024  2575             SID_PULSE_WIDTH_LO_V2 = $D409      ;54281
06025  2575             SID_PULSE_WIDTH_LO_V3 = $D410      ;54288
06026  2575             
06027  2575             SID_PULSE_WIDTH_HI_V1 = $D403      ;54275
06028  2575             SID_PULSE_WIDTH_HI_V2 = $D40A      ;54282
06029  2575             SID_PULSE_WIDTH_HI_V3 = $D411      ;54289
06030  2575             
06031  2575             SID_AD_V1  = $D405      ;54277
06032  2575             SID_AD_V2  = $D40C      ;54284
06033  2575             SID_AD_V3  = $D413      ;54291
06034  2575             
06035  2575             SID_SR_V1  = $D406      ;54278
06036  2575             SID_SR_V2  = $D40D      ;54285
06037  2575             SID_SR_V3  = $D414      ;54292
06038  2575             
06039  2575             SID_VOL_FILTERS = $D418      ;54296
06040  2575             
06041  2575             
06042  2575             INITSOUNDS 
06043  2575  A9 FF                 LDA #$FF
06044  2577  8D 04 D4              STA SID_CONTROL_V1
06045  257A  8D 0B D4              STA SID_CONTROL_V2
06046  257D  8D 12 D4              STA SID_CONTROL_V3
06047  2580  A9 0A                 LDA #$0A
06048  2582  8D 05 D4              STA SID_AD_V1
06049  2585  8D 0C D4              STA SID_AD_V2
06050  2588  8D 13 D4              STA SID_AD_V3
06051  258B  A9 AA                 LDA #$AA
06052  258D  8D 06 D4              STA SID_SR_V1
06053  2590  8D 0D D4              STA SID_SR_V2
06054  2593  8D 14 D4              STA SID_SR_V3
06055  2596                        
06056  2596  A9 0F                 LDA #$0F
06057  2598  8D 18 D4              STA SID_VOL_FILTERS
06058  259B             
06059  259B  60                    RTS
06060  259C             
06061  259C             
06062  259C             
06063  259C             INITPICKEDFX 
06064  259C                        
06065  259C  8D DD 26              STA FXNO
06066  259F  A2 00                 LDX #$00
06067  25A1  8E DC 26              STX FXPOINTER
06068  25A4  AD DD 26              LDA FXNO
06069  25A7             
06070  25A7  C9 01                 CMP #$01 ;SOUND NUMBER 1?
06071  25A9  D0 15                 BNE NOTSOUND1
06072  25AB             
06073  25AB                        ;SOUND 1 DETECTED, SETUP THE LO
06074  25AB                        ;AND HI BYTE VALUES OF SOUND TABLE
06075  25AB                        ;
06076  25AB                        ;SFX OF THE PLAYER WALKING
06077  25AB                        ;-------------------------
06078  25AB  A9 DE                 LDA #<FXWAVE1
06079  25AD  8D 94 26              STA FXSM1+1
06080  25B0  A9 26                 LDA #>FXWAVE1
06081  25B2  8D 95 26              STA FXSM1+2
06082  25B5  A9 E7                 LDA #<FXVOICE1
06083  25B7  8D A6 26              STA FXSM2+1
06084  25BA  A9 26                 LDA #>FXVOICE1
06085  25BC  8D A7 26              STA FXSM2+2
06086  25BF  60                    RTS
06087  25C0             NOTSOUND1
06088  25C0  C9 02                 CMP #$02
06089  25C2  D0 15                 BNE NOTSOUND2
06090  25C4                        ;SET LO/HIBYTE VALUES OF SOUND
06091  25C4                        ;TABLE. SFX OF THE PLAYER
06092  25C4                        ;JUMPING.
06093  25C4             
06094  25C4  A9 F0                 LDA #<FXWAVE2
06095  25C6  8D 94 26              STA FXSM1+1
06096  25C9  A9 26                 LDA #>FXWAVE2
06097  25CB  8D 95 26              STA FXSM1+2
06098  25CE  A9 FE                 LDA #<FXVOICE2
06099  25D0  8D A6 26              STA FXSM2+1
06100  25D3  A9 26                 LDA #>FXVOICE2
06101  25D5  8D A7 26              STA FXSM2+2
06102  25D8  60                    RTS
06103  25D9             NOTSOUND2
06104  25D9             
06105  25D9             ;        CMP #$03
06106  25D9             ;        BNE NOTSOUND3
06107  25D9             
06108  25D9             ;        ;PLAY SFX WHERE PLAYER FALLS
06109  25D9             
06110  25D9             ;        LDA #<FXWAVE3
06111  25D9             ;        STA FXSM1+1
06112  25D9             ;        LDA #>FXWAVE3
06113  25D9             ;        STA FXSM1+2
06114  25D9             ;        LDA #<FXVOICE3
06115  25D9             ;        STA FXSM2+1
06116  25D9             ;        LDA #>FXVOICE3
06117  25D9             ;        STA FXSM2+2
06118  25D9             ;        RTS
06119  25D9             
06120  25D9             NOTSOUND3  
06121  25D9  C9 04                 CMP #$04
06122  25DB  D0 15                 BNE NOTSOUND4
06123  25DD             ;PLAY SFX WHERE PLAYER PICKS AN OBJECT
06124  25DD             
06125  25DD  A9 0C                 LDA #<FXWAVE4
06126  25DF  8D 94 26              STA FXSM1+1
06127  25E2  A9 27                 LDA #>FXWAVE4
06128  25E4  8D 95 26              STA FXSM1+2
06129  25E7  A9 1D                 LDA #<FXVOICE4
06130  25E9  8D A6 26              STA FXSM2+1
06131  25EC  A9 27                 LDA #>FXVOICE4
06132  25EE  8D A7 26              STA FXSM2+2
06133  25F1  60                    RTS
06134  25F2             NOTSOUND4
06135  25F2  C9 05                 CMP #$05
06136  25F4  D0 15                 BNE NOTSOUND5
06137  25F6                        
06138  25F6             ;PLAY SFX WHERE PLAYER DIES
06139  25F6             
06140  25F6  A9 2E                 LDA #<FXWAVE5
06141  25F8  8D 94 26              STA FXSM1+1
06142  25FB  A9 27                 LDA #>FXWAVE5
06143  25FD  8D 95 26              STA FXSM1+2
06144  2600  A9 55                 LDA #<FXVOICE5
06145  2602  8D A6 26              STA FXSM2+1
06146  2605  A9 27                 LDA #>FXVOICE5
06147  2607  8D A7 26              STA FXSM2+2
06148  260A  60                    RTS
06149  260B             
06150  260B             NOTSOUND5
06151  260B  C9 06                 CMP #$06
06152  260D  D0 15                 BNE NOTSOUND6
06153  260F             
06154  260F             ;PLAY SFX FOR GAME OVER
06155  260F             
06156  260F  A9 7C                 LDA #<FXWAVE6
06157  2611  8D 94 26              STA FXSM1+1
06158  2614  A9 27                 LDA #>FXWAVE6
06159  2616  8D 95 26              STA FXSM1+2
06160  2619  A9 A3                 LDA #<FXVOICE6
06161  261B  8D A6 26              STA FXSM2+1
06162  261E  A9 27                 LDA #>FXVOICE6
06163  2620  8D A7 26              STA FXSM2+2
06164  2623  60                    RTS
06165  2624             NOTSOUND6
06166  2624  C9 07                 CMP #$07
06167  2626  D0 15                 BNE NOTSOUND7
06168  2628                        
06169  2628             ;PLAY SFX FOR DRIP
06170  2628  A9 CC                 LDA #<FXWAVE7
06171  262A  8D 94 26              STA FXSM1+1
06172  262D  A9 27                 LDA #>FXWAVE7
06173  262F  8D 95 26              STA FXSM1+2
06174  2632  A9 CF                 LDA #<FXVOICE7
06175  2634  8D A6 26              STA FXSM2+1
06176  2637  A9 27                 LDA #>FXVOICE7
06177  2639  8D A7 26              STA FXSM2+2
06178  263C  60                    RTS
06179  263D             NOTSOUND7
06180  263D  C9 08                 CMP #$08
06181  263F  D0 15                 BNE NOTSOUND8
06182  2641                        
06183  2641             ;PLAY SFX FOR DOOR OPENING
06184  2641             
06185  2641  A9 D2                 LDA #<FXWAVE8
06186  2643  8D 94 26              STA FXSM1+1
06187  2646  A9 27                 LDA #>FXWAVE8
06188  2648  8D 95 26              STA FXSM1+2
06189  264B  A9 F9                 LDA #<FXVOICE8
06190  264D  8D A6 26              STA FXSM2+1
06191  2650  A9 27                 LDA #>FXVOICE8
06192  2652  8D A7 26              STA FXSM2+2
06193  2655  60                    RTS
06194  2656             
06195  2656             ;PLAY SFX FOR NEXT ROOM
06196  2656             NOTSOUND8
06197  2656  C9 09                 CMP #$09
06198  2658  D0 15                 BNE NOTSOUND9
06199  265A             
06200  265A  A9 20                 LDA #<FXWAVE9
06201  265C  8D 94 26              STA FXSM1+1
06202  265F  A9 28                 LDA #>FXWAVE9
06203  2661  8D 95 26              STA FXSM1+2
06204  2664  A9 31                 LDA #<FXVOICE9
06205  2666  8D A6 26              STA FXSM2+1
06206  2669  A9 28                 LDA #>FXVOICE9
06207  266B  8D A7 26              STA FXSM2+2
06208  266E  60                    RTS
06209  266F             
06210  266F             NOTSOUND9
06211  266F  C9 FF                 CMP #$FF
06212  2671  D0 10                 BNE NOTSILENCE
06213  2673  A9 CA                 LDA #<SILENCE
06214  2675  8D 94 26              STA FXSM1+1
06215  2678  8D A6 26              STA FXSM2+1
06216  267B  A9 27                 LDA #>SILENCE
06217  267D  8D 95 26              STA FXSM1+2
06218  2680  8D A7 26              STA FXSM2+2
06219  2683                        
06220  2683             NOTSILENCE 
06221  2683  60                    RTS
06222  2684             
06223  2684             PLAYPICKEDFX 
06224  2684  8A                    TXA
06225  2685  48                    PHA
06226  2686  98                    TYA
06227  2687  48                    PHA
06228  2688             
06229  2688  20 90 26              JSR PLAYSOUNDEFFECT
06230  268B             
06231  268B  68                    PLA
06232  268C  A8                    TAY
06233  268D  68                    PLA
06234  268E  AA                    TAX
06235  268F             
06236  268F  60                    RTS
06237  2690             
06238  2690             ;PLAY SOUND EFFECT ... THIS IS MADE BY
06239  2690             ;CALLING A DELAY THEN A LOOP, TO
06240  2690             ;READ THE TABLE AND STORE IT TO THE
06241  2690             ;CORRECT SETTINGS.
06242  2690             
06243  2690             
06244  2690             PLAYSOUNDEFFECT 
06245  2690  AE DC 26              LDX FXPOINTER
06246  2693             
06247  2693  BD DE 26   FXSM1      LDA FXWAVE1,X
06248  2696  C9 FF                 CMP #$FF
06249  2698  D0 02                 BNE WAVEOK
06250  269A  A9 00                 LDA #$00
06251  269C             
06252  269C             WAVEOK
06253  269C  8D 04 D4              STA SID_CONTROL_V1
06254  269F  8D 0B D4              STA SID_CONTROL_V2
06255  26A2  8D 12 D4              STA SID_CONTROL_V3
06256  26A5             
06257  26A5  BD E7 26   FXSM2      LDA FXVOICE1,X
06258  26A8  C9 FF                 CMP #$FF
06259  26AA  D0 0E                 BNE VOICEOK
06260  26AC  A9 08                 LDA #$08
06261  26AE  8D 01 D4              STA SID_FREQ_V1
06262  26B1  8D 08 D4              STA SID_FREQ_V2
06263  26B4  8D 0F D4              STA SID_FREQ_V3
06264  26B7  4C DB 26              JMP FINISHSFXPOINTER
06265  26BA             
06266  26BA             VOICEOK
06267  26BA  8D 01 D4              STA SID_FREQ_V1
06268  26BD  8D 08 D4              STA SID_FREQ_V2
06269  26C0  8D 0F D4              STA SID_FREQ_V3
06270  26C3             
06271  26C3  A9 08                 LDA #$08
06272  26C5  8D 02 D4              STA SID_PULSE_WIDTH_LO_V1
06273  26C8  8D 03 D4              STA SID_PULSE_WIDTH_HI_V1
06274  26CB             
06275  26CB  8D 09 D4              STA SID_PULSE_WIDTH_LO_V2
06276  26CE  8D 0A D4              STA SID_PULSE_WIDTH_HI_V2
06277  26D1             
06278  26D1  8D 10 D4              STA SID_PULSE_WIDTH_LO_V3
06279  26D4  8D 11 D4              STA SID_PULSE_WIDTH_HI_V3
06280  26D7             
06281  26D7  EE DC 26              INC FXPOINTER
06282  26DA  60                    RTS
06283  26DB             FINISHSFXPOINTER 
06284  26DB  60                    RTS
06285  26DC             
06286  26DC             ;POINTERS AND DELAY
06287  26DC             
06288  26DC             FXPOINTER  
06289  26DC  00                    BYTE 0
06290  26DD             FXNO
06291  26DD  00                    BYTE 0
06292  26DE             
06293  26DE             
06294  26DE             ;SOUND EFFECT 1 - STEPS:
06295  26DE             ;JUST A SIMPLE WHITE NOISE TICK
06296  26DE             
06297  26DE             FXWAVE1
06298  26DE  81 00 00              BYTE $81,$00,$00,$00,$81,$00,$00,$00,$FF
06299  26E7                        ;BYTE $81,$00,$00,$00,$81,$00,$00,$00,$FF
06300  26E7             ;        BYTE $00,$00,$00,$00,$00,$00,$FF,$FF
06301  26E7             ;        BYTE $00,$00,$00,$00,$00,$00,$FF,$FF
06302  26E7             ;        BYTE $00,$00,$00,$00,$00,$00,$FF,$FF
06303  26E7             ;        BYTE $00,$00,$00,$00,$00,$00,$FF,$FF
06304  26E7             
06305  26E7             FXVOICE1
06306  26E7  3C 3C 00              BYTE $3C,$3C,$00,$00,$2A,$2A,$00,$00,$FF
06307  26F0                        ;BYTE $3C,$3C,$00,$00,$2A,$2A,$00,$00,$FF
06308  26F0             ;        BYTE $00,$00,$00,$00,$00,$00,$00,$00
06309  26F0             ;        BYTE $00,$00,$00,$00,$00,$00,$00,$00
06310  26F0             ;        BYTE $00,$00,$00,$00,$00,$00,$00,$00
06311  26F0             ;        BYTE $00,$00,$00,$00,$00,$00,$00,$00
06312  26F0                        
06313  26F0             ;SOUND EFFECT 2 - JUMP
06314  26F0             
06315  26F0             FXWAVE2
06316  26F0  41 41 41              BYTE $41,$41,$41,$41,$41,$41,$41,$41
06317  26F8  41 41 41              BYTE $41,$41,$41,$41,$41,$FF
06318  26FE             ;,$00,$00
06319  26FE             ;        BYTE $00,$00,$00,$00,$00,$00,$00,$00
06320  26FE             ;        BYTE $00,$00,$00,$00,$00,$00,$00,$00
06321  26FE             ;        BYTE $00,$00,$00,$00,$00,$00,$00,$00
06322  26FE             FXVOICE2
06323  26FE  10 14 18              BYTE $10,$14,$18,$1C,$20,$24,$28,$2C
06324  2706  30 34 38              BYTE $30,$34,$38,$3C,$40,$FF
06325  270C             ;,$00,$00
06326  270C             ;        BYTE $00,$00,$00,$00,$00,$00,$00,$00
06327  270C             ;        BYTE $00,$00,$00,$00,$00,$00,$00,$00
06328  270C             ;        BYTE $00,$00,$00,$00,$00,$00,$00,$00
06329  270C             
06330  270C             ;;SOUND EFFECT 3 - FALL
06331  270C             
06332  270C             ;FXWAVE3
06333  270C             ;        BYTE $11,$11,$11,$11,$11,$11,$11,$11
06334  270C             ;        BYTE $11,$11,$11,$11,$11,$11,$11,$11
06335  270C             ;        BYTE $11,$11,$11,$11,$11,$11,$11,$11
06336  270C             ;        BYTE $11,$11,$11,$11,$11,$11,$11,$11
06337  270C             ;        BYTE $11,$11,$11,$11,$11,$11,$00,$00
06338  270C             
06339  270C             ;FXVOICE3
06340  270C             ;        BYTE $60,$60,$5F,$5F,$5E,$5E,$5D,$5D
06341  270C             ;        BYTE $5C,$5C,$5B,$5B,$5A,$5A,$59,$59
06342  270C             ;        BYTE $58,$58,$57,$57,$56,$56,$55,$55
06343  270C             ;        BYTE $54,$54,$53,$53,$52,$52,$51,$51
06344  270C             ;        BYTE $50,$50,$4F,$4F,$4E,$4E,$00,$00
06345  270C                        
06346  270C             ;SOUND EFFECT 4 - PICK UP OBJECT
06347  270C             
06348  270C             FXWAVE4
06349  270C  11 11 11              BYTE $11,$11,$11,$11,$11,$11,$11,$11
06350  2714  11 11 11              BYTE $11,$11,$11,$11,$11,$11,$11,$11
06351  271C  FF                    BYTE $FF
06352  271D             ;,$00,$00,$00,$00,$00,$00,$00
06353  271D             ;        BYTE $00,$00,$00,$00,$00,$00,$00,$00
06354  271D             ;        BYTE $00,$00,$00,$00,$00,$00,$00,$00
06355  271D             
06356  271D             FXVOICE4
06357  271D  30 70 44              BYTE $30,$70,$44,$54,$27,$47,$6C,$3C
06358  2725  10 60 24              BYTE $10,$60,$24,$54,$47,$97,$3C,$14
06359  272D  FF                    BYTE $FF
06360  272E             ;,$00,$00,$00,$00,$00,$00,$00
06361  272E             ;        BYTE $00,$00,$00,$00,$00,$00,$00,$00
06362  272E             ;        BYTE $00,$00,$00,$00,$00,$00,$00,$00
06363  272E             
06364  272E             ;SOUND EFFECT 5 LOSE A LIFE
06365  272E             
06366  272E             FXWAVE5    
06367  272E  81 21 81              BYTE $81,$21,$81,$21,$81,$21,$81,$21
06368  2736  81 21 81              BYTE $81,$21,$81,$21,$81,$21,$81,$21
06369  273E  81 21 81              BYTE $81,$21,$81,$21,$81,$21,$81,$21
06370  2746  81 21 81              BYTE $81,$21,$81,$21,$81,$21,$81,$21
06371  274E  81 21 81              BYTE $81,$21,$81,$21,$81,$21,$FF;,$00
06372  2755             
06373  2755             FXVOICE5
06374  2755  20 20 1F              BYTE $20,$20,$1F,$1F,$1E,$1E,$1D,$1D
06375  275D  1C 1C 1B              BYTE $1C,$1C,$1B,$1B,$1A,$1A,$19,$19
06376  2765  18 18 17              BYTE $18,$18,$17,$17,$16,$16,$15,$15
06377  276D  14 14 13              BYTE $14,$14,$13,$13,$12,$12,$11,$11
06378  2775  10 10 0F              BYTE $10,$10,$0F,$0F,$0E,$0E,$FF;,$00
06379  277C                        
06380  277C             ;SOUND EFFECT 6 GAME OVER
06381  277C             
06382  277C             FXWAVE6
06383  277C  41 41 41              BYTE $41,$41,$41,$41,$41,$41,$41,$41
06384  2784  41 41 41              BYTE $41,$41,$41,$41,$41,$41,$41,$41
06385  278C  41 41 41              BYTE $41,$41,$41,$41,$41,$41,$41,$41
06386  2794  41 41 41              BYTE $41,$41,$41,$41,$41,$41,$41,$41
06387  279C  41 41 41              BYTE $41,$41,$41,$41,$41,$41,$FF;,$00
06388  27A3             FXVOICE6
06389  27A3  0A 0A 0A              BYTE $0A,$0A,$0A,$0A,$0A,$0A,$0A,$0A
06390  27AB  08 08 08              BYTE $08,$08,$08,$08,$08,$08,$08,$08
06391  27B3  05 05 05              BYTE $05,$05,$05,$05,$05,$05,$05,$05
06392  27BB  04 04 04              BYTE $04,$04,$04,$04,$04,$04,$04,$04
06393  27C3  04 04 04              BYTE $04,$04,$04,$04,$04,$04,$FF;,$00
06394  27CA             
06395  27CA             SILENCE
06396  27CA  00 FF                 BYTE $00,$FF;$00,$00,$00,$00,$00,$00,$00
06397  27CC             ;        BYTE $00,$00,$00,$00,$00,$00,$00,$00
06398  27CC             ;        BYTE $00,$00,$00,$00,$00,$00,$00,$00
06399  27CC             ;        BYTE $00,$00,$00,$00,$00,$00,$00,$00
06400  27CC             ;        BYTE $00,$00,$00,$00,$00,$00,$00,$00
06401  27CC             
06402  27CC             ;SOUND EFFECT FOR DRIP SOUND
06403  27CC             
06404  27CC             FXWAVE7
06405  27CC                        
06406  27CC  81 00 FF              BYTE $81,$00,$FF;$00,$00,$00,$81,$00,$00
06407  27CF             ;        BYTE $00,$00,$FF;,$00,$00,$00,$00,$00,$00
06408  27CF             ;        BYTE $00,$00,$00,$00,$00,$00,$00,$00
06409  27CF             ;        BYTE $00,$00,$00,$00,$00,$00,$00,$00
06410  27CF             ;        BYTE $00,$00,$00,$00,$00,$00,$00,$00
06411  27CF             
06412  27CF             FXVOICE7
06413  27CF  70 30 FF              BYTE $70,$30,$FF;$40,$30,$20,$70,$00,$00
06414  27D2             ;        BYTE $00,$00,$FF ;$00,$00,$00,$00,$00,$00
06415  27D2             ;        BYTE $00,$00,$00,$00,$00,$00,$00,$00
06416  27D2             ;        BYTE $00,$00,$00,$00,$00,$00,$00,$00
06417  27D2             ;        BYTE $00,$00,$00,$00,$00,$00,$00,$00
06418  27D2                        
06419  27D2             ;SOUND EFFECT FOR DOOR OPEN
06420  27D2             
06421  27D2             FXWAVE8
06422  27D2  81 81 81              BYTE $81,$81,$81,$81,$81,$81,$81,$81
06423  27DA  81 81 81              BYTE $81,$81,$81,$81,$81,$81,$81,$81
06424  27E2  81 81 81              BYTE $81,$81,$81,$81,$81,$81,$81,$81
06425  27EA  81 81 81              BYTE $81,$81,$81,$81,$81,$81,$81,$81
06426  27F2  81 81 81              BYTE $81,$81,$81,$81,$81,$81,$FF;,$00
06427  27F9             FXVOICE8
06428  27F9  06 09 0B              BYTE $06,$09,$0B,$09,$06,$09,$0B,$09
06429  2801  06 09 0B              BYTE $06,$09,$0B,$09,$06,$09,$0B,$09
06430  2809  06 09 0B              BYTE $06,$09,$0B,$09,$06,$09,$0B,$09
06431  2811  06 09 0B              BYTE $06,$09,$0B,$09,$06,$09,$0B,$09
06432  2819  06 09 0B              BYTE $06,$09,$0B,$09,$06,$09,$FF;,$00
06433  2820             
06434  2820             ;SOUND EFFECT FOR NEXT ROOM
06435  2820             
06436  2820             FXWAVE9
06437  2820  41 41 41              BYTE $41,$41,$41,$41,$41,$41,$41,$41
06438  2828  41 41 41              BYTE $41,$41,$41,$41,$41,$41,$41,$41
06439  2830  FF                    BYTE $FF
06440  2831             ;,$00,$00,$00,$00,$00,$00,$00
06441  2831             ;        BYTE $00,$00,$00,$00,$00,$00,$00,$00
06442  2831             ;        BYTE $00,$00,$00,$00,$00,$00,$00,$00
06443  2831             
06444  2831             FXVOICE9
06445  2831  08 0A 0C              BYTE $08,$0A,$0C,$0E,$10,$11,$12,$14
06446  2839  08 0A 0C              BYTE $08,$0A,$0C,$0E,$10,$11,$12,$14
06447  2841  FF                    BYTE $FF
06448  2842             ;,$00,$00,$00,$00,$00,$00,$00
06449  2842             ;        BYTE $00,$00,$00,$00,$00,$00,$00,$00
06450  2842             ;        BYTE $00,$00,$00,$00,$00,$00,$00,$00
06451  2842                        
06452  2842             
06453  2842             ;*=$0300
06454  2842             
06455  2842             ;------------------------------------------------------------
06456  2842             ;VARIABLES GLOBALES DEL JUEGO
06457  2842             ;------------------------------------------------------------
06458  2842             
06459  2842             ;PLAYER_MOV_DELAY
06460  2842             ;          BYTE CONST_PLAYER_MOV_DELAY
06461  2842             PLAYER_ANIM_DELAY 
06462  2842  03                    BYTE CONST_PLAYER_ANIM_DELAY
06463  2843             CUR_SCREEN 
06464  2843  00                    BYTE 0
06465  2844             SALIDAS_CURR_SCREEN 
06466  2844  00 00 00              BYTE 0,0,0,0
06467  2848             ENEMIES_CUR_SCREEN 
06468  2848  00                    BYTE 0
06469  2849             ENEMY_TYPE 
06470  2849  00 00 00              BYTE 0,0,0,0,0,0
06471  284F             ENEMY_DIRECTION 
06472  284F  00 00 00              BYTE 0,0,0,0,0,0
06473  2855             ENEMY_MOVEMENT 
06474  2855  00 00 00              BYTE 0,0,0,0,0,0
06475  285B             ENEMY_MOV_DELAY 
06476  285B  00 00 00              BYTE 0,0,0,0,0,0
06477  2861             ENEMY_MOV_DELAY_CUR 
06478  2861  00 00 00              BYTE 0,0,0,0,0,0
06479  2867             ENEMY_ANIM_DELAY 
06480  2867  00 00 00              BYTE 0,0,0,0,0,0
06481  286D             ENEMY_ANIM_DELAY_CUR 
06482  286D  00 00 00              BYTE 0,0,0,0,0,0
06483  2873             ENEMY_COLOR 
06484  2873  00 00 00              BYTE 0,0,0,0,0,0
06485  2879             ENEMY_INI_X_POS 
06486  2879  00 00 00              BYTE 0,0,0,0,0,0
06487  287F             ENEMY_INI_Y_POS 
06488  287F  00 00 00              BYTE 0,0,0,0,0,0
06489  2885             ENEMY_END_X_POS 
06490  2885  00 00 00              BYTE 0,0,0,0,0,0
06491  288B             ENEMY_END_Y_POS 
06492  288B  00 00 00              BYTE 0,0,0,0,0,0
06493  2891             SPRITE_POS_X 
06494  2891  00 00 00              BYTE 0,0,0,0,0,0
06495  2897             SPRITE_POS_X_EXTEND 
06496  2897  00                    BYTE 0
06497  2898             SPRITE_POS_Y 
06498  2898  00 00 00              BYTE 0,0,0,0,0,0
06499  289E             SPRITE_CHAR_POS_X 
06500  289E  00 00 00              BYTE 0,0,0,0,0,0
06501  28A4             SPRITE_CHAR_POS_X_DELTA 
06502  28A4  00 00 00              BYTE 0,0,0,0,0,0
06503  28AA             SPRITE_CHAR_POS_Y 
06504  28AA  00 00 00              BYTE 0,0,0,0,0,0
06505  28B0             SPRITE_CHAR_POS_Y_DELTA 
06506  28B0  00 00 00              BYTE 0,0,0,0,0,0
06507  28B6             
06508  28B6             PLAYER_POS_ENTRADA_PANTALLA_X 
06509  28B6  00                    BYTE 0
06510  28B7             PLAYER_POS_ENTRADA_PANTALLA_Y 
06511  28B7  00                    BYTE 0
06512  28B8             PLAYER_ENTRADA_JUMP_POS 
06513  28B8  00                    BYTE 0
06514  28B9             PLAYER_ENTRADA_FALL_POS 
06515  28B9  00                    BYTE 0
06516  28BA             PLAYER_ENTRADA_DIRECCION 
06517  28BA  00                    BYTE 0
06518  28BB             
06519  28BB             BIT_TABLE
06520  28BB  01 02 04              BYTE 1,2,4,8,16,32,64,128
06521  28C3             SCREEN_LINE_OFFSET_TABLE_LO 
06522  28C3  00 28 50              BYTE $00,$28,$50,$78,$A0,$C8,$F0,$18,$40,$68,$90,$B8,$E0,$08,$30,$58,$80,$A8;,$D0,$F8,$20,$48,$70,$98,$C0
06523  28D5             SCREEN_LINE_OFFSET_TABLE_HI 
06524  28D5  CC CC CC              BYTE $CC,$CC,$CC,$CC,$CC,$CC,$CC,$CD,$CD,$CD,$CD,$CD,$CD,$CE,$CE,$CE,$CE,$CE;,$CE,$CE,$CF,$CF,$CF,$CF,$CF
06525  28E7             
06526  28E7             COLOR_LINE_OFFSET_TABLE_HI 
06527  28E7  D8 D8 D8              BYTE $D8,$D8,$D8,$D8,$D8,$D8,$D8,$D9,$D9,$D9,$D9,$D9,$D9,$DA,$DA,$DA,$DA,$DA;,$DA,$DA,$DB,$DB,$DB,$DB,$DB
06528  28F9             
06529  28F9             PLAYER_JUMP_POS 
06530  28F9  00                    BYTE 0
06531  28FA             PLAYER_CURR_JUMP_TABLE_LENGTH 
06532  28FA  00                    BYTE 0
06533  28FB             PLAYER_JUMP_TABLE_SHORT 
06534  28FB  02 02 02              BYTE 2,2,2,2,2,2,2,2,1,1,0,0,0
06535  2908             PLAYER_JUMP_TABLE_LONG 
06536  2908  02 02 02              BYTE 2,2,2,2,2,2,2,2,2,2,2,2,2,2,2,2,2,0,0,0
06537  291C                        
06538  291C             PLAYER_FALL_POS 
06539  291C  00                    BYTE 0
06540  291D             FALL_SPEED_TABLE 
06541  291D  00 00 01              BYTE 0,0,1,1,2,2,2,2,2,2
06542  2927             
06543  2927             INVENTARIO 
06544  2927  00 00                 BYTE 0,0
06545  2929             SCREENS_VISITED 
06546  2929  01 01 00              BYTE 1,1,0,0,0,0,0,0,0,0,0,0,0,0,0,0,0,0,0,0,0,0,0,0,0,0,0,0,0,0,0,0,0,0,0,0,0,0,0,0,0,0,0,0,0,0
06547  2957             SCREENS_DATA_TABLE_HI 
06548  2957  00 00 00              BYTE 0,0,0,0,0,0,0,0,0,0,0,0,0,0,0,0,0,0,0,0,0,0,0,0,0,0,0,0,0,0,0,0,0,0,0,0,0,0,0,0,0,0,0,0,0,0
06549  2985             SCREENS_DATA_TABLE_LO 
06550  2985  00 00 00              BYTE 0,0,0,0,0,0,0,0,0,0,0,0,0,0,0,0,0,0,0,0,0,0,0,0,0,0,0,0,0,0,0,0,0,0,0,0,0,0,0,0,0,0,0,0,0,0
06551  29B3             SCREENS_COLOR_TABLE_HI 
06552  29B3  00 00 00              BYTE 0,0,0,0,0,0,0,0,0,0,0,0,0,0,0,0,0,0,0,0,0,0,0,0,0,0,0,0,0,0,0,0,0,0,0,0,0,0,0,0,0,0,0,0,0,0
06553  29E1             SCREENS_COLOR_TABLE_LO 
06554  29E1  00 00 00              BYTE 0,0,0,0,0,0,0,0,0,0,0,0,0,0,0,0,0,0,0,0,0,0,0,0,0,0,0,0,0,0,0,0,0,0,0,0,0,0,0,0,0,0,0,0,0,0
06555  2A0F             SCREENS_INFO_TABLE_HI 
06556  2A0F  00 00 00              BYTE 0,0,0,0,0,0,0,0,0,0,0,0,0,0,0,0,0,0,0,0,0,0,0,0,0,0,0,0,0,0,0,0,0,0,0,0,0,0,0,0,0,0,0,0,0,0
06557  2A3D             SCREENS_INFO_TABLE_LO 
06558  2A3D  00 00 00              BYTE 0,0,0,0,0,0,0,0,0,0,0,0,0,0,0,0,0,0,0,0,0,0,0,0,0,0,0,0,0,0,0,0,0,0,0,0,0,0,0,0,0,0,0,0,0,0
06559  2A6B             SCREEN_CHARSET 
06560  2A6B  03 03 01              BYTE CS_INI,CS_INI,CS_GEN,CS_GEN,CS_GEN,CS_GEN,CS_GEN,CS_ESF,CS_GEN,CS_GEN
06561  2A75  01 01 05              BYTE CS_GEN,CS_GEN,CS_FIN,CS_INI,CS_FIN,CS_FIN,CS_FIN,CS_FIN,CS_GEN,CS_GEN
06562  2A7F  02 01 01              BYTE CS_ESF,CS_GEN,CS_GEN,CS_ESF,CS_ESF,CS_ESF,CS_ESF,CS_ESF,CS_ESF,CS_ESF
06563  2A89  02 02 02              BYTE CS_ESF,CS_ESF,CS_ESF,CS_ESF,CS_ESF,CS_ESF,CS_ESF,CS_INI,CS_GEN,CS_GEN
06564  2A93  02 01 02              BYTE CS_ESF,CS_GEN,CS_ESF,CS_GEN,CS_FIN,CS_FIN
06565  2A99             SCREEN_CHARSET_ACTUAL 
06566  2A99  06                    BYTE 6
06567  2A9A             
06568  2A9A             CONT_ORIGEN 
06569  2A9A  00                    BYTE 0
06570  2A9B             CONT_DESTINO 
06571  2A9B  00                    BYTE 0
06572  2A9C             CONT_BYTES_LINEA 
06573  2A9C  00                    BYTE 0
06574  2A9D             
06575  2A9D             PUERTAS_ABIERTAS 
06576  2A9D  00 00                 BYTE 0,0
06577  2A9F             COLOR_DIAMANTE 
06578  2A9F  00                    BYTE 0
06579  2AA0             VALOR_DIAMANTE 
06580  2AA0  00                    BYTE 0
06581  2AA1             
06582  2AA1             TECLAS_DEBUG_POS 
06583  2AA1  00                    BYTE 0
06584  2AA2             TECLAS_DEBUG 
06585  2AA2  00 00 00              BYTE 0,0,0,0
06586  2AA6             
06587  2AA6             CONTROL_MOVIMIENTO 
06588  2AA6  00                    BYTE 0
06589  2AA7             
06590  2AA7             PUERTA_FILA_INI 
06591  2AA7  00                    BYTE 0
06592  2AA8             PUERTA_FILA_FIN 
06593  2AA8  00                    BYTE 0
06594  2AA9             PUERTA_COLUMNA_INI 
06595  2AA9  00                    BYTE 0
06596  2AAA             PUERTA_ANCHO 
06597  2AAA  00                    BYTE 0
06598  2AAB             COLOR_PUERTA 
06599  2AAB  00                    BYTE 0
06600  2AAC             
06601  2AAC             CHEAT_INFINITAS 
06602  2AAC  00                    BYTE 0
06603  2AAD             
06604  2AAD             
06605  2AAD             *          = $2C00
06606  2C00             MUSIC_PLAYER 
06607  2C00                        INCBIN"ABUSIMBEL.BIN"
06608  33EC                        
06609  33EC             ;---------------------------------------------------------------
06610  33EC             ;INITTITLEIRQ
06611  33EC             ;INICIALIZA LA IRQ PARA DIBUJAR EL TÍTULO EN PANTALLA
06612  33EC             ;---------------------------------------------------------------
06613  33EC             INITTITLEIRQ 
06614  33EC  20 12 1C              JSR WAITFRAME
06615  33EF  78                    SEI
06616  33F0             
06617  33F0  A9 37                 LDA #$37 ; MAKE SURE THAT IO REGS AT $DXXX
06618  33F2  85 01                 STA $01 ;ARE VISIBLE
06619  33F4             
06620  33F4  A9 7F                 LDA #$7F ;DISABLE CIA #1 GENERATING TIMER IRQS
06621  33F6  8D 0D DC              STA $DC0D ;WHICH ARE USED BY THE SYSTEM TO FLASH CURSOR, ETC
06622  33F9             
06623  33F9  A9 01                 LDA #$01 ;TELL VIC WE WANT HIM GENERATE RASTER IRQS
06624  33FB  8D 1A D0              STA $D01A
06625  33FE             
06626  33FE                        ;LDA #$10 ;NR OF RASTERLINE WE WANT OUR IRQ OCCUR AT
06627  33FE  A9 10                 LDA #16
06628  3400  8D 12 D0              STA $D012
06629  3403             
06630  3403  A9 1B                 LDA #$1B ;MSB OF D011 IS THE MSB OF THE REQUESTED RASTERLINE
06631  3405  8D 11 D0              STA $D011 ;AS RASTERCOUNTER GOES FROM 0-312
06632  3408             
06633  3408                        ;SET IRQ VECTOR TO POINT TO OUR ROUTINE
06634  3408  A9 1A                 LDA #<IRQSETTEXTMODE
06635  340A  8D 14 03              STA $0314
06636  340D  A9 34                 LDA #>IRQSETTEXTMODE
06637  340F  8D 15 03              STA $0315
06638  3412             
06639  3412                        ;ACKNOWLEDGE ANY PENDING CIA TIMER INTERRUPTS
06640  3412                        ;THIS IS JUST SO WE'RE 100% SAFE
06641  3412  AD 0D DC              LDA $DC0D
06642  3415  AD 0D DD              LDA $DD0D
06643  3418             
06644  3418  58                    CLI
06645  3419  60                    RTS
06646  341A             
06647  341A             
06648  341A             ;----------------------------------------------------------------------
06649  341A             ;IRQSETTEXTMODE
06650  341A             ;CONFIGURA LA PARTE DE LA PANTALLA QUE TIENE EL MODO TEXTO
06651  341A             ;----------------------------------------------------------------------
06652  341A             IRQSETTEXTMODE 
06653  341A                        ;ACKNOWLEDGE VIC IRQ
06654  341A  AD 19 D0              LDA $D019
06655  341D  8D 19 D0              STA $D019
06656  3420             
06657  3420                        ;INSTALL SCROLLER IRQ
06658  3420  A9 44                 LDA #<IRQSETBITMAPMODE
06659  3422  8D 14 03              STA $0314
06660  3425  A9 34                 LDA #>IRQSETBITMAPMODE
06661  3427  8D 15 03              STA $0315
06662  342A             
06663  342A                        ;NR OF RASTERLINE WE WANT OUR IRQ OCCUR AT
06664  342A  A9 C9                 LDA #201
06665  342C                        ;LDA #190
06666  342C  8D 12 D0              STA $D012
06667  342F             
06668  342F                        ;DISABLE BITMAP MODE
06669  342F  A9 1B                 LDA #$1B
06670  3431  8D 11 D0              STA $D011
06671  3434             
06672  3434                        ;SET VIC TO BANK 3
06673  3434  AD 00 DD              LDA CIA_PRA
06674  3437  29 FC                 AND #$FC
06675  3439  8D 00 DD              STA CIA_PRA
06676  343C             
06677  343C                        ;BITMAP TO LOWER HALF, SCREEN CHAR POS AT 3 * 1024 ( + 16384)
06678  343C  A9 3E                 LDA #%00111110
06679  343E  8D 18 D0              STA VIC_MEMORY_CONTROL
06680  3441             
06681  3441  4C 31 EA              JMP $EA31
06682  3444             
06683  3444             
06684  3444             
06685  3444             ;----------------------------------------------------------------------
06686  3444             ;IRQSETBITMAPMODE
06687  3444             ;CONFIGURA LA PARTE DE LA PANTALLA QUE TIENE EL BITMAP
06688  3444             ;----------------------------------------------------------------------
06689  3444             IRQSETBITMAPMODE 
06690  3444                        ;ACKNOWLEDGE VIC IRQ
06691  3444  AD 19 D0              LDA $D019
06692  3447  8D 19 D0              STA $D019
06693  344A             
06694  344A                        ;INSTALL TOP PART
06695  344A  A9 1A                 LDA #<IRQSETTEXTMODE
06696  344C  8D 14 03              STA $0314
06697  344F  A9 34                 LDA #>IRQSETTEXTMODE
06698  3451  8D 15 03              STA $0315
06699  3454             
06700  3454                        ;NR OF RASTERLINE WE WANT OUR IRQ OCCUR AT
06701  3454  A9 10                 LDA #16
06702  3456  8D 12 D0              STA $D012
06703  3459             
06704  3459                        ;BITMAP MODUS ON
06705  3459  AD 11 D0              LDA $D011
06706  345C  09 20                 ORA #32
06707  345E                        ;LDA #$3B
06708  345E  8D 11 D0              STA $D011
06709  3461             
06710  3461                        ;SET VIC TO BANK 0
06711  3461  AD 00 DD              LDA CIA_PRA
06712  3464  29 FC                 AND #$FC
06713  3466  09 03                 ORA #$03
06714  3468  8D 00 DD              STA CIA_PRA
06715  346B             
06716  346B                        ;BITMAP TO LOWER HALF, SCREEN CHAR POS AT 3 * 1024 ( + 16384)
06717  346B                        ;LDA #%10111000
06718  346B  AD 18 D0              LDA VIC_MEMORY_CONTROL
06719  346E                        ;ORA #8
06720  346E  A9 1D                 LDA #$1D
06721  3470  8D 18 D0              STA VIC_MEMORY_CONTROL
06722  3473             
06723  3473  4C 31 EA              JMP $EA31
06724  3476             
06725  3476             
06726  3476             RELLENARBITMAPMEMORY 
06727  3476  A9 00                 LDA #0
06728  3478  A2 00                 LDX #0
06729  347A             CLEARLINEASBITMAPSCREENLOOP 
06730  347A  9D 80 36              STA $3680,X
06731  347D  9D A8 36              STA $3680 + 40,X
06732  3480  9D D0 36              STA $3680 + 80,X
06733  3483  9D 20 37              STA $3680 + 160,X
06734  3486  E8                    INX
06735  3487  E0 50                 CPX #80
06736  3489  D0 EF                 BNE CLEARLINEASBITMAPSCREENLOOP
06737  348B             
06738  348B  A9 00                 LDA #0
06739  348D  A2 00                 LDX #0
06740  348F             CLEARLINEASBITMAPSCREENCOLORLOOP 
06741  348F  9D 20 06              STA $0620,X
06742  3492  E8                    INX
06743  3493  E0 28                 CPX #40
06744  3495  D0 F8                 BNE CLEARLINEASBITMAPSCREENCOLORLOOP
06745  3497             
06746  3497  60                    RTS
06747  3498             
06748  3498             PONERQUITARPERGAMINO 
06749  3498  A2 0A                 LDX #10
06750  349A             LOOPPERGAMINO 
06751  349A  9D 06 07              STA BITMAP_SCREEN_COLOR+14,X
06752  349D  9D 2E 07              STA BITMAP_SCREEN_COLOR+54,X
06753  34A0  9D 56 07              STA BITMAP_SCREEN_COLOR+94,X
06754  34A3  9D 7E 07              STA BITMAP_SCREEN_COLOR+134,X
06755  34A6  CA                    DEX
06756  34A7  D0 F1                 BNE LOOPPERGAMINO
06757  34A9             
06758  34A9  60                    RTS
06759  34AA             
06760  34AA             
06761  34AA             BITMAP_COLOR_DATA 
06762  34AA  00 00 00              BYTE $00,$00,$00,$00,$00,$00,$01,$00,$00,$00,$00,$00,$00,$00,$00,$07,$07,$07,$07,$07,$07,$07,$07,$07,$07,$00,$00,$00,$00,$00,$00,$00,$00,$00,$00,$00,$00,$00,$00,$00
06763  34D2  00 00 00              BYTE $00,$00,$00,$00,$05,$01,$01,$01,$00,$00,$00,$00,$00,$00,$00,$07,$07,$77,$77,$77,$77,$77,$77,$07,$07,$00,$00,$00,$00,$00,$00,$01,$01,$00,$01,$01,$00,$00,$00,$00
06764  34FA  00 00 00              BYTE $00,$00,$00,$00,$05,$01,$01,$01,$01,$01,$01,$00,$00,$00,$00,$07,$07,$77,$77,$77,$77,$77,$77,$07,$07,$00,$00,$00,$00,$00,$00,$01,$01,$00,$01,$01,$00,$00,$00,$00
06765  3522  00 00 00              BYTE $00,$00,$00,$00,$05,$05,$05,$05,$01,$01,$01,$00,$00,$00,$00,$07,$07,$07,$07,$07,$07,$07,$07,$07,$07,$00,$00,$01,$01,$01,$00,$01,$01,$05,$05,$00,$00,$00,$00,$00
06766  354A  00 00 00              BYTE $00,$00,$00,$00,$05,$05,$00,$00,$05,$00,$01,$01,$01,$01,$01,$01,$01,$01,$01,$01,$01,$01,$01,$01,$01,$01,$01,$01,$01,$05,$05,$05,$00,$05,$05,$00,$00,$00,$00,$00
06767  3572  00 00 00              BYTE $00,$00,$00,$00,$05,$05,$05,$05,$05,$00,$05,$05,$05,$05,$05,$05,$05,$05,$05,$05,$05,$05,$05,$05,$05,$05,$05,$05,$05,$05,$05,$05,$00,$05,$05,$00,$00,$00,$00,$00
06768  359A             
06769  359A             *=$3770
06770  3770  00 00 00              BYTE $00,$00,$00,$00,$00,$00,$00,$00,$00,$00,$00,$00,$00,$00,$00,$00,$00,$00,$00,$00,$00,$00,$00,$00,$00,$00,$00,$00,$00,$00,$00,$00,$00,$00,$00,$00,$00,$00,$00,$00
06771  3798  00 00 00              BYTE $00,$00,$00,$00,$00,$00,$00,$00,$00,$00,$00,$00,$00,$00,$00,$00,$00,$00,$00,$00,$00,$00,$00,$00,$00,$00,$00,$00,$00,$00,$00,$00,$00,$00,$00,$00,$00,$00,$00,$00
06772  37C0  00 00 00              BYTE $00,$00,$00,$00,$00,$00,$00,$00,$00,$00,$00,$00,$00,$00,$00,$00,$00,$00,$00,$00,$00,$00,$00,$00,$00,$00,$00,$00,$00,$00,$00,$00,$00,$00,$00,$00,$00,$00,$00,$00
06773  37E8  00 00 00              BYTE $00,$00,$00,$00,$00,$00,$00,$00,$FF,$FF,$FF,$FF,$FF,$FF,$FF,$CF,$00,$00,$00,$00,$00,$00,$00,$00,$00,$00,$00,$00,$00,$00,$00,$00,$00,$00,$00,$00,$00,$00,$00,$00
06774  3810  00 00 00              BYTE $00,$00,$00,$00,$00,$00,$00,$00,$00,$00,$00,$00,$00,$00,$00,$00,$00,$00,$00,$00,$00,$00,$00,$00,$00,$00,$00,$00,$00,$00,$00,$00,$00,$00,$00,$00,$00,$00,$00,$00
06775  3838  FF FF FC              BYTE $FF,$FF,$FC,$F9,$F9,$FD,$FF,$FA,$FF,$FF,$CF,$2A,$35,$6A,$B5,$28,$FF,$FF,$FF,$FF,$D5,$AB,$01,$01,$FF,$FF,$FF,$FF,$D5,$80,$00,$00,$FF,$FF,$FF,$FF,$7F,$B9,$60,$00
06776  3860  FF FF FF              BYTE $FF,$FF,$FF,$FF,$FF,$FF,$8C,$08,$FF,$FF,$FF,$FF,$57,$AA,$05,$00,$FF,$FF,$FF,$FF,$D5,$FB,$5C,$08,$FF,$FF,$D3,$AC,$54,$8E,$0D,$14,$FF,$FF,$3F,$9F,$9F,$DF,$DF,$3F
06777  3888  00 00 00              BYTE $00,$00,$00,$00,$00,$00,$00,$00,$00,$00,$00,$00,$00,$00,$00,$00,$00,$00,$00,$00,$00,$00,$00,$00,$00,$00,$00,$00,$00,$00,$00,$00,$00,$00,$00,$00,$00,$00,$00,$00
06778  38B0  00 00 00              BYTE $00,$00,$00,$00,$00,$00,$00,$00,$00,$00,$00,$00,$00,$00,$00,$00,$00,$00,$00,$00,$00,$00,$00,$00,$00,$00,$00,$00,$00,$00,$00,$00,$00,$00,$00,$00,$00,$00,$00,$00
06779  38D8  00 00 00              BYTE $00,$00,$00,$00,$00,$00,$00,$00,$00,$00,$00,$00,$00,$00,$00,$00,$00,$00,$00,$00,$00,$00,$00,$00,$00,$00,$00,$00,$00,$00,$00,$00,$00,$00,$00,$00,$00,$00,$00,$00
06780  3900  00 00 00              BYTE $00,$00,$00,$00,$00,$00,$00,$00,$00,$00,$00,$00,$00,$00,$00,$00,$00,$00,$00,$00,$00,$00,$00,$00,$00,$00,$00,$00,$00,$00,$00,$00,$FF,$FF,$FF,$FF,$FE,$F8,$F7,$E7
06781  3928  FF FC FC              BYTE $FF,$FC,$FC,$C0,$00,$3C,$FC,$FC,$0F,$0F,$1F,$1F,$1F,$07,$00,$78,$FF,$FF,$FF,$FF,$FF,$FF,$3F,$07,$00,$00,$00,$00,$00,$00,$00,$00,$00,$00,$00,$00,$00,$00,$00,$00
06782  3950  00 00 00              BYTE $00,$00,$00,$00,$00,$00,$00,$00,$00,$00,$00,$00,$00,$00,$00,$00,$00,$00,$00,$00,$00,$00,$00,$00,$00,$00,$00,$00,$00,$00,$00,$00,$00,$00,$00,$00,$00,$00,$00,$00
06783  3978  FC FA FC              BYTE $FC,$FA,$FC,$FA,$FC,$FA,$FC,$FA,$30,$28,$30,$28,$30,$28,$30,$28,$00,$00,$00,$00,$00,$00,$00,$00,$00,$00,$00,$00,$00,$00,$00,$00,$00,$00,$00,$00,$00,$00,$00,$00
06784  39A0  00 00 00              BYTE $00,$00,$00,$00,$00,$00,$00,$00,$00,$00,$00,$00,$00,$00,$00,$00,$00,$00,$00,$00,$00,$00,$00,$00,$0C,$14,$0C,$14,$0C,$14,$0C,$14,$5F,$3F,$5F,$3F,$5F,$3F,$5F,$3F
06785  39C8  00 00 00              BYTE $00,$00,$00,$00,$00,$00,$00,$00,$00,$00,$00,$00,$00,$00,$00,$00,$00,$00,$00,$00,$00,$00,$00,$00,$00,$00,$00,$00,$00,$00,$00,$00,$00,$00,$00,$00,$00,$00,$00,$00
06786  39F0  00 00 00              BYTE $00,$00,$00,$00,$00,$00,$00,$00,$FF,$FF,$FF,$FF,$FE,$FC,$F0,$F0,$FF,$EF,$CF,$8F,$0F,$0F,$0F,$0F,$00,$00,$00,$00,$00,$00,$00,$00,$FF,$FF,$FF,$FF,$F8,$80,$E0,$F0
06787  3A18  FF FF FF              BYTE $FF,$FF,$FF,$FF,$01,$07,$1F,$3F,$00,$00,$00,$00,$00,$00,$00,$00,$00,$00,$00,$00,$00,$00,$00,$00,$00,$00,$00,$00,$00,$00,$00,$00,$00,$00,$00,$00,$00,$00,$00,$00
06788  3A40  00 00 00              BYTE $00,$00,$00,$00,$00,$00,$00,$00,$00,$00,$00,$00,$00,$00,$00,$00,$00,$00,$00,$00,$00,$00,$00,$00,$00,$00,$00,$00,$00,$00,$00,$00,$EF,$CF,$CF,$8F,$8F,$87,$87,$87
06789  3A68  F8 F8 F8              BYTE $F8,$F8,$F8,$F8,$F8,$F0,$F0,$F0,$7F,$7F,$7F,$FF,$FF,$FF,$FF,$FF,$C3,$F3,$F9,$F9,$FC,$FC,$FC,$FC,$FF,$FF,$FF,$FF,$FF,$FF,$FF,$8F,$FF,$FF,$FF,$FF,$FF,$FF,$F8,$E0
06790  3A90  FF FF FF              BYTE $FF,$FF,$FF,$FF,$FF,$87,$03,$01,$00,$00,$00,$00,$00,$00,$00,$00,$00,$00,$00,$00,$00,$00,$00,$00,$00,$00,$00,$00,$00,$00,$00,$00,$00,$00,$00,$00,$00,$00,$00,$00
06791  3AB8  FC FA FC              BYTE $FC,$FA,$FC,$FA,$FC,$FA,$FC,$FA,$30,$28,$30,$28,$30,$28,$30,$28,$00,$00,$00,$00,$00,$00,$00,$00,$00,$00,$00,$00,$00,$00,$00,$00,$00,$00,$00,$00,$00,$00,$00,$00
06792  3AE0  00 00 00              BYTE $00,$00,$00,$00,$00,$00,$00,$00,$00,$00,$00,$00,$00,$00,$00,$00,$00,$00,$00,$00,$00,$00,$00,$00,$0C,$14,$0C,$14,$0C,$14,$0C,$14,$5F,$3F,$5F,$3F,$5F,$3F,$5F,$3F
06793  3B08  00 00 00              BYTE $00,$00,$00,$00,$00,$00,$00,$00,$00,$00,$00,$00,$00,$00,$00,$00,$00,$00,$00,$00,$00,$00,$00,$00,$00,$00,$00,$00,$00,$00,$00,$00,$00,$00,$00,$00,$00,$00,$00,$00
06794  3B30  00 00 00              BYTE $00,$00,$00,$00,$00,$00,$00,$00,$F0,$F0,$F0,$F0,$F0,$E0,$E0,$E0,$07,$07,$27,$23,$33,$33,$71,$78,$00,$00,$00,$00,$00,$00,$00,$00,$F0,$F0,$F0,$E1,$E1,$E1,$E3,$E3
06795  3B58  7F 7F FF              BYTE $7F,$7F,$FF,$FF,$FF,$FF,$FF,$FF,$00,$00,$00,$00,$00,$00,$00,$00,$00,$00,$00,$00,$00,$00,$00,$00,$00,$00,$00,$00,$00,$00,$00,$00,$00,$00,$00,$00,$00,$00,$00,$00
06796  3B80  00 00 00              BYTE $00,$00,$00,$00,$00,$00,$00,$00,$00,$00,$00,$00,$00,$00,$00,$00,$00,$00,$00,$00,$00,$00,$00,$00,$00,$00,$00,$00,$00,$00,$00,$00,$83,$C3,$C1,$C0,$E1,$E3,$F7,$FF
06797  3BA8  E1 E1 E1              BYTE $E1,$E1,$E1,$C2,$C2,$C3,$C3,$83,$FF,$FF,$FF,$3F,$00,$00,$80,$FF,$FC,$F8,$F9,$81,$03,$0F,$FF,$FF,$87,$80,$80,$C3,$C3,$C3,$E3,$E1,$80,$02,$1F,$FF,$FF,$FF,$FF,$FF
06798  3BD0  01 01 83              BYTE $01,$01,$83,$C7,$FF,$FF,$FF,$FF,$00,$00,$00,$00,$00,$00,$00,$00,$00,$00,$00,$00,$00,$00,$00,$00,$00,$00,$00,$00,$00,$00,$00,$00,$00,$00,$00,$00,$00,$00,$00,$00
06799  3BF8  FC FA FC              BYTE $FC,$FA,$FC,$FA,$FD,$FE,$FF,$FF,$34,$2A,$15,$1F,$1F,$FF,$FF,$FF,$00,$AA,$FF,$FF,$FF,$FF,$FF,$FF,$21,$FA,$FF,$FF,$FF,$FF,$FF,$FF,$5D,$AF,$FF,$FF,$FF,$FF,$FF,$FF
06800  3C20  53 AF FF              BYTE $53,$AF,$FF,$FF,$FF,$FF,$FF,$FF,$00,$AA,$FF,$FF,$FF,$FF,$FF,$FF,$30,$FA,$FF,$FF,$FF,$FF,$FF,$FF,$2C,$54,$A8,$F8,$F8,$FE,$FF,$FF,$5F,$3F,$5F,$3F,$5F,$3F,$FF,$FF
06801  3C48  00 00 00              BYTE $00,$00,$00,$00,$00,$00,$00,$00,$00,$00,$00,$00,$00,$00,$00,$00,$FF,$FF,$FF,$FF,$FF,$FF,$FF,$8E,$FF,$FF,$FF,$FF,$F0,$80,$00,$3F,$FF,$FF,$FF,$FF,$FF,$3F,$0F,$0F
06802  3C70  00 00 00              BYTE $00,$00,$00,$00,$00,$00,$00,$00,$E0,$E0,$E0,$E0,$E0,$E1,$E1,$C1,$78,$7E,$FF,$FF,$FF,$FF,$FF,$FF,$FF,$7F,$7F,$3F,$3F,$BF,$9F,$9F,$E3,$E3,$C3,$C7,$C7,$C7,$C7,$C7
06803  3C98  00 00 00              BYTE $00,$00,$00,$00,$00,$00,$00,$00,$00,$00,$00,$00,$00,$00,$00,$00,$00,$00,$00,$00,$00,$00,$00,$00,$00,$00,$00,$00,$00,$00,$00,$00,$00,$00,$00,$00,$00,$00,$00,$00
06804  3CC0  00 00 00              BYTE $00,$00,$00,$00,$00,$00,$00,$00,$00,$00,$00,$00,$00,$00,$00,$00,$00,$00,$00,$00,$00,$00,$00,$00,$00,$00,$00,$00,$00,$00,$00,$00,$FF,$FF,$FF,$FF,$FF,$FF,$FF,$FE
06805  3CE8  87 87 87              BYTE $87,$87,$87,$07,$0F,$0F,$0F,$0F,$00,$00,$00,$00,$00,$00,$00,$00,$00,$00,$00,$00,$00,$00,$00,$00,$E1,$E1,$C1,$C1,$C1,$81,$81,$81,$00,$00,$00,$00,$00,$00,$00,$00
06806  3D10  FF FE F8              BYTE $FF,$FE,$F8,$E0,$C1,$C3,$C3,$87,$9F,$0F,$07,$E3,$E3,$F1,$F1,$F8,$FC,$F0,$FC,$FE,$FE,$FF,$FF,$FF,$0F,$01,$00,$0C,$1F,$1F,$1D,$01,$FF,$FF,$00,$00,$FF,$FF,$FF,$FF
06807  3D38  E4 04 0C              BYTE $E4,$04,$0C,$7C,$F8,$F8,$F1,$E3,$1F,$07,$03,$63,$71,$F1,$F8,$7C,$80,$F8,$FE,$FF,$FF,$FF,$FF,$FF,$00,$01,$00,$80,$8C,$C7,$C3,$E3,$F8,$FF,$FF,$FE,$7E,$3E,$1E,$8E
06808  3D60  01 07 0F              BYTE $01,$07,$0F,$3F,$3E,$3E,$3E,$7F,$8F,$83,$00,$38,$38,$3C,$3E,$1E,$FE,$FE,$FE,$FF,$7F,$7F,$1F,$07,$0F,$03,$00,$30,$3F,$7F,$FF,$FF,$FF,$FF,$0F,$00,$E0,$F8,$F8,$F8
06809  3D88  FF FC 80              BYTE $FF,$FC,$80,$01,$3F,$FF,$FF,$FF,$0F,$0F,$1F,$1F,$DF,$FE,$FE,$FE,$8C,$FC,$0C,$0C,$0C,$1E,$1F,$1F,$7F,$7F,$7F,$7F,$3F,$3F,$3F,$3F,$07,$87,$83,$83,$83,$83,$83,$07
06810  3DB0  FF FF FF              BYTE $FF,$FF,$FF,$FF,$FF,$FF,$FF,$FE,$C1,$C3,$C3,$83,$87,$07,$07,$07,$00,$00,$00,$00,$00,$00,$00,$00,$CF,$CF,$CF,$E7,$E7,$E7,$F3,$F3,$CF,$8F,$8F,$8F,$8F,$1F,$1F,$1F
06811  3DD8  00 00 00              BYTE $00,$00,$00,$00,$00,$00,$00,$00,$00,$00,$00,$00,$00,$00,$00,$00,$00,$00,$00,$00,$00,$00,$00,$00,$00,$00,$00,$00,$00,$00,$00,$00,$00,$00,$00,$00,$00,$00,$00,$00
06812  3E00  00 00 00              BYTE $00,$00,$00,$00,$00,$00,$00,$00,$00,$00,$00,$00,$00,$00,$00,$00,$00,$00,$00,$00,$00,$00,$00,$00,$00,$00,$00,$00,$00,$00,$00,$00,$FE,$FE,$FE,$FC,$FC,$F0,$E0,$80
06813  3E28  07 07 07              BYTE $07,$07,$07,$01,$00,$00,$00,$00,$FF,$FF,$FF,$FF,$3F,$07,$01,$00,$FF,$FF,$FF,$FF,$FF,$FF,$FF,$7F,$01,$03,$83,$C3,$FF,$FF,$FF,$FF,$00,$00,$00,$00,$00,$00,$00,$00
06814  3E50  87 87 83              BYTE $87,$87,$83,$C0,$C0,$E0,$F0,$FF,$F8,$F0,$F0,$00,$00,$01,$FF,$FF,$FF,$FF,$F8,$E0,$C0,$80,$03,$FF,$01,$19,$1D,$1F,$3F,$FF,$FF,$FF,$FF,$FF,$FF,$FC,$F8,$C0,$FF,$FF
06815  3E78  C6 CC 0E              BYTE $C6,$CC,$0E,$1F,$3F,$1F,$FF,$FF,$60,$00,$1F,$FF,$FF,$FF,$FF,$FF,$3F,$0F,$03,$C0,$F0,$F0,$FF,$FF,$E3,$E1,$E1,$F0,$30,$00,$FF,$FF,$CE,$E6,$E2,$F0,$38,$18,$FF,$FF
06816  3EA0  7C 7C 7C              BYTE $7C,$7C,$7C,$38,$38,$30,$FF,$FF,$00,$00,$60,$FF,$7F,$3F,$FF,$FF,$01,$20,$38,$FE,$FF,$FE,$FF,$FF,$FF,$7F,$0F,$01,$00,$00,$FF,$FF,$FC,$FC,$FC,$FE,$7E,$00,$FF,$FF
06817  3EC8  7F 7F 7F              BYTE $7F,$7F,$7F,$3F,$03,$00,$FF,$FF,$FE,$FC,$FC,$F8,$F8,$F8,$FF,$FF,$1F,$3F,$3F,$3F,$3F,$7F,$FF,$FF,$87,$C3,$C0,$E0,$F8,$FF,$C0,$FF,$07,$0F,$0F,$0F,$3F,$F0,$00,$FF
06818  3EF0  FE FE F8              BYTE $FE,$FE,$F8,$E0,$00,$00,$00,$FF,$07,$0F,$0F,$0F,$0F,$1F,$1F,$FF,$00,$00,$00,$00,$00,$00,$00,$00,$F9,$F9,$F8,$FC,$FC,$FC,$FE,$FF,$1F,$1F,$1F,$1F,$1F,$3F,$3F,$FF
06819  3F18  00 00 00              BYTE $00,$00,$00,$00,$00,$00,$00,$00,$00,$00,$00,$00,$00,$00,$00,$00,$00,$00,$00,$00,$00,$00,$00,$00,$00,$00,$00,$00,$00,$00,$00,$00,$00,$00,$00,$00,$00,$00,$00,$00
06820  3F40             
06821  3F40             CHARS_INICIAL 
06822  3F40             @          
06823  3F40  00 00 70   	BYTE	0,0,112,126,14,0,0,0 
06824  3F48  30 78 EC   	BYTE	48,120,236,198,254,194,102,110 
06825  3F50  78 6C C6   	BYTE	120,108,198,206,252,198,102,124 
06826  3F58  18 3C 76   	BYTE	24,60,118,224,194,102,60,24 
06827  3F60  F0 D8 CC   	BYTE	240,216,204,198,204,220,248,240 
06828  3F68  18 3C 76   	BYTE	24,60,118,224,242,102,60,24 
06829  3F70  18 3C 76   	BYTE	24,60,118,224,240,192,96,96 
06830  3F78  18 3C 76   	BYTE	24,60,118,224,206,102,60,24 
06831  3F80  22 72 E2   	BYTE	34,114,226,194,254,194,198,206 
06832  3F88  7E 18 18   	BYTE	126,24,24,24,48,48,112,252 
06833  3F90  38 1C 0E   	BYTE	56,28,14,6,6,230,124,56 
06834  3F98  00 00 00   	BYTE	0,0,0,0,0,0,24,24 
06835  3FA0  78 38 30   	BYTE	120,56,48,48,32,98,118,254 
06836  3FA8  22 76 FE   	BYTE	34,118,254,218,194,194,198,206 
06837  3FB0  E6 F2 FA   	BYTE	230,242,250,222,206,198,98,50 
06838  3FB8  18 3C 66   	BYTE	24,60,102,198,198,236,120,48 
06839  3FC0  F8 FC C6   	BYTE	248,252,198,198,252,192,192,224 
06840  3FC8  18 3C 66   	BYTE	24,60,102,198,214,108,62,18 
06841  3FD0  78 FC C6   	BYTE	120,252,198,204,248,216,204,230 
06842  3FD8  0E 38 70   	BYTE	14,56,112,240,56,28,28,240 
06843  3FE0  7F FE 98   	BYTE	127,254,152,24,24,48,48,248 
06844  3FE8  32 62 C2   	BYTE	50,98,194,194,194,198,252,120 
06845  3FF0  66 66 C6   	BYTE	102,102,198,198,198,236,120,48 
06846  3FF8  66 66 24   	BYTE	102,102,36,0,0,0,0,0 
06847  4000  E6 CC 6C   	BYTE	230,204,108,56,56,108,198,226 
06848  4008  E1 C3 C6   	BYTE	225,195,198,204,120,96,112,56 
06849  4010  F8 FE 8C   	BYTE	248,254,140,24,48,98,230,126 
06850  4018  01 01 02   	BYTE	1,1,2,13,58,245,186,255 
06851  4020  2E D5 AB   	BYTE	46,213,171,85,171,85,171,254 
06852  4028  03 03 03   	BYTE	3,3,3,3,1,1,1,1 
06853  4030  A8 F2 EA   	BYTE	168,242,234,246,234,246,234,214 
06854  4038  00 05 02   	BYTE	0,5,2,6,4,5,2,1 
06855  4040  00 00 00   	BYTE	0,0,0,0,0,0,0,0 
06856  4048  08 D4 AA   	BYTE	8,212,170,212,106,212,170,86 
06857  4050  00 0B 00   	BYTE	0,11,0,14,0,11,0,6 
06858  4058  04 8A 07   	BYTE	4,138,7,236,2,188,0,212 
06859  4060  01 07 0F   	BYTE	1,7,15,15,15,14,5,0 
06860  4068  FD FA F5   	BYTE	253,250,245,234,213,170,85,170 
06861  4070  FF FF 55   	BYTE	255,255,85,170,85,170,64,15 
06862  4078  F5 AA 55   	BYTE	245,170,85,170,85,170,0,255 
06863  4080  55 AA 54   	BYTE	85,170,84,169,83,7,255,255 
06864  4088  00 00 00   	BYTE	0,0,0,0,0,7,15,0 
06865  4090  00 00 07   	BYTE	0,0,7,15,127,255,240,0 
06866  4098  1F 7F FF   	BYTE	31,127,255,255,255,255,63,0 
06867  40A0  FF FF FF   	BYTE	255,255,255,255,254,252,224,0 
06868  40A8  F9 F3 E4   	BYTE	249,243,228,201,148,41,84,170 
06869  40B0  06 07 06   	BYTE	6,7,6,5,10,21,40,67 
06870  40B8  9F 5F 9F   	BYTE	159,95,159,31,191,63,127,255 
06871  40C0  7C FE C6   	BYTE	124,254,198,206,218,242,254,124 
06872  40C8  38 78 F8   	BYTE	56,120,248,216,24,24,254,254 
06873  40D0  7C FE C6   	BYTE	124,254,198,6,124,224,254,254 
06874  40D8  7C FE C6   	BYTE	124,254,198,30,30,198,254,124 
06875  40E0  0C 1C 3C   	BYTE	12,28,60,108,204,254,254,28 
06876  40E8  FE FE C0   	BYTE	254,254,192,252,6,198,254,124 
06877  40F0  7C FC C0   	BYTE	124,252,192,252,198,198,254,124 
06878  40F8  FE FE 06   	BYTE	254,254,6,14,28,56,56,56 
06879  4100  7C FE C6   	BYTE	124,254,198,124,198,198,254,124 
06880  4108  7C FE C6   	BYTE	124,254,198,198,126,6,126,124 
06881  4110  F8 F4 F8   	BYTE	248,244,248,244,248,244,248,242 
06882  4118  0D 0C 0F   	BYTE	13,12,15,14,14,7,7,7 
06883  4120  5F 97 5F   	BYTE	95,151,95,159,159,95,159,95 
06884  4128  F8 F6 F8   	BYTE	248,246,248,246,250,244,250,244 
06885  4130  00 0F 3F   	BYTE	0,15,63,127,127,123,125,94 
06886  4138  00 F0 9C   	BYTE	0,240,156,230,250,250,254,254 
06887  4140  00 3F 77   	BYTE	0,63,119,105,66,64,63,0 
06888  4148  00 FC DE   	BYTE	0,252,222,138,34,2,254,0 
06889  4150  00 3F 7B   	BYTE	0,63,123,81,68,64,127,0 
06890  4158  00 F8 EE   	BYTE	0,248,238,82,10,2,252,0 
06891  4160  3C 56 38   	BYTE	60,86,56,94,46,86,44,0 
06892  4168  14 E8 55   	BYTE	20,232,85,170,124,243,87,170 
06893  4170  08 75 CA   	BYTE	8,117,202,61,51,253,234,156 
06894  4178  12 E8 55   	BYTE	18,232,85,170,124,243,87,170 
06895  4180  28 74 F3   	BYTE	40,116,243,175,217,239,86,35 
06896  4188  2C 5E 3E   	BYTE	44,94,62,92,50,30,62,90 
06897  4190  2C 00 2C   	BYTE	44,0,44,94,58,92,44,92 
06898  4198  2E 1E 3C   	BYTE	46,30,60,82,62,86,44,0 
06899  41A0  00 0F 3C   	BYTE	0,15,60,123,119,119,127,127 
06900  41A8  7F 7F 7F   	BYTE	127,127,127,127,127,63,7,0 
06901  41B0  BE 3E 7E   	BYTE	190,62,126,186,186,180,24,0 
06902  41B8  00 F0 FC   	BYTE	0,240,252,254,254,252,194,158 
06903  41C0  7F FF FF   	BYTE	127,255,255,239,247,248,126,125 
06904  41C8  FF FF FE   	BYTE	255,255,254,157,99,251,252,255 
06905  41D0  F9 F7 FF   	BYTE	249,247,255,255,255,223,63,255 
06906  41D8  F6 F7 EF   	BYTE	246,247,239,239,223,63,255,254 
06907  41E0  01 01 03   	BYTE	1,1,3,3,3,2,3,2 
06908  41E8  88 FF 61   	BYTE	136,255,97,33,33,161,33,33 
06909  41F0  19 FF 09   	BYTE	25,255,9,8,9,8,10,8 
06910  41F8  80 80 C0   	BYTE	128,128,192,192,64,64,192,192 
06911  4200  00 00 00   	BYTE	0,0,0,0,1,1,1,1 
06912  4208  84 D4 C4   	BYTE	132,212,196,152,232,8,72,136 
06913  4210  25 23 23   	BYTE	37,35,35,21,17,18,18,17 
06914  4218  00 00 00   	BYTE	0,0,0,128,128,128,128,128 
06915  4220  34 24 74   	BYTE	52,36,116,100,76,100,127,228 
06916  4228  24 24 36   	BYTE	36,36,54,38,42,38,254,39 
06917  4230  59 69 FF   	BYTE	89,105,255,224,176,192,127,52 
06918  4238  22 26 FF   	BYTE	34,38,255,3,5,11,254,44 
06919  4240  FF 6F F0   	BYTE	255,111,240,255,255,61,53,105 
06920  4248  FF 0F F0   	BYTE	255,15,240,239,159,76,68,42 
06921  4250  07 0A 08   	BYTE	7,10,8,8,7,0,0,0 
06922  4258  E0 F0 F0   	BYTE	224,240,240,96,96,0,0,0 
06923  4260  C6 CE DC   	BYTE	198,206,220,248,248,220,206,231 
06924  4268  F4 9C 62   	BYTE	244,156,98,242,218,206,102,114 
06925  4270  00 00 00   	BYTE	0,0,0,0,0,0,0,0 
06926  4278  00 00 00   	BYTE	0,0,0,0,0,0,0,0 
06927  4280  FF FF FF   	BYTE	255,255,255,255,255,255,255,255 
06928  4288  00 00 00   	BYTE	0,0,0,0,0,0,0,0 
06929  4290  00 00 00   	BYTE	0,0,0,0,0,0,0,0 
06930  4298  00 00 00   	BYTE	0,0,0,0,0,0,0,0 
06931  42A0  00 00 00   	BYTE	0,0,0,0,0,0,0,0 
06932  42A8  00 00 00   	BYTE	0,0,0,0,0,0,0,0 
06933  42B0  00 00 00   	BYTE	0,0,0,0,0,0,0,0 
06934  42B8  00 00 00   	BYTE	0,0,0,0,0,0,0,0 
06935  42C0  00 00 00   	BYTE	0,0,0,0,0,0,0,0 
06936  42C8  00 00 00   	BYTE	0,0,0,0,0,0,0,0 
06937  42D0  00 00 00   	BYTE	0,0,0,0,0,0,0,0 
06938  42D8  00 00 00   	BYTE	0,0,0,0,0,0,0,0 
06939  42E0  00 00 00   	BYTE	0,0,0,0,0,0,0,0 
06940  42E8  6E 72 7D   	BYTE	110,114,125,127,127,63,15,0 
06941  42F0  FE EE 5E   	BYTE	254,238,94,94,188,220,208,0 
06942  42F8  00 00 00   	BYTE	0,0,0,0,0,0,0,0 
06943  4300  00 00 00   	BYTE	0,0,0,0,0,0,0,0 
06944  4308  00 00 00   	BYTE	0,0,0,0,0,0,0,0 
06945  4310  00 00 00   	BYTE	0,0,0,0,0,0,0,0 
06946  4318  00 00 00   	BYTE	0,0,0,0,0,0,0,0 
06947  4320  00 00 00   	BYTE	0,0,0,0,0,0,0,0 
06948  4328  7C 9E BF   	BYTE	124,158,191,223,239,111,127,62 
06949  4330  7E E7 FB   	BYTE	126,231,251,123,125,125,63,14 
06950  4338  00 3C 7E   	BYTE	0,60,126,126,250,253,125,122 
06951  4340  01 00 03   	BYTE	1,0,3,0,3,0,7,0 
06952  4348  F8 0B F9   	BYTE	248,11,249,12,254,20,237,108 
06953  4350  1F 1F 5F   	BYTE	31,31,95,31,95,159,87,155 
06954  4358  F4 F3 EC   	BYTE	244,243,236,241,248,243,246,251 
06955  4360  FE 3F 7F   	BYTE	254,63,127,7,251,10,250,10 
06956  4368  E9 F0 C6   	BYTE	233,240,198,132,49,17,138,199 
06957  4370  9A DA 03   	BYTE	154,218,3,31,182,105,148,235 
06958  4378  00 18 BC   	BYTE	0,24,188,126,254,126,254,126 
06959  4380  03 07 07   	BYTE	3,7,7,3,0,0,0,0 
06960  4388  FF FF FF   	BYTE	255,255,255,191,127,127,239,31 
06961  4390  FE FD FA   	BYTE	254,253,250,213,170,213,170,84 
06962  4398  7E 42 7E   	BYTE	126,66,126,67,124,4,118,50 
06963  43A0  00 00 00   	BYTE	0,0,0,0,0,0,1,3 
06964  43A8  3F 47 1F   	BYTE	63,71,31,43,213,235,255,255 
06965  43B0  FA F1 F0   	BYTE	250,241,240,253,253,253,241,247 
06966  43B8  FC 42 7E   	BYTE	252,66,126,66,126,66,126,66 
06967  43C0  01 01 01   	BYTE	1,1,1,1,0,0,0,0 
06968  43C8  ED ED ED   	BYTE	237,237,237,237,237,221,0,31 
06969  43D0  B6 B6 B6   	BYTE	182,182,182,183,182,246,4,246 
06970  43D8  D4 D4 C4   	BYTE	212,212,196,12,252,0,252,128 
06971  43E0  45 62 95   	BYTE	69,98,149,10,69,20,3,42 
06972  43E8  46 8A 51   	BYTE	70,138,81,35,68,136,17,34 
06973  43F0  01 0F F2   	BYTE	1,15,242,62,197,132,72,76 
06974  43F8  95 5A 25   	BYTE	149,90,37,18,9,132,78,49 
06975  4400  07 1C 04   	BYTE	7,28,4,4,4,4,4,4 
06976  4408  C4 78 4E   	BYTE	196,120,78,73,72,72,76,71 
06977  4410  33 37 39   	BYTE	51,55,57,145,95,18,244,24 
06978  4418  D1 11 11   	BYTE	209,17,17,17,17,241,29,39 
06979  4420  02 01 00   	BYTE	2,1,0,0,0,0,0,0 
06980  4428  39 D0 88   	BYTE	57,208,136,68,35,16,8,7 
06981  4430  F8 08 05   	BYTE	248,8,5,6,254,2,1,255 
06982  4438  42 84 08   	BYTE	66,132,8,16,32,64,128,0 
06983  4440  00 00 00   	BYTE	0,0,0,0,0,3,7,1 
06984  4448  00 0F 3F   	BYTE	0,15,63,63,126,238,238,237 
06985  4450  00 FF FF   	BYTE	0,255,255,255,219,219,214,182 
06986  4458  0F FF FF   	BYTE	15,255,255,127,95,222,222,214 
06987  4460  00 00 00   	BYTE	0,0,0,1,15,127,255,255 
06988  4468  00 05 2B   	BYTE	0,5,43,87,63,95,63,31 
06989  4470  00 FC FE   	BYTE	0,252,254,238,246,246,244,236 
06990  4478  2F 1F 2F   	BYTE	47,31,47,31,47,95,63,95 
06991  4480  F4 68 54   	BYTE	244,104,84,172,252,252,252,190 
06992  4488  2F 5C 21   	BYTE	47,92,33,10,37,30,47,23 
06993  4490  7E FC FA   	BYTE	126,252,250,212,106,254,254,252 
06994  4498  2F 17 2F   	BYTE	47,23,47,87,42,85,42,0 
06995  44A0  F4 EA F6   	BYTE	244,234,246,170,222,92,160,0 
06996  44A8  00 1D 3A   	BYTE	0,29,58,117,58,125,122,125 
06997  44B0  00 F4 EA   	BYTE	0,244,234,116,234,212,232,244 
06998  44B8  7E 6F 77   	BYTE	126,111,119,59,53,26,61,31 
06999  44C0  E8 D4 E8   	BYTE	232,212,232,244,250,252,250,252 
07000  44C8  20 F0 F8   	BYTE	32,240,248,252,252,254,253,226 
07001  44D0  00 00 00   	BYTE	0,0,0,0,0,0,0,0 
07002  44D8  01 1F 3E   	BYTE	1,31,62,126,126,125,253,189 
07003  44E0  DF 3F FF   	BYTE	223,63,255,255,255,31,231,251 
07004  44E8  FF FF F1   	BYTE	255,255,241,239,255,255,255,255 
07005  44F0  F0 FC E4   	BYTE	240,252,228,250,253,253,253,255 
07006  44F8  BF BF BF   	BYTE	191,191,191,95,47,31,15,0 
07007  4500  FF 7F 9F   	BYTE	255,127,159,255,254,255,128,0 
07008  4508  FF F8 FF   	BYTE	255,248,255,255,255,31,255,0 
07009  4510  3F 7F FF   	BYTE	63,127,255,254,246,230,28,240 
07010  4518  00 3F 7F   	BYTE	0,63,127,95,95,223,191,179 
07011  4520  00 F0 FC   	BYTE	0,240,252,254,254,230,246,250 
07012  4528  2F 6F 7F   	BYTE	47,111,127,127,127,63,79,119 
07013  4530  FA FA FE   	BYTE	250,250,254,254,248,246,238,222 
07014  4538  7F 3F 3F   	BYTE	127,63,63,30,29,63,127,95 
07015  4540  EE DC AC   	BYTE	238,220,172,108,236,252,252,254 
07016  4548  6F 71 7F   	BYTE	111,113,127,127,127,63,63,15 
07017  4550  FE FE FE   	BYTE	254,254,254,254,250,250,250,196 
07018  4558  7F FF FF   	BYTE	127,255,255,255,255,255,255,255 
07019  4560  FF FF FF   	BYTE	255,255,255,255,255,127,127,31 
07020  4568  EA F5 FF   	BYTE	234,245,255,255,255,255,255,255 
07021  4570  FF FF FF   	BYTE	255,255,255,255,255,255,243,193 
07022  4578  7E FF FF   	BYTE	126,255,255,247,239,223,95,159 
07023  4580  EF F7 F7   	BYTE	239,247,247,239,239,207,183,187 
07024  4588  BF BF DF   	BYTE	191,191,223,255,253,254,254,255 
07025  4590  DF DF EF   	BYTE	223,223,239,243,252,255,254,0 
07026  4598  00 00 00   	BYTE	0,0,0,0,0,0,224,225 
07027  45A0  30 30 3F   	BYTE	48,48,63,15,0,0,0,0 
07028  45A8  00 04 0C   	BYTE	0,4,12,20,36,68,132,252 
07029  45B0  00 00 80   	BYTE	0,0,128,224,114,62,28,0 
07030  45B8  00 00 00   	BYTE	0,0,0,0,112,136,136,136 
07031  45C0  89 89 89   	BYTE	137,137,137,137,137,137,6,0 
07032  45C8  00 3C 24   	BYTE	0,60,36,36,24,24,36,36 
07033  45D0  24 18 18   	BYTE	36,24,24,36,36,36,0,0 
07034  45D8  00 01 02   	BYTE	0,1,2,2,2,1,31,1 
07035  45E0  01 61 7F   	BYTE	1,97,127,1,1,127,97,0 
07036  45E8  00 80 40   	BYTE	0,128,64,64,64,128,248,128 
07037  45F0  80 80 FC   	BYTE	128,128,252,130,130,252,128,0 
07038  45F8  3F 7F 7F   	BYTE	63,127,127,127,127,127,127,127 
07039  4600  E3 DD DD   	BYTE	227,221,221,221,227,255,255,255 
07040  4608  01 7D 45   	BYTE	1,125,69,125,69,125,109,69 
07041  4610  FF FF FF   	BYTE	255,255,255,225,225,240,248,253 
07042  4618  FF FF FF   	BYTE	255,255,255,255,255,255,115,101 
07043  4620  55 75 65   	BYTE	85,117,101,125,69,109,69,117 
07044  4628  F8 F3 F7   	BYTE	248,243,247,240,248,248,248,240 
07045  4630  0B C7 9F   	BYTE	11,199,159,127,127,127,255,255 
07046  4638  7D 65 45   	BYTE	125,101,69,125,69,109,125,109 
07047  4640  F0 F0 F2   	BYTE	240,240,242,243,243,231,231,231 
07048  4648  7F 7F 3F   	BYTE	127,127,63,63,63,159,159,159 
07049  4650  45 6D 7D   	BYTE	69,109,125,109,77,69,117,117 
07050  4658  00 00 00   	BYTE	0,0,0,0,68,170,17,0 
07051  4660  40 40 E0   	BYTE	64,64,224,160,99,47,63,0 
07052  4668  00 00 00   	BYTE	0,0,0,0,128,224,248,0 
07053  4670  0F 3B 0F   	BYTE	15,59,15,3,3,3,7,4 
07054  4678  00 00 00   	BYTE	0,0,0,0,0,0,128,224 
07055  4680  06 07 03   	BYTE	6,7,3,3,3,6,12,24 
07056  4688  38 88 F8   	BYTE	56,136,248,192,192,96,48,24 
07057  4690  00 00 00   	BYTE	0,0,0,60,66,129,255,0 
07058  4698  00 00 08   	BYTE	0,0,8,79,48,0,0,0 
07059  46A0  00 1C 14   	BYTE	0,28,20,252,0,0,0,0 
07060  46A8  00 00 00   	BYTE	0,0,0,255,140,255,0,0 
07061  46B0  00 00 00   	BYTE	0,0,0,255,49,255,0,0 
07062  46B8  00 00 00   	BYTE	0,0,0,0,0,0,0,0 
07063  46C0  00 00 00   	BYTE	0,0,0,0,0,0,0,0 
07064  46C8  00 00 00   	BYTE	0,0,0,0,0,0,0,0 
07065  46D0  00 00 00   	BYTE	0,0,0,0,0,0,0,0 
07066  46D8  00 00 00   	BYTE	0,0,0,0,0,0,0,0 
07067  46E0  00 00 00   	BYTE	0,0,0,0,0,0,0,0 
07068  46E8  00 00 00   	BYTE	0,0,0,0,0,0,0,0 
07069  46F0  00 00 00   	BYTE	0,0,0,0,0,0,0,0 
07070  46F8  00 00 00   	BYTE	0,0,0,0,0,0,0,0 
07071  4700  00 00 00   	BYTE	0,0,0,0,0,0,0,0 
07072  4708  AA 55 FA   	BYTE	170,85,250,255,255,255,255,255 
07073  4710  FF FF FE   	BYTE	255,255,254,255,254,255,255,255 
07074  4718  AA 55 AA   	BYTE	170,85,170,213,170,213,170,213 
07075  4720  AA 55 AA   	BYTE	170,85,170,85,170,85,170,84 
07076  4728  00 00 70   	BYTE	0,0,112,126,14,0,0,0 
07077  4730  0F 0F 0F   	BYTE	15,15,15,15,255,255,255,255 
07078  4738  0F 0F 0F   	BYTE	15,15,15,15,240,240,240,240 
07079  4740             @          
07080  4740             CHARS
07081  4740             @          
07082  4740  00 00 70   	BYTE	0,0,112,126,14,0,0,0 
07083  4748  30 78 EC   	BYTE	48,120,236,198,254,194,102,110 
07084  4750  03 0F 3F   	BYTE	3,15,63,127,126,250,251,235 
07085  4758  FF FF FF   	BYTE	255,255,255,219,219,107,109,109 
07086  4760  F0 D8 CC   	BYTE	240,216,204,198,204,220,248,240 
07087  4768  80 F8 FE   	BYTE	128,248,254,248,115,119,118,22 
07088  4770  00 00 00   	BYTE	0,0,0,192,248,52,124,240 
07089  4778  EB EB E3   	BYTE	235,235,227,240,255,128,255,129 
07090  4780  6D 6D 6D   	BYTE	109,109,109,237,108,111,32,111 
07091  4788  7E 18 18   	BYTE	126,24,24,24,48,48,112,252 
07092  4790  06 E2 F9   	BYTE	6,226,249,248,126,118,119,183 
07093  4798  F0 E0 E0   	BYTE	240,224,224,192,192,64,0,192 
07094  47A0  78 38 30   	BYTE	120,56,48,48,32,98,118,254 
07095  47A8  FF 82 FE   	BYTE	255,130,254,130,254,130,254,130 
07096  47B0  E6 F2 FA   	BYTE	230,242,250,222,206,198,98,50 
07097  47B8  E7 CF 9C   	BYTE	231,207,156,185,243,231,207,159 
07098  47C0  F8 FC C6   	BYTE	248,252,198,198,252,192,192,224 
07099  47C8  33 61 FB   	BYTE	51,97,251,191,215,234,253,255 
07100  47D0  C0 E0 F0   	BYTE	192,224,240,240,248,248,124,252 
07101  47D8  0E 38 70   	BYTE	14,56,112,240,56,28,28,240 
07102  47E0  7F FE 98   	BYTE	127,254,152,24,24,48,48,248 
07103  47E8  FE 82 FE   	BYTE	254,130,254,194,190,160,238,236 
07104  47F0  66 66 C6   	BYTE	102,102,198,198,198,236,120,48 
07105  47F8  FF FF FF   	BYTE	255,255,255,255,249,247,239,255 
07106  4800  FF FF FE   	BYTE	255,255,254,254,255,239,223,223 
07107  4808  FC 3C F8   	BYTE	252,60,248,0,192,240,248,248 
07108  4810  00 00 00   	BYTE	0,0,0,0,0,0,0,0 
07109  4818  00 0F 37   	BYTE	0,15,55,115,123,121,126,95 
07110  4820  00 F0 9C   	BYTE	0,240,156,230,250,250,126,254 
07111  4828  6F 72 7D   	BYTE	111,114,125,127,127,63,15,0 
07112  4830  F6 F6 6E   	BYTE	246,246,110,110,190,220,220,0 
07113  4838  00 01 0F   	BYTE	0,1,15,63,127,127,127,127 
07114  4840  00 00 00   	BYTE	0,0,0,0,0,0,0,0 
07115  4848  00 F0 D8   	BYTE	0,240,216,232,236,244,246,246 
07116  4850  6F 5F 5F   	BYTE	111,95,95,95,99,60,3,0 
07117  4858  FA FA FA   	BYTE	250,250,250,250,254,252,240,0 
07118  4860  00 1F 3B   	BYTE	0,31,59,55,111,111,126,127 
07119  4868  00 E0 F8   	BYTE	0,224,248,240,244,14,222,238 
07120  4870  7F 7F 78   	BYTE	127,127,120,55,55,15,7,0 
07121  4878  EE FE BE   	BYTE	238,254,190,126,254,252,240,0 
07122  4880  00 0F 3F   	BYTE	0,15,63,120,119,119,127,127 
07123  4888  00 F0 FC   	BYTE	0,240,252,254,254,252,194,158 
07124  4890  7F 6F 6F   	BYTE	127,111,111,111,115,63,7,0 
07125  4898  BE 7E 7E   	BYTE	190,126,126,250,250,244,24,0 
07126  48A0  00 1F 3B   	BYTE	0,31,59,55,111,111,127,127 
07127  48A8  00 E0 F8   	BYTE	0,224,248,60,206,246,246,126 
07128  48B0  7E 7E 78   	BYTE	126,126,120,55,55,15,7,0 
07129  48B8  FE FE BE   	BYTE	254,254,190,126,252,252,248,0 
07130  48C0  7C FE C6   	BYTE	124,254,198,206,218,242,254,124 
07131  48C8  38 78 F8   	BYTE	56,120,248,216,24,24,254,254 
07132  48D0  7C FE C6   	BYTE	124,254,198,6,124,224,254,254 
07133  48D8  7C FE C6   	BYTE	124,254,198,30,30,198,254,124 
07134  48E0  0C 1C 3C   	BYTE	12,28,60,108,204,254,254,28 
07135  48E8  FE FE C0   	BYTE	254,254,192,252,6,198,254,124 
07136  48F0  7C FC C0   	BYTE	124,252,192,252,198,198,254,124 
07137  48F8  FE FE 06   	BYTE	254,254,6,14,28,56,56,56 
07138  4900  7C FE C6   	BYTE	124,254,198,124,198,198,254,124 
07139  4908  7C FE C6   	BYTE	124,254,198,198,126,6,126,124 
07140  4910  00 01 0F   	BYTE	0,1,15,63,124,121,127,127 
07141  4918  00 F0 D8   	BYTE	0,240,216,232,44,148,246,246 
07142  4920  6F 5F 5F   	BYTE	111,95,95,95,99,60,3,0 
07143  4928  FA FA FA   	BYTE	250,250,250,218,222,252,240,0 
07144  4930  00 0F 3F   	BYTE	0,15,63,127,127,123,125,94 
07145  4938  00 F0 9C   	BYTE	0,240,156,230,250,250,254,254 
07146  4940  00 3F 77   	BYTE	0,63,119,105,66,64,63,0 
07147  4948  00 FC DE   	BYTE	0,252,222,138,34,2,254,0 
07148  4950  00 3F 7B   	BYTE	0,63,123,81,68,64,127,0 
07149  4958  00 F8 EE   	BYTE	0,248,238,82,10,2,252,0 
07150  4960  3C 56 38   	BYTE	60,86,56,94,46,86,44,0 
07151  4968  14 E8 55   	BYTE	20,232,85,170,124,243,87,170 
07152  4970  08 75 CA   	BYTE	8,117,202,61,51,253,234,156 
07153  4978  12 E8 55   	BYTE	18,232,85,170,124,243,87,170 
07154  4980  28 74 F3   	BYTE	40,116,243,175,217,239,86,35 
07155  4988  2C 5E 3E   	BYTE	44,94,62,92,50,30,62,90 
07156  4990  2C 00 2C   	BYTE	44,0,44,94,58,92,44,92 
07157  4998  2E 1E 3C   	BYTE	46,30,60,82,62,86,44,0 
07158  49A0  00 0F 3C   	BYTE	0,15,60,123,119,119,127,127 
07159  49A8  7F 7F 7F   	BYTE	127,127,127,127,127,63,7,0 
07160  49B0  BE 3E 7E   	BYTE	190,62,126,186,186,180,24,0 
07161  49B8  00 F0 FC   	BYTE	0,240,252,254,254,252,194,158 
07162  49C0  7F FF FF   	BYTE	127,255,255,239,247,248,126,125 
07163  49C8  FF FF FE   	BYTE	255,255,254,157,99,251,252,255 
07164  49D0  F9 F7 FF   	BYTE	249,247,255,255,255,223,63,255 
07165  49D8  F6 F7 EF   	BYTE	246,247,239,239,223,63,255,254 
07166  49E0  D9 DB C0   	BYTE	217,219,192,248,104,148,42,213 
07167  49E8  FF FF BF   	BYTE	255,255,191,223,255,251,63,3 
07168  49F0  DF 3E F8   	BYTE	223,62,248,248,255,255,255,240 
07169  49F8  F0 00 00   	BYTE	240,0,0,0,240,248,240,64 
07170  4A00  2F CF 37   	BYTE	47,207,55,143,31,207,111,223 
07171  4A08  C0 E0 E2   	BYTE	192,224,226,240,242,241,234,217 
07172  4A10  17 D0 9F   	BYTE	23,208,159,48,127,40,183,54 
07173  4A18  E0 00 F0   	BYTE	224,0,240,0,248,0,252,0 
07174  4A20  00 00 00   	BYTE	0,0,0,0,0,0,0,0 
07175  4A28  00 00 00   	BYTE	0,0,0,0,0,0,0,0 
07176  4A30  00 00 00   	BYTE	0,0,0,0,0,0,0,0 
07177  4A38  00 00 00   	BYTE	0,0,0,0,0,0,0,0 
07178  4A40  00 00 00   	BYTE	0,0,0,0,0,0,0,0 
07179  4A48  00 00 00   	BYTE	0,0,0,0,0,0,0,0 
07180  4A50  00 00 00   	BYTE	0,0,0,0,0,0,0,0 
07181  4A58  00 00 00   	BYTE	0,0,0,0,0,0,0,0 
07182  4A60  00 00 00   	BYTE	0,0,0,0,0,0,0,0 
07183  4A68  00 00 00   	BYTE	0,0,0,0,0,0,0,0 
07184  4A70  00 00 00   	BYTE	0,0,0,0,0,0,0,0 
07185  4A78  00 00 00   	BYTE	0,0,0,0,0,0,0,0 
07186  4A80  FF FF FF   	BYTE	255,255,255,255,255,255,255,255 
07187  4A88  00 00 00   	BYTE	0,0,0,0,0,0,0,0 
07188  4A90  00 00 00   	BYTE	0,0,0,0,0,0,0,0 
07189  4A98  00 00 00   	BYTE	0,0,0,0,0,0,0,0 
07190  4AA0  00 00 00   	BYTE	0,0,0,0,0,0,0,0 
07191  4AA8  00 00 00   	BYTE	0,0,0,0,0,0,0,0 
07192  4AB0  00 00 00   	BYTE	0,0,0,0,0,0,0,0 
07193  4AB8  00 00 00   	BYTE	0,0,0,0,0,0,0,0 
07194  4AC0  00 00 00   	BYTE	0,0,0,0,0,0,0,0 
07195  4AC8  00 00 00   	BYTE	0,0,0,0,0,0,0,0 
07196  4AD0  00 00 00   	BYTE	0,0,0,0,0,0,0,0 
07197  4AD8  00 00 00   	BYTE	0,0,0,0,0,0,0,0 
07198  4AE0  00 00 00   	BYTE	0,0,0,0,0,0,0,0 
07199  4AE8  6E 72 7D   	BYTE	110,114,125,127,127,63,15,0 
07200  4AF0  FE EE 5E   	BYTE	254,238,94,94,188,220,208,0 
07201  4AF8  00 00 00   	BYTE	0,0,0,0,0,0,0,0 
07202  4B00  00 00 00   	BYTE	0,0,0,0,0,0,0,0 
07203  4B08  00 00 00   	BYTE	0,0,0,0,0,0,0,0 
07204  4B10  00 00 00   	BYTE	0,0,0,0,0,0,0,0 
07205  4B18  00 00 00   	BYTE	0,0,0,0,0,0,0,0 
07206  4B20  00 00 00   	BYTE	0,0,0,0,0,0,0,0 
07207  4B28  7C 9E BF   	BYTE	124,158,191,223,239,111,127,62 
07208  4B30  7E E7 FB   	BYTE	126,231,251,123,125,125,63,14 
07209  4B38  00 3C 7E   	BYTE	0,60,126,126,250,253,125,122 
07210  4B40  00 28 55   	BYTE	0,40,85,43,87,47,23,47 
07211  4B48  00 1C 7E   	BYTE	0,28,126,254,254,156,236,240 
07212  4B50  1F 2F 56   	BYTE	31,47,86,47,95,42,20,0 
07213  4B58  EE 1E FE   	BYTE	238,30,254,254,254,254,28,0 
07214  4B60  00 1E 3E   	BYTE	0,30,62,93,61,27,63,31 
07215  4B68  00 03 FF   	BYTE	0,3,255,255,255,223,191,215 
07216  4B70  00 FE FE   	BYTE	0,254,254,241,238,254,254,255 
07217  4B78  00 18 BC   	BYTE	0,24,188,126,254,126,254,126 
07218  4B80  2F 5F 2F   	BYTE	47,95,47,87,42,85,40,0 
07219  4B88  AB D7 FF   	BYTE	171,215,255,255,255,95,171,0 
07220  4B90  FF FF BF   	BYTE	255,255,191,95,191,215,224,0 
07221  4B98  FC BC 5C   	BYTE	252,188,92,188,220,190,28,0 
07222  4BA0  00 1D 3A   	BYTE	0,29,58,117,58,125,122,125 
07223  4BA8  00 F4 EA   	BYTE	0,244,234,116,234,212,232,244 
07224  4BB0  7F 6F 77   	BYTE	127,111,119,59,53,27,61,31 
07225  4BB8  E8 D4 E8   	BYTE	232,212,232,244,250,252,250,252 
07226  4BC0  3F 3F 7F   	BYTE	63,63,127,127,119,122,125,126 
07227  4BC8  FA F4 FA   	BYTE	250,244,250,180,122,244,120,244 
07228  4BD0  7F 6F 57   	BYTE	127,111,87,107,21,42,21,0 
07229  4BD8  E8 F4 EA   	BYTE	232,244,234,212,106,244,224,0 
07230  4BE0  45 62 95   	BYTE	69,98,149,10,69,20,3,42 
07231  4BE8  46 8A 51   	BYTE	70,138,81,35,68,136,17,34 
07232  4BF0  01 0F F2   	BYTE	1,15,242,62,197,132,72,76 
07233  4BF8  95 5A 25   	BYTE	149,90,37,18,9,132,78,49 
07234  4C00  07 1C 04   	BYTE	7,28,4,4,4,4,4,4 
07235  4C08  C4 78 4E   	BYTE	196,120,78,73,72,72,76,71 
07236  4C10  33 37 39   	BYTE	51,55,57,145,95,18,244,24 
07237  4C18  D1 11 11   	BYTE	209,17,17,17,17,241,29,39 
07238  4C20  02 01 00   	BYTE	2,1,0,0,0,0,0,0 
07239  4C28  39 D0 88   	BYTE	57,208,136,68,35,16,8,7 
07240  4C30  F8 08 05   	BYTE	248,8,5,6,254,2,1,255 
07241  4C38  42 84 08   	BYTE	66,132,8,16,32,64,128,0 
07242  4C40  70 F8 E4   	BYTE	112,248,228,212,75,20,39,206 
07243  4C48  D3 47 40   	BYTE	211,71,64,67,1,81,12,40 
07244  4C50  9C 70 C0   	BYTE	156,112,192,148,246,3,0,80 
07245  4C58  00 03 07   	BYTE	0,3,7,132,37,51,219,40 
07246  4C60  00 C0 E0   	BYTE	0,192,224,160,32,192,64,16 
07247  4C68  00 05 2B   	BYTE	0,5,43,87,63,95,63,31 
07248  4C70  00 FC FE   	BYTE	0,252,254,238,246,246,244,236 
07249  4C78  2F 1F 2F   	BYTE	47,31,47,31,47,95,63,95 
07250  4C80  F4 68 54   	BYTE	244,104,84,172,252,252,252,190 
07251  4C88  2F 5C 21   	BYTE	47,92,33,10,37,30,47,23 
07252  4C90  7E FC FA   	BYTE	126,252,250,212,106,254,254,252 
07253  4C98  2F 17 2F   	BYTE	47,23,47,87,42,85,42,0 
07254  4CA0  F4 EA F6   	BYTE	244,234,246,170,222,92,160,0 
07255  4CA8  00 1D 3A   	BYTE	0,29,58,117,58,125,122,125 
07256  4CB0  00 F4 EA   	BYTE	0,244,234,116,234,212,232,244 
07257  4CB8  7E 6F 77   	BYTE	126,111,119,59,53,26,61,31 
07258  4CC0  E8 D4 E8   	BYTE	232,212,232,244,250,252,250,252 
07259  4CC8  00 7F 38   	BYTE	0,127,56,127,56,127,56,127 
07260  4CD0  00 FE 1C   	BYTE	0,254,28,254,28,254,28,254 
07261  4CD8  01 1F 3E   	BYTE	1,31,62,126,126,125,253,189 
07262  4CE0  DF 3F FF   	BYTE	223,63,255,255,255,31,231,251 
07263  4CE8  FF FF F1   	BYTE	255,255,241,239,255,255,255,255 
07264  4CF0  F0 FC E4   	BYTE	240,252,228,250,253,253,253,255 
07265  4CF8  BF BF BF   	BYTE	191,191,191,95,47,31,15,0 
07266  4D00  FF 7F 9F   	BYTE	255,127,159,255,254,255,128,0 
07267  4D08  FF F8 FF   	BYTE	255,248,255,255,255,31,255,0 
07268  4D10  3F 7F FF   	BYTE	63,127,255,254,246,230,28,240 
07269  4D18  00 3F 7F   	BYTE	0,63,127,95,95,223,191,179 
07270  4D20  00 F0 FC   	BYTE	0,240,252,254,254,230,246,250 
07271  4D28  2F 6F 7F   	BYTE	47,111,127,127,127,63,79,119 
07272  4D30  FA FA FE   	BYTE	250,250,254,254,248,246,238,222 
07273  4D38  7F 3F 3F   	BYTE	127,63,63,30,29,63,127,95 
07274  4D40  EE DC AC   	BYTE	238,220,172,108,236,252,252,254 
07275  4D48  6F 71 7F   	BYTE	111,113,127,127,127,63,63,15 
07276  4D50  FE FE FE   	BYTE	254,254,254,254,250,250,250,196 
07277  4D58  07 1F 3F   	BYTE	7,31,63,127,103,207,207,255 
07278  4D60  E0 F8 FC   	BYTE	224,248,252,254,254,255,255,255 
07279  4D68  FF FF FF   	BYTE	255,255,255,127,127,63,31,7 
07280  4D70  FF FF FF   	BYTE	255,255,255,254,254,252,248,224 
07281  4D78  03 0F 3F   	BYTE	3,15,63,51,112,104,188,220 
07282  4D80  7F 9C CB   	BYTE	127,156,203,183,247,123,60,31 
07283  4D88  FF DF 3C   	BYTE	255,223,60,120,179,243,248,236 
07284  4D90  C0 F0 FC   	BYTE	192,240,252,124,62,62,127,223 
07285  4D98  D9 DF FF   	BYTE	217,223,255,247,234,221,255,248 
07286  4DA0  8F FE FE   	BYTE	143,254,254,118,174,222,254,62 
07287  4DA8  E0 E0 EC   	BYTE	224,224,236,252,252,252,248,255 
07288  4DB0  1D 1B DB   	BYTE	29,27,219,251,247,247,121,251 
07289  4DB8  F7 EF EB   	BYTE	247,239,235,239,237,234,239,239 
07290  4DC0  DE EE 6E   	BYTE	222,238,110,238,238,238,110,174 
07291  4DC8  FF FC FC   	BYTE	255,252,252,248,212,236,254,250 
07292  4DD0  F7 D7 E7   	BYTE	247,215,231,123,189,221,238,222 
07293  4DD8  EF EF 77   	BYTE	239,239,119,120,63,63,14,5 
07294  4DE0  6F EF DD   	BYTE	111,239,221,59,230,217,63,255 
07295  4DE8  F4 EF FF   	BYTE	244,239,255,252,255,127,142,255 
07296  4DF0  FF 7F BE   	BYTE	255,127,190,254,124,124,176,192 
07297  4DF8  3F 7F 7F   	BYTE	63,127,127,127,127,127,127,127 
07298  4E00  E3 DD DD   	BYTE	227,221,221,221,227,255,255,255 
07299  4E08  01 7D 45   	BYTE	1,125,69,125,69,125,109,69 
07300  4E10  FF FF FF   	BYTE	255,255,255,225,225,240,248,253 
07301  4E18  FF FF FF   	BYTE	255,255,255,255,255,255,115,101 
07302  4E20  55 75 65   	BYTE	85,117,101,125,69,109,69,117 
07303  4E28  F8 F3 F7   	BYTE	248,243,247,240,248,248,248,240 
07304  4E30  0B C7 9F   	BYTE	11,199,159,127,127,127,255,255 
07305  4E38  7D 65 45   	BYTE	125,101,69,125,69,109,125,109 
07306  4E40  F0 F0 F2   	BYTE	240,240,242,243,243,231,231,231 
07307  4E48  7F 7F 3F   	BYTE	127,127,63,63,63,159,159,159 
07308  4E50  45 6D 7D   	BYTE	69,109,125,109,77,69,117,117 
07309  4E58  07 0F 15   	BYTE	7,15,21,56,72,240,144,240 
07310  4E60  E0 F0 28   	BYTE	224,240,40,92,42,111,105,47 
07311  4E68  00 00 1F   	BYTE	0,0,31,39,71,75,75,71 
07312  4E70  88 F8 85   	BYTE	136,248,133,251,199,219,231,255 
07313  4E78  51 5F 21   	BYTE	81,95,33,223,227,219,230,254 
07314  4E80  00 00 F8   	BYTE	0,0,248,132,150,130,134,130 
07315  4E88  41 4B 47   	BYTE	65,75,71,71,67,67,71,95 
07316  4E90  3F 3F 35   	BYTE	63,63,53,35,119,255,127,191 
07317  4E98  FC FC FC   	BYTE	252,252,252,140,238,254,253,251 
07318  4EA0  8A 86 86   	BYTE	138,134,134,130,134,130,130,246 
07319  4EA8  65 25 1F   	BYTE	101,37,31,0,15,31,31,3 
07320  4EB0  5F 5F BF   	BYTE	95,95,191,7,240,248,248,248 
07321  4EB8  F5 F5 FB   	BYTE	245,245,251,192,24,6,56,7 
07322  4EC0  4A 4C F0   	BYTE	74,76,240,0,192,224,224,224 
07323  4EC8  1E 1E 10   	BYTE	30,30,16,15,0,3,4,5 
07324  4ED0  78 80 18   	BYTE	120,128,24,216,0,104,0,216 
07325  4ED8  3F 31 0E   	BYTE	63,49,14,63,31,47,55,55 
07326  4EE0  E0 E0 E0   	BYTE	224,224,224,0,192,192,192,128 
07327  4EE8  06 07 03   	BYTE	6,7,3,3,3,7,15,9 
07328  4EF0  00 70 80   	BYTE	0,112,128,240,240,240,248,24 
07329  4EF8  37 1A 1A   	BYTE	55,26,26,24,31,31,63,36 
07330  4F00  00 80 80   	BYTE	0,128,128,128,128,192,224,32 
07331  4F08  00 00 18   	BYTE	0,0,24,44,95,95,191,255 
07332  4F10  00 00 18   	BYTE	0,0,24,52,250,250,253,255 
07333  4F18  00 00 00   	BYTE	0,0,0,0,0,128,192,255 
07334  4F20  00 00 00   	BYTE	0,0,0,0,0,1,3,255 
07335  4F28  00 00 70   	BYTE	0,0,112,126,14,0,0,0 
07336  4F30  0F 0F 0F   	BYTE	15,15,15,15,255,255,255,255 
07337  4F38  0F 0F 0F   	BYTE	15,15,15,15,240,240,240,240 
07338  4F40             @          
07339  4F40             ;CHARS_PARED_GRANDE
07340  4F40             ;     INCBIN "CHARSPAREDGRANDE.CST",0,255
07341  4F40             CHARS_ESFINGE 
07342  4F40             @          
07343  4F40  00 00 70   	BYTE	0,0,112,126,14,0,0,0 
07344  4F48  30 78 EC   	BYTE	48,120,236,198,254,194,102,110 
07345  4F50  7F 9F E3   	BYTE	127,159,227,247,251,255,222,222 
07346  4F58  FF FE F9   	BYTE	255,254,249,191,190,125,249,250 
07347  4F60  F0 D8 CC   	BYTE	240,216,204,198,204,220,248,240 
07348  4F68  3F FF F0   	BYTE	63,255,240,133,110,54,214,106 
07349  4F70  FF FF 0F   	BYTE	255,255,15,225,218,218,221,90 
07350  4F78  FF F8 E7   	BYTE	255,248,231,255,127,63,159,95 
07351  4F80  FE 3D C5   	BYTE	254,61,197,251,251,251,247,247 
07352  4F88  7E 18 18   	BYTE	126,24,24,24,48,48,112,252 
07353  4F90  BE BD B2   	BYTE	190,189,178,207,223,223,239,247 
07354  4F98  F7 F0 F0   	BYTE	247,240,240,119,96,160,237,225 
07355  4FA0  78 38 30   	BYTE	120,56,48,48,32,98,118,254 
07356  4FA8  AB 2B 00   	BYTE	171,43,0,128,63,33,126,227 
07357  4FB0  E6 F2 FA   	BYTE	230,242,250,222,206,198,98,50 
07358  4FB8  54 54 00   	BYTE	84,84,0,1,252,132,124,199 
07359  4FC0  F8 FC C6   	BYTE	248,252,198,198,252,192,192,224 
07360  4FC8  EF 0F 0F   	BYTE	239,15,15,239,7,7,183,135 
07361  4FD0  F7 FF FF   	BYTE	247,255,255,255,127,127,127,191 
07362  4FD8  0E 38 70   	BYTE	14,56,112,240,56,28,28,240 
07363  4FE0  7F FE 98   	BYTE	127,254,152,24,24,48,48,248 
07364  4FE8  F7 F7 EF   	BYTE	247,247,239,239,239,239,215,59 
07365  4FF0  66 66 C6   	BYTE	102,102,198,198,198,236,120,48 
07366  4FF8  C1 DD C1   	BYTE	193,221,193,193,190,128,128,191 
07367  5000  DD E3 FF   	BYTE	221,227,255,127,255,63,63,188 
07368  5008  BB 47 7F   	BYTE	187,71,127,190,191,124,252,61 
07369  5010  BB 83 03   	BYTE	187,131,3,3,125,1,1,253 
07370  5018  00 0F 37   	BYTE	0,15,55,115,123,121,126,95 
07371  5020  00 F0 9C   	BYTE	0,240,156,230,250,250,126,254 
07372  5028  6F 72 7D   	BYTE	111,114,125,127,127,63,15,0 
07373  5030  F6 F6 6E   	BYTE	246,246,110,110,190,220,220,0 
07374  5038  00 01 0F   	BYTE	0,1,15,63,127,127,127,127 
07375  5040  00 00 00   	BYTE	0,0,0,0,0,0,0,0 
07376  5048  00 F0 D8   	BYTE	0,240,216,232,236,244,246,246 
07377  5050  6F 5F 5F   	BYTE	111,95,95,95,99,60,3,0 
07378  5058  FA FA FA   	BYTE	250,250,250,250,254,252,240,0 
07379  5060  00 1F 3B   	BYTE	0,31,59,55,111,111,126,127 
07380  5068  00 E0 F8   	BYTE	0,224,248,240,244,14,222,238 
07381  5070  7F 7F 78   	BYTE	127,127,120,55,55,15,7,0 
07382  5078  EE FE BE   	BYTE	238,254,190,126,254,252,240,0 
07383  5080  00 0F 3F   	BYTE	0,15,63,120,119,119,127,127 
07384  5088  00 F0 FC   	BYTE	0,240,252,254,254,252,194,158 
07385  5090  7F 6F 6F   	BYTE	127,111,111,111,115,63,7,0 
07386  5098  BE 7E 7E   	BYTE	190,126,126,250,250,244,24,0 
07387  50A0  00 1F 3B   	BYTE	0,31,59,55,111,111,127,127 
07388  50A8  00 E0 F8   	BYTE	0,224,248,60,206,246,246,126 
07389  50B0  7E 7E 78   	BYTE	126,126,120,55,55,15,7,0 
07390  50B8  FE FE BE   	BYTE	254,254,190,126,252,252,248,0 
07391  50C0  7C FE C6   	BYTE	124,254,198,206,218,242,254,124 
07392  50C8  38 78 F8   	BYTE	56,120,248,216,24,24,254,254 
07393  50D0  7C FE C6   	BYTE	124,254,198,6,124,224,254,254 
07394  50D8  7C FE C6   	BYTE	124,254,198,30,30,198,254,124 
07395  50E0  0C 1C 3C   	BYTE	12,28,60,108,204,254,254,28 
07396  50E8  FE FE C0   	BYTE	254,254,192,252,6,198,254,124 
07397  50F0  7C FC C0   	BYTE	124,252,192,252,198,198,254,124 
07398  50F8  FE FE 06   	BYTE	254,254,6,14,28,56,56,56 
07399  5100  7C FE C6   	BYTE	124,254,198,124,198,198,254,124 
07400  5108  7C FE C6   	BYTE	124,254,198,198,126,6,126,124 
07401  5110  35 27 65   	BYTE	53,39,101,107,109,107,77,75 
07402  5118  17 1B 2F   	BYTE	23,27,47,59,57,59,53,55 
07403  5120  35 29 3B   	BYTE	53,41,59,43,57,41,53,31 
07404  5128  4A C4 C4   	BYTE	74,196,196,204,154,149,155,20 
07405  5130  FF FD FE   	BYTE	255,253,254,253,186,217,175,159 
07406  5138  FF 7F 7F   	BYTE	255,127,127,127,255,207,175,87 
07407  5140  FF FE FE   	BYTE	255,254,254,254,255,243,245,234 
07408  5148  FF BF 7F   	BYTE	255,191,127,191,93,155,245,249 
07409  5150  CF 57 4E   	BYTE	207,87,78,54,30,13,13,5 
07410  5158  3E 5E BE   	BYTE	62,94,190,124,253,125,191,125 
07411  5160  3C 56 38   	BYTE	60,86,56,94,46,86,44,0 
07412  5168  14 E8 55   	BYTE	20,232,85,170,124,243,87,170 
07413  5170  08 75 CA   	BYTE	8,117,202,61,51,253,234,156 
07414  5178  12 E8 55   	BYTE	18,232,85,170,124,243,87,170 
07415  5180  28 74 F3   	BYTE	40,116,243,175,217,239,86,35 
07416  5188  2C 5E 3E   	BYTE	44,94,62,92,50,30,62,90 
07417  5190  2C 00 2C   	BYTE	44,0,44,94,58,92,44,92 
07418  5198  2E 1E 3C   	BYTE	46,30,60,82,62,86,44,0 
07419  51A0  7C 7A 7D   	BYTE	124,122,125,62,191,190,253,190 
07420  51A8  F3 EA 72   	BYTE	243,234,114,108,120,176,176,160 
07421  51B0  BA F9 BA   	BYTE	186,249,186,85,54,53,30,21 
07422  51B8  5D 9F 5D   	BYTE	93,159,93,170,108,172,120,168 
07423  51C0  7F FF FF   	BYTE	127,255,255,239,247,248,126,125 
07424  51C8  FF FF FE   	BYTE	255,255,254,157,99,251,252,255 
07425  51D0  F9 F7 FF   	BYTE	249,247,255,255,255,223,63,255 
07426  51D8  F6 F7 EF   	BYTE	246,247,239,239,223,63,255,254 
07427  51E0  BF BC BB   	BYTE	191,188,187,219,215,239,239,223 
07428  51E8  FB FB F7   	BYTE	251,251,247,247,247,199,183,251 
07429  51F0  80 80 BF   	BYTE	128,128,191,128,128,191,128,128 
07430  51F8  1F 0E F7   	BYTE	31,14,247,8,9,250,11,13 
07431  5200  F8 70 E7   	BYTE	248,112,231,16,144,215,80,176 
07432  5208  00 00 FE   	BYTE	0,0,254,0,0,254,0,0 
07433  5210  FF FF FF   	BYTE	255,255,255,255,255,255,255,251 
07434  5218  FF FF FF   	BYTE	255,255,255,255,191,223,237,237 
07435  5220  7E 80 E0   	BYTE	126,128,224,215,160,144,171,144 
07436  5228  F4 05 05   	BYTE	244,5,5,244,5,5,252,6 
07437  5230  AF 20 A0   	BYTE	175,32,160,175,32,160,191,96 
07438  5238  FE 01 07   	BYTE	254,1,7,235,5,9,213,9 
07439  5240  F7 E7 EF   	BYTE	247,231,239,239,239,223,223,221 
07440  5248  00 00 00   	BYTE	0,0,0,0,0,0,0,0 
07441  5250  EB EB F7   	BYTE	235,235,247,247,247,207,191,127 
07442  5258  28 55 28   	BYTE	40,85,40,84,170,192,255,255 
07443  5260  00 00 00   	BYTE	0,0,0,0,0,0,0,0 
07444  5268  00 00 00   	BYTE	0,0,0,0,0,0,0,0 
07445  5270  00 00 00   	BYTE	0,0,0,0,0,0,0,0 
07446  5278  00 00 00   	BYTE	0,0,0,0,0,0,0,0 
07447  5280  FF FF FF   	BYTE	255,255,255,255,255,255,255,255 
07448  5288  00 00 00   	BYTE	0,0,0,0,0,0,0,0 
07449  5290  00 00 00   	BYTE	0,0,0,0,0,0,0,0 
07450  5298  00 00 00   	BYTE	0,0,0,0,0,0,0,0 
07451  52A0  00 00 00   	BYTE	0,0,0,0,0,0,0,0 
07452  52A8  00 00 00   	BYTE	0,0,0,0,0,0,0,0 
07453  52B0  00 00 00   	BYTE	0,0,0,0,0,0,0,0 
07454  52B8  00 00 00   	BYTE	0,0,0,0,0,0,0,0 
07455  52C0  00 00 00   	BYTE	0,0,0,0,0,0,0,0 
07456  52C8  00 00 00   	BYTE	0,0,0,0,0,0,0,0 
07457  52D0  00 00 00   	BYTE	0,0,0,0,0,0,0,0 
07458  52D8  00 00 00   	BYTE	0,0,0,0,0,0,0,0 
07459  52E0  00 00 00   	BYTE	0,0,0,0,0,0,0,0 
07460  52E8  6E 72 7D   	BYTE	110,114,125,127,127,63,15,0 
07461  52F0  FE EE 5E   	BYTE	254,238,94,94,188,220,208,0 
07462  52F8  00 00 00   	BYTE	0,0,0,0,0,0,0,0 
07463  5300  00 00 00   	BYTE	0,0,0,0,0,0,0,0 
07464  5308  00 00 00   	BYTE	0,0,0,0,0,0,0,0 
07465  5310  00 00 00   	BYTE	0,0,0,0,0,0,0,0 
07466  5318  00 00 00   	BYTE	0,0,0,0,0,0,0,0 
07467  5320  00 00 00   	BYTE	0,0,0,0,0,0,0,0 
07468  5328  00 00 00   	BYTE	0,0,0,0,0,0,0,0 
07469  5330  00 00 00   	BYTE	0,0,0,0,0,0,0,0 
07470  5338  00 00 00   	BYTE	0,0,0,0,0,0,0,0 
07471  5340  00 28 55   	BYTE	0,40,85,43,87,47,23,47 
07472  5348  00 1C 7E   	BYTE	0,28,126,254,254,156,236,240 
07473  5350  1F 2F 56   	BYTE	31,47,86,47,95,42,20,0 
07474  5358  EE 1E FE   	BYTE	238,30,254,254,254,254,28,0 
07475  5360  00 1E 3E   	BYTE	0,30,62,93,61,27,63,31 
07476  5368  00 03 FF   	BYTE	0,3,255,255,255,223,191,215 
07477  5370  00 FE FE   	BYTE	0,254,254,241,238,254,254,255 
07478  5378  00 18 BC   	BYTE	0,24,188,126,254,126,254,126 
07479  5380  2F 5F 2F   	BYTE	47,95,47,87,42,85,40,0 
07480  5388  AB D7 FF   	BYTE	171,215,255,255,255,95,171,0 
07481  5390  FF FF BF   	BYTE	255,255,191,95,191,215,224,0 
07482  5398  FC BC 5C   	BYTE	252,188,92,188,220,190,28,0 
07483  53A0  00 1D 3A   	BYTE	0,29,58,117,58,125,122,125 
07484  53A8  00 F4 EA   	BYTE	0,244,234,116,234,212,232,244 
07485  53B0  7F 6F 77   	BYTE	127,111,119,59,53,27,61,31 
07486  53B8  E8 D4 E8   	BYTE	232,212,232,244,250,252,250,252 
07487  53C0  3F 3F 7F   	BYTE	63,63,127,127,119,122,125,126 
07488  53C8  FA F4 FA   	BYTE	250,244,250,180,122,244,120,244 
07489  53D0  7F 6F 57   	BYTE	127,111,87,107,21,42,21,0 
07490  53D8  E8 F4 EA   	BYTE	232,244,234,212,106,244,224,0 
07491  53E0  45 62 95   	BYTE	69,98,149,10,69,20,3,42 
07492  53E8  46 8A 51   	BYTE	70,138,81,35,68,136,17,34 
07493  53F0  01 0F F2   	BYTE	1,15,242,62,197,132,72,76 
07494  53F8  95 5A 25   	BYTE	149,90,37,18,9,132,78,49 
07495  5400  07 1C 04   	BYTE	7,28,4,4,4,4,4,4 
07496  5408  C4 78 4E   	BYTE	196,120,78,73,72,72,76,71 
07497  5410  33 37 39   	BYTE	51,55,57,145,95,18,244,24 
07498  5418  D1 11 11   	BYTE	209,17,17,17,17,241,29,39 
07499  5420  02 01 00   	BYTE	2,1,0,0,0,0,0,0 
07500  5428  39 D0 88   	BYTE	57,208,136,68,35,16,8,7 
07501  5430  F8 08 05   	BYTE	248,8,5,6,254,2,1,255 
07502  5438  42 84 08   	BYTE	66,132,8,16,32,64,128,0 
07503  5440  70 F8 E4   	BYTE	112,248,228,212,75,20,39,206 
07504  5448  D3 47 40   	BYTE	211,71,64,67,1,81,12,40 
07505  5450  9C 70 C0   	BYTE	156,112,192,148,246,3,0,80 
07506  5458  00 03 07   	BYTE	0,3,7,132,37,51,219,40 
07507  5460  00 C0 E0   	BYTE	0,192,224,160,32,192,64,16 
07508  5468  00 05 2B   	BYTE	0,5,43,87,63,95,63,31 
07509  5470  00 FC FE   	BYTE	0,252,254,238,246,246,244,236 
07510  5478  2F 1F 2F   	BYTE	47,31,47,31,47,95,63,95 
07511  5480  F4 68 54   	BYTE	244,104,84,172,252,252,252,190 
07512  5488  2F 5C 21   	BYTE	47,92,33,10,37,30,47,23 
07513  5490  7E FC FA   	BYTE	126,252,250,212,106,254,254,252 
07514  5498  2F 17 2F   	BYTE	47,23,47,87,42,85,42,0 
07515  54A0  F4 EA F6   	BYTE	244,234,246,170,222,92,160,0 
07516  54A8  00 1D 3A   	BYTE	0,29,58,117,58,125,122,125 
07517  54B0  00 F4 EA   	BYTE	0,244,234,116,234,212,232,244 
07518  54B8  7E 6F 77   	BYTE	126,111,119,59,53,26,61,31 
07519  54C0  E8 D4 E8   	BYTE	232,212,232,244,250,252,250,252 
07520  54C8  00 7F 38   	BYTE	0,127,56,127,56,127,56,127 
07521  54D0  00 FE 1C   	BYTE	0,254,28,254,28,254,28,254 
07522  54D8  01 1F 3E   	BYTE	1,31,62,126,126,125,253,189 
07523  54E0  DF 3F FF   	BYTE	223,63,255,255,255,31,231,251 
07524  54E8  FF FF F1   	BYTE	255,255,241,239,255,255,255,255 
07525  54F0  F0 FC E4   	BYTE	240,252,228,250,253,253,253,255 
07526  54F8  BF BF BF   	BYTE	191,191,191,95,47,31,15,0 
07527  5500  FF 7F 9F   	BYTE	255,127,159,255,254,255,128,0 
07528  5508  FF F8 FF   	BYTE	255,248,255,255,255,31,255,0 
07529  5510  3F 7F FF   	BYTE	63,127,255,254,246,230,28,240 
07530  5518  00 3F 7F   	BYTE	0,63,127,95,95,223,191,179 
07531  5520  00 F0 FC   	BYTE	0,240,252,254,254,230,246,250 
07532  5528  2F 6F 7F   	BYTE	47,111,127,127,127,63,79,119 
07533  5530  FA FA FE   	BYTE	250,250,254,254,248,246,238,222 
07534  5538  7F 3F 3F   	BYTE	127,63,63,30,29,63,127,95 
07535  5540  EE DC AC   	BYTE	238,220,172,108,236,252,252,254 
07536  5548  6F 71 7F   	BYTE	111,113,127,127,127,63,63,15 
07537  5550  FE FE FE   	BYTE	254,254,254,254,250,250,250,196 
07538  5558  07 1F 3F   	BYTE	7,31,63,127,103,207,207,255 
07539  5560  E0 F8 FC   	BYTE	224,248,252,254,254,255,255,255 
07540  5568  FF FF FF   	BYTE	255,255,255,127,127,63,31,7 
07541  5570  FF FF FF   	BYTE	255,255,255,254,254,252,248,224 
07542  5578  4A C4 C4   	BYTE	74,196,196,204,154,149,155,20 
07543  5580  AC E4 A6   	BYTE	172,228,166,214,182,214,178,210 
07544  5588  E8 D8 F4   	BYTE	232,216,244,220,156,220,172,236 
07545  5590  AC 94 DC   	BYTE	172,148,220,212,156,148,172,248 
07546  5598  CA CE E7   	BYTE	202,206,231,229,231,245,247,184 
07547  55A0  9B D5 DA   	BYTE	155,213,218,214,218,214,218,206 
07548  55A8  4A C4 C4   	BYTE	74,196,196,204,154,149,155,149 
07549  55B0  BA BD 9E   	BYTE	186,189,158,223,222,253,222,173 
07550  55B8  FF FE FE   	BYTE	255,254,254,254,255,243,245,234 
07551  55C0  FF BF 7F   	BYTE	255,191,127,191,93,155,245,249 
07552  55C8  F3 EA 72   	BYTE	243,234,114,108,120,48,48,32 
07553  55D0  FF FF FF   	BYTE	255,255,255,247,247,123,125,45 
07554  55D8  0E 0D 0E   	BYTE	14,13,14,6,7,6,6,3 
07555  55E0  03 03 02   	BYTE	3,3,2,3,1,0,0,0 
07556  55E8  FF FF FF   	BYTE	255,255,255,255,255,255,255,245 
07557  55F0  EA F5 E8   	BYTE	234,245,232,208,104,208,232,80 
07558  55F8  90 E0 F0   	BYTE	144,224,240,112,96,96,96,64 
07559  5600  DF BF DF   	BYTE	223,191,223,175,215,239,251,221 
07560  5608  AA 54 A0   	BYTE	170,84,160,64,160,64,64,0 
07561  5610  FF FF FF   	BYTE	255,255,255,255,255,254,253,251 
07562  5618  FD FB F7   	BYTE	253,251,247,207,191,125,248,241 
07563  5620  F2 F5 A3   	BYTE	242,245,163,86,26,118,120,116 
07564  5628  6C 34 38   	BYTE	108,52,56,56,56,24,16,16 
07565  5630  FF FF DF   	BYTE	255,255,223,171,117,191,126,251 
07566  5638  F7 FB F7   	BYTE	247,251,247,238,183,82,165,91 
07567  5640  95 1B 17   	BYTE	149,27,23,11,14,14,6,4 
07568  5648  FF FF FF   	BYTE	255,255,255,255,255,249,250,117 
07569  5650  BE BD 3E   	BYTE	190,189,62,159,95,222,254,222 
07570  5658  AE 4E 2E   	BYTE	174,78,46,84,180,208,160,64 
07571  5660  FF 5F 3F   	BYTE	255,95,63,95,174,205,250,125 
07572  5668  78 74 B8   	BYTE	120,116,184,52,56,24,24,16 
07573  5670  FF FF EF   	BYTE	255,255,239,95,63,47,55,42 
07574  5678  15 0A 0D   	BYTE	21,10,13,10,7,4,4,0 
07575  5680  FF FF FF   	BYTE	255,255,255,255,255,191,103,171 
07576  5688  6B AC 4E   	BYTE	107,172,78,198,71,199,135,135 
07577  5690  03 03 03   	BYTE	3,3,3,3,3,3,1,1 
07578  5698  FF FC F9   	BYTE	255,252,249,250,121,179,167,171 
07579  56A0  D7 EF FF   	BYTE	215,239,255,255,254,245,234,245 
07580  56A8  EB ED CA   	BYTE	235,237,202,132,128,128,0,0 
07581  56B0  FF FA FC   	BYTE	255,250,252,250,117,179,95,190 
07582  56B8  1E 2E 1D   	BYTE	30,46,29,44,28,24,24,8 
07583  56C0  FF FF FB   	BYTE	255,255,251,213,174,253,126,223 
07584  56C8  EF DF EF   	BYTE	239,223,239,119,237,74,165,218 
07585  56D0  A9 D8 E8   	BYTE	169,216,232,208,112,112,96,32 
07586  56D8  FF FF FF   	BYTE	255,255,255,255,255,255,243,207 
07587  56E0  BF 7F 7F   	BYTE	191,127,127,255,127,191,62,62 
07588  56E8  3C 1C 1C   	BYTE	60,28,28,28,8,0,0,0 
07589  56F0  FF F7 F3   	BYTE	255,247,243,183,203,215,238,254 
07590  56F8  FE FA FA   	BYTE	254,250,250,184,120,112,112,32 
07591  5700  FF FF FF   	BYTE	255,255,255,255,255,255,255,255 
07592  5708  05 F4 05   	BYTE	5,244,5,4,119,135,255,255 
07593  5710  A0 2F A0   	BYTE	160,47,160,32,238,97,127,191 
07594  5718  14 AA 14   	BYTE	20,170,20,42,85,3,255,255 
07595  5720  DB D7 EF   	BYTE	219,215,239,239,239,247,249,255 
07596  5728  00 00 70   	BYTE	0,0,112,126,14,0,0,0 
07597  5730  FF FF FF   	BYTE	255,255,255,255,255,255,255,255 
07598  5738  0F 0F 0F   	BYTE	15,15,15,15,240,240,240,240 
07599  5740             @          
07600  5740             CHARS_FINAL 
07601  5740             @          
07602  5740  00 00 70   	BYTE	0,0,112,126,14,0,0,0 
07603  5748  30 78 EC   	BYTE	48,120,236,198,254,194,102,110 
07604  5750  06 0C 0D   	BYTE	6,12,13,25,25,25,25,249 
07605  5758  00 00 00   	BYTE	0,0,0,0,0,0,1,2 
07606  5760  F0 D8 CC   	BYTE	240,216,204,198,204,220,248,240 
07607  5768  BE FE 8C   	BYTE	190,254,140,157,153,153,153,153 
07608  5770  40 C0 F0   	BYTE	64,192,240,127,61,205,153,26 
07609  5778  75 C6 E6   	BYTE	117,198,230,204,204,140,140,140 
07610  5780  00 03 1F   	BYTE	0,3,31,239,207,239,255,255 
07611  5788  7E 18 18   	BYTE	126,24,24,24,48,48,112,252 
07612  5790  57 7D 7D   	BYTE	87,125,125,127,231,199,207,207 
07613  5798  00 80 F6   	BYTE	0,128,246,255,255,255,255,255 
07614  57A0  78 38 30   	BYTE	120,56,48,48,32,98,118,254 
07615  57A8  EA 44 3F   	BYTE	234,68,63,255,255,255,255,127 
07616  57B0  E6 F2 FA   	BYTE	230,242,250,222,206,198,98,50 
07617  57B8  00 00 00   	BYTE	0,0,0,0,255,255,128,31 
07618  57C0  F8 FC C6   	BYTE	248,252,198,198,252,192,192,224 
07619  57C8  AA 44 FE   	BYTE	170,68,254,255,255,255,255,255 
07620  57D0  00 00 00   	BYTE	0,0,0,192,192,0,3,252 
07621  57D8  0E 38 70   	BYTE	14,56,112,240,56,28,28,240 
07622  57E0  7F FE 98   	BYTE	127,254,152,24,24,48,48,248 
07623  57E8  03 07 0E   	BYTE	3,7,14,12,12,14,7,3 
07624  57F0  66 66 C6   	BYTE	102,102,198,198,198,236,120,48 
07625  57F8  AB 47 A7   	BYTE	171,71,167,255,255,255,255,255 
07626  5800  0C 00 7C   	BYTE	12,0,124,255,254,253,255,29 
07627  5808  E0 40 18   	BYTE	224,64,24,28,13,195,199,142 
07628  5810  FA FD FA   	BYTE	250,253,250,253,250,253,250,245 
07629  5818  7E FF FF   	BYTE	126,255,255,255,255,253,252,253 
07630  5820  90 78 50   	BYTE	144,120,80,240,200,128,0,128 
07631  5828  22 55 88   	BYTE	34,85,136,85,170,85,170,85 
07632  5830  00 00 00   	BYTE	0,0,0,0,255,85,136,85 
07633  5838  22 55 88   	BYTE	34,85,136,85,42,85,168,85 
07634  5840  00 00 00   	BYTE	0,0,0,0,0,0,0,0 
07635  5848  00 00 00   	BYTE	0,0,0,0,192,127,136,85 
07636  5850  00 00 00   	BYTE	0,0,0,0,0,0,255,85 
07637  5858  00 00 00   	BYTE	0,0,0,0,0,0,192,127 
07638  5860  00 00 00   	BYTE	0,0,0,0,0,0,0,255 
07639  5868  00 00 00   	BYTE	0,0,0,0,0,0,15,245 
07640  5870  22 55 88   	BYTE	34,85,136,85,42,85,170,85 
07641  5878  06 0D 0A   	BYTE	6,13,10,13,18,117,138,85 
07642  5880  FE FE FE   	BYTE	254,254,254,254,254,254,254,255 
07643  5888  FE FE FE   	BYTE	254,254,254,254,254,254,254,254 
07644  5890  00 7C FE   	BYTE	0,124,254,254,254,254,254,254 
07645  5898  00 00 00   	BYTE	0,0,0,0,0,1,2,5 
07646  58A0  7F FF FF   	BYTE	127,255,255,239,247,248,254,125 
07647  58A8  FF FF FE   	BYTE	255,255,254,157,99,251,252,255 
07648  58B0  F9 F7 FF   	BYTE	249,247,255,255,223,63,255,255 
07649  58B8  F6 F7 EF   	BYTE	246,247,239,239,223,63,255,254 
07650  58C0  7C FE C6   	BYTE	124,254,198,206,218,242,254,124 
07651  58C8  38 78 F8   	BYTE	56,120,248,216,24,24,254,254 
07652  58D0  7C FE C6   	BYTE	124,254,198,6,124,224,254,254 
07653  58D8  7C FE C6   	BYTE	124,254,198,30,30,198,254,124 
07654  58E0  0C 1C 3C   	BYTE	12,28,60,108,204,254,254,28 
07655  58E8  FE FE C0   	BYTE	254,254,192,252,6,198,254,124 
07656  58F0  7C FC C0   	BYTE	124,252,192,252,198,198,254,124 
07657  58F8  FE FE 06   	BYTE	254,254,6,14,28,56,56,56 
07658  5900  7C FE C6   	BYTE	124,254,198,124,198,198,254,124 
07659  5908  7C FE C6   	BYTE	124,254,198,198,126,6,126,124 
07660  5910  00 00 01   	BYTE	0,0,1,3,3,7,31,63 
07661  5918  00 00 FF   	BYTE	0,0,255,255,255,255,255,255 
07662  5920  00 00 F8   	BYTE	0,0,248,255,255,255,255,255 
07663  5928  00 00 00   	BYTE	0,0,0,0,192,240,248,248 
07664  5930  FF 7F FF   	BYTE	255,127,255,1,28,123,14,48 
07665  5938  FF FF FF   	BYTE	255,255,255,255,255,127,191,191 
07666  5940  FF FF FF   	BYTE	255,255,255,255,255,255,255,255 
07667  5948  FC FC FC   	BYTE	252,252,252,252,252,248,248,252 
07668  5950  00 00 10   	BYTE	0,0,16,0,4,4,8,3 
07669  5958  21 62 2C   	BYTE	33,98,44,75,67,73,4,208 
07670  5960  7F 7F FF   	BYTE	127,127,255,255,255,255,31,103 
07671  5968  F8 E8 E0   	BYTE	248,232,224,224,196,196,196,196 
07672  5970  00 01 00   	BYTE	0,1,0,0,0,0,0,0 
07673  5978  0B 87 87   	BYTE	11,135,135,7,0,0,0,0 
07674  5980  FC FC FD   	BYTE	252,252,253,248,7,0,0,0 
07675  5988  38 BF 3F   	BYTE	56,191,63,255,255,15,17,0 
07676  5990  7F 8F F1   	BYTE	127,143,241,255,255,255,255,255 
07677  5998  84 80 00   	BYTE	132,128,0,130,226,178,26,8 
07678  59A0  00 08 24   	BYTE	0,8,36,128,95,31,0,0 
07679  59A8  F8 14 0A   	BYTE	248,20,10,2,0,128,0,0 
07680  59B0  1F 38 34   	BYTE	31,56,52,48,3,15,32,112 
07681  59B8  F0 1E 0F   	BYTE	240,30,15,99,253,249,3,127 
07682  59C0  3E 0C 82   	BYTE	62,12,130,193,249,249,251,247 
07683  59C8  0D 07 FD   	BYTE	13,7,253,252,254,254,126,191 
07684  59D0  00 00 00   	BYTE	0,0,0,0,128,128,128,128 
07685  59D8  00 00 00   	BYTE	0,0,0,0,9,0,3,1 
07686  59E0  10 08 18   	BYTE	16,8,24,123,229,245,225,227 
07687  59E8  0C 7F FF   	BYTE	12,127,255,255,255,255,255,255 
07688  59F0  F5 F3 FF   	BYTE	245,243,255,231,231,239,238,236 
07689  59F8  BF BF BF   	BYTE	191,191,191,191,127,127,255,255 
07690  5A00  80 C0 80   	BYTE	128,192,128,192,192,192,192,192 
07691  5A08  02 00 00   	BYTE	2,0,0,0,7,0,1,0 
07692  5A10  1F 7F 3F   	BYTE	31,127,63,15,241,0,245,15 
07693  5A18  ED EB EF   	BYTE	237,235,239,255,223,223,191,191 
07694  5A20  E0 E0 F0   	BYTE	224,224,240,240,240,248,248,252 
07695  5A28  1F 07 10   	BYTE	31,7,16,0,0,0,0,0 
07696  5A30  FF FF FF   	BYTE	255,255,255,255,125,113,109,125 
07697  5A38  60 60 FF   	BYTE	96,96,255,255,240,0,0,0 
07698  5A40  00 00 FE   	BYTE	0,0,254,128,0,0,0,0 
07699  5A48  00 02 02   	BYTE	0,2,2,0,1,3,3,7 
07700  5A50  1F 3F 7F   	BYTE	31,63,127,127,127,127,127,127 
07701  5A58  7F FF FF   	BYTE	127,255,255,255,255,255,255,255 
07702  5A60  FF FF FF   	BYTE	255,255,255,255,255,250,245,106 
07703  5A68  F4 FA FC   	BYTE	244,250,252,250,253,250,245,250 
07704  5A70  FD FA F5   	BYTE	253,250,245,234,213,170,213,170 
07705  5A78  D5 EA FD   	BYTE	213,234,253,254,253,254,253,250 
07706  5A80  FF FF FF   	BYTE	255,255,255,255,255,255,255,255 
07707  5A88  FD FE F5   	BYTE	253,254,245,234,117,170,85,170 
07708  5A90  00 00 03   	BYTE	0,0,3,6,12,24,48,127 
07709  5A98  00 00 FF   	BYTE	0,0,255,0,0,0,0,255 
07710  5AA0  00 00 C0   	BYTE	0,0,192,96,48,24,12,254 
07711  5AA8  07 3F 5F   	BYTE	7,63,95,32,79,47,79,40 
07712  5AB0  FF FF FF   	BYTE	255,255,255,0,255,135,15,7 
07713  5AB8  07 CF FF   	BYTE	7,207,255,0,255,199,215,231 
07714  5AC0  FF FF FF   	BYTE	255,255,255,0,255,255,255,241 
07715  5AC8  FF FF FF   	BYTE	255,255,255,0,255,255,255,255 
07716  5AD0  FC FE FC   	BYTE	252,254,252,2,244,242,244,242 
07717  5AD8  48 28 4A   	BYTE	72,40,74,46,79,47,72,44 
07718  5AE0  4F 3F 7F   	BYTE	79,63,127,127,255,255,63,127 
07719  5AE8  DF DF DF   	BYTE	223,223,223,223,223,223,222,252 
07720  5AF0  E4 CA D4   	BYTE	228,202,212,170,21,41,83,171 
07721  5AF8  F9 F6 F6   	BYTE	249,246,246,246,249,192,249,249 
07722  5B00  F4 F2 F4   	BYTE	244,242,244,242,244,48,244,242 
07723  5B08  4E 2F 4F   	BYTE	78,47,79,47,79,47,75,35 
07724  5B10  FD F8 F9   	BYTE	253,248,249,242,245,230,237,206 
07725  5B18  53 AB 57   	BYTE	83,171,87,167,79,175,95,159 
07726  5B20  F9 F9 F9   	BYTE	249,249,249,249,249,255,255,255 
07727  5B28  F4 F2 F4   	BYTE	244,242,244,242,244,242,244,242 
07728  5B30  6F 17 17   	BYTE	111,23,23,19,57,55,55,79 
07729  5B38  9F 7F 7F   	BYTE	159,127,127,183,203,253,254,254 
07730  5B40  00 28 55   	BYTE	0,40,85,43,87,47,23,47 
07731  5B48  00 1C 7E   	BYTE	0,28,126,254,254,156,236,240 
07732  5B50  1F 2F 56   	BYTE	31,47,86,47,95,42,20,0 
07733  5B58  EE 1E FE   	BYTE	238,30,254,254,254,254,28,0 
07734  5B60  00 1E 3E   	BYTE	0,30,62,93,61,27,63,31 
07735  5B68  00 03 FF   	BYTE	0,3,255,255,255,223,191,215 
07736  5B70  00 FE FE   	BYTE	0,254,254,241,238,254,254,255 
07737  5B78  00 18 BC   	BYTE	0,24,188,126,254,126,254,126 
07738  5B80  2F 5F 2F   	BYTE	47,95,47,87,42,85,40,0 
07739  5B88  AB D7 FF   	BYTE	171,215,255,255,255,95,171,0 
07740  5B90  FF FF BF   	BYTE	255,255,191,95,191,215,224,0 
07741  5B98  FC BC 5C   	BYTE	252,188,92,188,220,190,28,0 
07742  5BA0  00 1F 40   	BYTE	0,31,64,0,31,64,0,63 
07743  5BA8  00 FF 01   	BYTE	0,255,1,0,255,0,0,255 
07744  5BB0  3F BD 3B   	BYTE	63,189,59,187,191,151,95,223 
07745  5BB8  80 00 80   	BYTE	128,0,128,128,128,224,224,248 
07746  5BC0  0F 0F 18   	BYTE	15,15,24,24,24,24,24,24 
07747  5BC8  00 3F 00   	BYTE	0,63,0,191,128,0,255,0 
07748  5BD0  00 FF 00   	BYTE	0,255,0,255,0,0,254,0 
07749  5BD8  5F DF 5F   	BYTE	95,223,95,239,111,110,46,78 
07750  5BE0  F8 F0 F0   	BYTE	248,240,240,0,0,0,0,0 
07751  5BE8  3E 00 00   	BYTE	62,0,0,0,0,0,0,1 
07752  5BF0  30 30 30   	BYTE	48,48,48,96,96,224,192,192 
07753  5BF8  0A 0C 03   	BYTE	10,12,3,0,0,0,0,0 
07754  5C00  8E 2E 6E   	BYTE	142,46,110,14,14,15,13,8 
07755  5C08  00 00 00   	BYTE	0,0,0,62,0,255,255,255 
07756  5C10  03 03 07   	BYTE	3,3,7,15,124,240,192,0 
07757  5C18  80 80 00   	BYTE	128,128,0,0,0,0,0,0 
07758  5C20  14 E8 55   	BYTE	20,232,85,170,124,243,87,170 
07759  5C28  08 75 CA   	BYTE	8,117,202,61,51,253,234,156 
07760  5C30  12 E8 55   	BYTE	18,232,85,170,124,243,87,170 
07761  5C38  28 74 F3   	BYTE	40,116,243,175,217,239,86,35 
07762  5C40  45 62 95   	BYTE	69,98,149,10,69,20,3,42 
07763  5C48  46 8A 51   	BYTE	70,138,81,35,68,136,17,34 
07764  5C50  01 0F F2   	BYTE	1,15,242,62,197,132,72,76 
07765  5C58  95 5A 25   	BYTE	149,90,37,18,9,132,78,49 
07766  5C60  07 1C 04   	BYTE	7,28,4,4,4,4,4,4 
07767  5C68  C4 78 4E   	BYTE	196,120,78,73,72,72,76,71 
07768  5C70  33 37 39   	BYTE	51,55,57,145,81,18,244,24 
07769  5C78  D1 11 11   	BYTE	209,17,17,17,17,241,29,39 
07770  5C80  02 01 00   	BYTE	2,1,0,0,0,0,0,0 
07771  5C88  39 D0 88   	BYTE	57,208,136,68,35,16,8,7 
07772  5C90  F8 08 05   	BYTE	248,8,5,6,254,2,1,255 
07773  5C98  42 84 08   	BYTE	66,132,8,16,32,64,128,0 
07774  5CA0  30 78 EC   	BYTE	48,120,236,198,254,194,102,110 
07775  5CA8  78 6C C6   	BYTE	120,108,198,206,252,198,102,124 
07776  5CB0  18 3C 76   	BYTE	24,60,118,224,194,102,60,24 
07777  5CB8  F0 D8 CC   	BYTE	240,216,204,198,204,220,248,240 
07778  5CC0  18 3C 76   	BYTE	24,60,118,224,242,102,60,24 
07779  5CC8  7C 9E BF   	BYTE	124,158,191,223,239,111,127,62 
07780  5CD0  7E E7 FB   	BYTE	126,231,251,123,125,125,63,14 
07781  5CD8  22 72 E2   	BYTE	34,114,226,194,254,194,198,206 
07782  5CE0  7E 18 18   	BYTE	126,24,24,24,48,48,112,252 
07783  5CE8  38 1C 0E   	BYTE	56,28,14,6,6,230,124,56 
07784  5CF0  00 00 00   	BYTE	0,0,0,0,0,0,24,24 
07785  5CF8  78 38 30   	BYTE	120,56,48,48,32,98,118,254 
07786  5D00  22 76 FE   	BYTE	34,118,254,218,194,194,198,206 
07787  5D08  E6 F2 FA   	BYTE	230,242,250,222,206,198,98,50 
07788  5D10  18 3C 66   	BYTE	24,60,102,198,198,236,120,48 
07789  5D18  F8 FC C6   	BYTE	248,252,198,198,252,192,192,224 
07790  5D20  00 3C 7E   	BYTE	0,60,126,126,250,253,125,122 
07791  5D28  78 FC C6   	BYTE	120,252,198,204,248,216,204,230 
07792  5D30  0E 38 70   	BYTE	14,56,112,240,56,28,28,240 
07793  5D38  7F FE 98   	BYTE	127,254,152,24,24,48,48,248 
07794  5D40  32 62 C2   	BYTE	50,98,194,194,194,198,252,120 
07795  5D48  66 66 C6   	BYTE	102,102,198,198,198,236,120,48 
07796  5D50  3C 56 38   	BYTE	60,86,56,94,46,86,44,0 
07797  5D58  00 00 2C   	BYTE	0,0,44,94,58,92,44,92 
07798  5D60  2E 1E 3C   	BYTE	46,30,60,82,62,86,44,0 
07799  5D68  F8 FE 8C   	BYTE	248,254,140,24,48,98,230,126 
07800  5D70  BF 87 E3   	BYTE	191,135,227,251,195,31,127,127 
07801  5D78  3F B3 35   	BYTE	63,179,53,102,109,6,219,219 
07802  5D80  FF FF FF   	BYTE	255,255,255,255,127,191,95,175 
07803  5D88  F4 F0 F4   	BYTE	244,240,244,240,244,240,240,242 
07804  5D90  2F 49 29   	BYTE	47,73,41,73,44,41,19,15 
07805  5D98  FE FC FD   	BYTE	254,252,253,249,251,251,243,247 
07806  5DA0  BF DF C4   	BYTE	191,223,196,213,149,68,254,194 
07807  5DA8  98 BE 3E   	BYTE	152,190,62,191,135,243,255,7 
07808  5DB0  D7 EB 7D   	BYTE	215,235,125,63,191,159,223,223 
07809  5DB8  1F 2F 2F   	BYTE	31,47,47,47,47,47,31,15 
07810  5DC0  F6 F8 FF   	BYTE	246,248,255,255,255,255,255,255 
07811  5DC8  1F 80 BF   	BYTE	31,128,191,128,182,182,166,175 
07812  5DD0  30 3E BF   	BYTE	48,62,191,63,223,223,95,95 
07813  5DD8  DF 3F FF   	BYTE	223,63,255,255,255,255,255,127 
07814  5DE0  1F 2F 0F   	BYTE	31,47,15,46,78,46,79,47 
07815  5DE8  FF FF 1F   	BYTE	255,255,31,175,15,175,31,255 
07816  5DF0  BF BF DF   	BYTE	191,191,223,223,223,223,223,223 
07817  5DF8  7F FF FF   	BYTE	127,255,255,255,255,255,255,255 
07818  5E00  FF FF FF   	BYTE	255,255,255,255,255,127,127,31 
07819  5E08  EA F5 FF   	BYTE	234,245,255,255,255,255,255,255 
07820  5E10  FF FF FF   	BYTE	255,255,255,255,255,255,243,193 
07821  5E18  AA 55 FA   	BYTE	170,85,250,255,255,255,255,255 
07822  5E20  FF FF FE   	BYTE	255,255,254,255,254,255,255,255 
07823  5E28  AA 55 AA   	BYTE	170,85,170,85,170,213,170,213 
07824  5E30  AA 55 AA   	BYTE	170,85,170,85,170,85,170,84 
07825  5E38  DF BF BF   	BYTE	223,191,191,127,127,127,127,127 
07826  5E40  7F 76 63   	BYTE	127,118,99,127,127,127,103,111 
07827  5E48  34 B2 B4   	BYTE	52,178,180,178,180,178,244,178 
07828  5E50  4F 2F 4F   	BYTE	79,47,79,47,78,46,78,46 
07829  5E58  FF FF FF   	BYTE	255,255,255,255,223,223,223,223 
07830  5E60  DF EF EF   	BYTE	223,239,239,239,239,247,247,247 
07831  5E68  BF BF BF   	BYTE	191,191,191,191,127,127,127,127 
07832  5E70  67 57 47   	BYTE	103,87,71,124,125,124,126,126 
07833  5E78  94 B2 F0   	BYTE	148,178,240,242,112,112,244,240 
07834  5E80  4E 2E 4E   	BYTE	78,46,78,110,46,30,14,6 
07835  5E88  DF DF DF   	BYTE	223,223,223,223,223,223,223,223 
07836  5E90  EF EF EF   	BYTE	239,239,239,239,239,239,239,239 
07837  5E98  7F 7F 7F   	BYTE	127,127,127,127,127,127,191,191 
07838  5EA0  6E 7C 7C   	BYTE	110,124,124,103,99,111,96,127 
07839  5EA8  70 72 70   	BYTE	112,114,112,242,244,242,20,242 
07840  5EB0  06 06 03   	BYTE	6,6,3,0,0,0,0,0 
07841  5EB8  DF DF DF   	BYTE	223,223,223,0,127,31,0,0 
07842  5EC0  F7 CF BF   	BYTE	247,207,191,0,255,255,0,0 
07843  5EC8  7F 7F 7F   	BYTE	127,127,127,0,255,255,0,0 
07844  5ED0  61 4C 61   	BYTE	97,76,97,0,255,255,0,0 
07845  5ED8  F4 F2 F4   	BYTE	244,242,244,0,240,192,0,0 
07846  5EE0  00 05 2B   	BYTE	0,5,43,87,63,95,63,31 
07847  5EE8  00 FC FE   	BYTE	0,252,254,238,246,246,244,236 
07848  5EF0  2F 1F 2F   	BYTE	47,31,47,31,47,95,63,95 
07849  5EF8  F4 68 54   	BYTE	244,104,84,172,252,252,252,190 
07850  5F00  2F 5C 21   	BYTE	47,92,33,10,37,30,47,23 
07851  5F08  7E FC FA   	BYTE	126,252,250,212,106,254,254,252 
07852  5F10  2F 17 2F   	BYTE	47,23,47,23,42,85,42,0 
07853  5F18  F4 EA F6   	BYTE	244,234,246,170,222,92,160,0 
07854  5F20  00 00 00   	BYTE	0,0,0,0,0,0,0,0 
07855  5F28  00 00 70   	BYTE	0,0,112,126,14,0,0,0 
07856  5F30  00 00 00   	BYTE	0,0,0,0,0,0,0,0 
07857  5F38  0F 0F 0F   	BYTE	15,15,15,15,240,240,240,240 
07858  5F40             @          
07859  5F40             
07860  5F40             SPRITES
07861  5F40             @          
07862  5F40  01 F8 00              BYTE $01,$F8,$00,$07,$FE,$00,$0F,$32
07863  5F48  00 0F 33              BYTE $00,$0F,$33,$00,$1F,$FF,$00,$1F
07864  5F50  DF 00 1D              BYTE $DF,$00,$1D,$EE,$00,$1E,$10,$00
07865  5F58  0F 3C 00              BYTE $0F,$3C,$00,$07,$F8,$00,$03,$F0
07866  5F60  00 03 30              BYTE $00,$03,$30,$00,$06,$18,$00,$06
07867  5F68  18 00 3F              BYTE $18,$00,$3F,$3F,$00,$7F,$3F,$80
07868  5F70  00 00 00              BYTE $00,$00,$00,$00,$00,$00,$00,$00
07869  5F78  00 00 00              BYTE $00,$00,$00,$00,$00,$00,$00,$00
07870  5F80  07 E0 00              BYTE $07,$E0,$00,$1F,$F8,$00,$13,$3C
07871  5F88  00 33 3C              BYTE $00,$33,$3C,$00,$3F,$FE,$00,$3E
07872  5F90  FE 00 1D              BYTE $FE,$00,$1D,$EE,$00,$02,$1E,$00
07873  5F98  0F 3C 00              BYTE $0F,$3C,$00,$07,$F8,$00,$03,$F0
07874  5FA0  00 03 30              BYTE $00,$03,$30,$00,$06,$18,$00,$06
07875  5FA8  18 00 3F              BYTE $18,$00,$3F,$3F,$00,$7F,$3F,$80
07876  5FB0  00 00 00              BYTE $00,$00,$00,$00,$00,$00,$00,$00
07877  5FB8  00 00 00              BYTE $00,$00,$00,$00,$00,$00,$00,$00
07878  5FC0  01 E0 00              BYTE $01,$E0,$00,$07,$F8,$00,$0C,$CC
07879  5FC8  00 0C CC              BYTE $00,$0C,$CC,$00,$1F,$FE,$00,$1F
07880  5FD0  FE 00 1D              BYTE $FE,$00,$1D,$EE,$00,$1E,$1C,$00
07881  5FD8  0F 3C 00              BYTE $0F,$3C,$00,$07,$F8,$00,$03,$F0
07882  5FE0  00 03 30              BYTE $00,$03,$30,$00,$06,$18,$00,$06
07883  5FE8  18 00 3F              BYTE $18,$00,$3F,$3F,$00,$7F,$3F,$80
07884  5FF0  00 00 00              BYTE $00,$00,$00,$00,$00,$00,$00,$00
07885  5FF8  00 00 00              BYTE $00,$00,$00,$00,$00,$00,$00,$00
07886  6000  01 E0 00              BYTE $01,$E0,$00,$04,$C8,$00,$0F,$FC
07887  6008  00 0F FC              BYTE $00,$0F,$FC,$00,$1D,$EE,$00,$1E
07888  6010  1E 00 1F              BYTE $1E,$00,$1F,$3E,$00,$1F,$FC,$00
07889  6018  0F FC 00              BYTE $0F,$FC,$00,$07,$F8,$00,$03,$F0
07890  6020  00 03 30              BYTE $00,$03,$30,$00,$06,$18,$00,$06
07891  6028  18 00 3F              BYTE $18,$00,$3F,$3F,$00,$7F,$3F,$80
07892  6030  00 00 00              BYTE $00,$00,$00,$00,$00,$00,$00,$00
07893  6038  00 00 00              BYTE $00,$00,$00,$00,$00,$00,$00,$00
07894  6040  03 F0 00              BYTE $03,$F0,$00,$0F,$FC,$00,$1F,$E4
07895  6048  00 1F E6              BYTE $00,$1F,$E6,$00,$3F,$FE,$00,$3F
07896  6050  BE 00 3F              BYTE $BE,$00,$3F,$DC,$00,$3F,$E0,$00
07897  6058  3F F0 00              BYTE $3F,$F0,$00,$1F,$E0,$00,$1D,$80
07898  6060  00 1B 00              BYTE $00,$1B,$00,$00,$36,$00,$00,$36
07899  6068  00 00 7D              BYTE $00,$00,$7D,$80,$00,$7E,$C0,$00
07900  6070  00 00 00              BYTE $00,$00,$00,$00,$00,$00,$00,$00
07901  6078  00 00 00              BYTE $00,$00,$00,$00,$00,$00,$00,$00
07902  6080  0F C0 00              BYTE $0F,$C0,$00,$3F,$F0,$00,$27,$F8
07903  6088  00 67 F8              BYTE $00,$67,$F8,$00,$7F,$FC,$00,$7D
07904  6090  FC 00 3B              BYTE $FC,$00,$3B,$FC,$00,$07,$FC,$00
07905  6098  0F FC 00              BYTE $0F,$FC,$00,$07,$F8,$00,$01,$B8
07906  60A0  00 00 D8              BYTE $00,$00,$D8,$00,$00,$6C,$00,$00
07907  60A8  6C 00 01              BYTE $6C,$00,$01,$BE,$00,$03,$7E,$00
07908  60B0  00 00 00              BYTE $00,$00,$00,$00,$00,$00,$00,$00
07909  60B8  00 00 00              BYTE $00,$00,$00,$00,$00,$00,$00,$00
07910  60C0  07 E0 00              BYTE $07,$E0,$00,$1F,$F8,$00,$3C,$C8
07911  60C8  00 3C CC              BYTE $00,$3C,$CC,$00,$7F,$FC,$00,$7F
07912  60D0  7C 00 77              BYTE $7C,$00,$77,$B8,$00,$78,$40,$00
07913  60D8  7C E0 00              BYTE $7C,$E0,$00,$3F,$E0,$00,$0F,$C0
07914  60E0  00 07 C0              BYTE $00,$07,$C0,$00,$36,$E0,$00,$36
07915  60E8  60 00 2F              BYTE $60,$00,$2F,$80,$00,$17,$C0,$00
07916  60F0  00 00 00              BYTE $00,$00,$00,$00,$00,$00,$00,$00
07917  60F8  00 00 00              BYTE $00,$00,$00,$00,$00,$00,$00,$00
07918  6100  07 E0 00              BYTE $07,$E0,$00,$1F,$F8,$00,$3C,$C8
07919  6108  00 3C CC              BYTE $00,$3C,$CC,$00,$7F,$FC,$00,$7F
07920  6110  7C 00 77              BYTE $7C,$00,$77,$B8,$00,$78,$40,$00
07921  6118  7C E0 00              BYTE $7C,$E0,$00,$3F,$E0,$00,$0F,$C0
07922  6120  00 07 80              BYTE $00,$07,$80,$00,$3E,$80,$00,$3D
07923  6128  80 00 33              BYTE $80,$00,$33,$E0,$00,$1B,$F0,$00
07924  6130  00 00 00              BYTE $00,$00,$00,$00,$00,$00,$00,$00
07925  6138  00 00 00              BYTE $00,$00,$00,$00,$00,$00,$00,$00
07926  6140  07 E0 00              BYTE $07,$E0,$00,$1F,$F8,$00,$3C,$C8
07927  6148  00 3C CC              BYTE $00,$3C,$CC,$00,$7F,$FC,$00,$7F
07928  6150  7C 00 77              BYTE $7C,$00,$77,$B8,$00,$78,$40,$00
07929  6158  7C E0 00              BYTE $7C,$E0,$00,$3F,$E0,$00,$0F,$C0
07930  6160  00 1C C0              BYTE $00,$1C,$C0,$00,$FC,$60,$00,$F0
07931  6168  60 00 C0              BYTE $60,$00,$C0,$F8,$00,$60,$FC,$00
07932  6170  00 00 00              BYTE $00,$00,$00,$00,$00,$00,$00,$00
07933  6178  00 00 00              BYTE $00,$00,$00,$00,$00,$00,$00,$00
07934  6180  0F C0 00              BYTE $0F,$C0,$00,$3F,$F0,$00,$26,$78
07935  6188  00 66 78              BYTE $00,$66,$78,$00,$7F,$FC,$00,$7D
07936  6190  FC 00 3B              BYTE $FC,$00,$3B,$DC,$00,$04,$3C,$00
07937  6198  0E 7C 00              BYTE $0E,$7C,$00,$0F,$F8,$00,$07,$E0
07938  61A0  00 07 C0              BYTE $00,$07,$C0,$00,$0E,$D8,$00,$0C
07939  61A8  D8 00 03              BYTE $D8,$00,$03,$E8,$00,$07,$D0,$00
07940  61B0  00 00 00              BYTE $00,$00,$00,$00,$00,$00,$00,$00
07941  61B8  00 00 00              BYTE $00,$00,$00,$00,$00,$00,$00,$00
07942  61C0  0F C0 00              BYTE $0F,$C0,$00,$3F,$F0,$00,$26,$78
07943  61C8  00 66 78              BYTE $00,$66,$78,$00,$7F,$FC,$00,$7D
07944  61D0  FC 00 3B              BYTE $FC,$00,$3B,$DC,$00,$04,$3C,$00
07945  61D8  0E 7C 00              BYTE $0E,$7C,$00,$0F,$F8,$00,$07,$E0
07946  61E0  00 03 C0              BYTE $00,$03,$C0,$00,$02,$F8,$00,$03
07947  61E8  78 00 0F              BYTE $78,$00,$0F,$98,$00,$1F,$B0,$00
07948  61F0  00 00 00              BYTE $00,$00,$00,$00,$00,$00,$00,$00
07949  61F8  00 00 00              BYTE $00,$00,$00,$00,$00,$00,$00,$00
07950  6200  0F C0 00              BYTE $0F,$C0,$00,$3F,$F0,$00,$26,$78
07951  6208  00 66 78              BYTE $00,$66,$78,$00,$7F,$FC,$00,$7D
07952  6210  FC 00 3B              BYTE $FC,$00,$3B,$DC,$00,$04,$3C,$00
07953  6218  0E 7C 00              BYTE $0E,$7C,$00,$0F,$F8,$00,$07,$E0
07954  6220  00 06 70              BYTE $00,$06,$70,$00,$0C,$7E,$00,$0C
07955  6228  1E 00 3E              BYTE $1E,$00,$3E,$06,$00,$7E,$0C,$00
07956  6230  00 00 00              BYTE $00,$00,$00,$00,$00,$00,$00,$00
07957  6238  00 00 00              BYTE $00,$00,$00,$00,$00,$00,$00,$00
07958  6240             
07959  6240             @          
07960  6240             @          
07961  6240  01 00 00              BYTE $01,$00,$00,$00,$00,$00,$01,$00
07962  6248  00 02 80              BYTE $00,$02,$80,$00,$01,$80,$00,$02
07963  6250  80 00 05              BYTE $80,$00,$05,$C0,$00,$01,$C0,$00
07964  6258  05 C0 00              BYTE $05,$C0,$00,$02,$C0,$00,$01,$80
07965  6260  00 00 00              BYTE $00,$00,$00,$00,$00,$00,$00,$00
07966  6268  00 00 00              BYTE $00,$00,$00,$00,$00,$00,$00,$00
07967  6270  00 00 00              BYTE $00,$00,$00,$00,$00,$00,$00,$00
07968  6278  00 00 00              BYTE $00,$00,$00,$00,$00,$00,$00,$00
07969  6280  00 00 00              BYTE $00,$00,$00,$00,$00,$00,$00,$00
07970  6288  00 00 00              BYTE $00,$00,$00,$00,$00,$00,$00,$00
07971  6290  00 00 00              BYTE $00,$00,$00,$00,$00,$00,$00,$00
07972  6298  00 00 00              BYTE $00,$00,$00,$00,$00,$00,$00,$00
07973  62A0  00 09 40              BYTE $00,$09,$40,$00,$14,$90,$00,$0B
07974  62A8  E8 00 16              BYTE $E8,$00,$16,$B0,$00,$01,$00,$00
07975  62B0  00 00 00              BYTE $00,$00,$00,$00,$00,$00,$00,$00
07976  62B8  00 00 00              BYTE $00,$00,$00,$00,$00,$00,$00,$00
07977  62C0  00 00 00              BYTE $00,$00,$00,$00,$00,$00,$00,$00
07978  62C8  00 00 00              BYTE $00,$00,$00,$00,$00,$00,$00,$00
07979  62D0  00 00 00              BYTE $00,$00,$00,$00,$00,$08,$00,$00
07980  62D8  10 40 00              BYTE $10,$40,$00,$04,$A0,$00,$00,$C3
07981  62E0  00 30 45              BYTE $00,$30,$45,$80,$50,$0B,$00,$2C
07982  62E8  00 00 02              BYTE $00,$00,$02,$A0,$00,$01,$40,$00
07983  62F0  00 00 00              BYTE $00,$00,$00,$00,$00,$00,$00,$00
07984  62F8  00 00 00              BYTE $00,$00,$00,$00,$00,$00,$00,$00
07985  6300  00 00 00              BYTE $00,$00,$00,$00,$00,$00,$00,$00
07986  6308  00 00 00              BYTE $00,$00,$00,$00,$00,$00,$00,$00
07987  6310  00 00 00              BYTE $00,$00,$00,$00,$00,$00,$00,$00
07988  6318  00 00 00              BYTE $00,$00,$00,$08,$08,$00,$10,$14
07989  6320  00 00 00              BYTE $00,$00,$00,$00,$00,$00,$00,$30
07990  6328  0C 00 51              BYTE $0C,$00,$51,$0A,$00,$22,$87,$00
07991  6330  00 00 00              BYTE $00,$00,$00,$00,$00,$00,$00,$00
07992  6338  00 00 00              BYTE $00,$00,$00,$00,$00,$00,$00,$00
07993  6340  00 00 00              BYTE $00,$00,$00,$00,$00,$00,$00,$00
07994  6348  00 00 00              BYTE $00,$00,$00,$00,$00,$00,$00,$00
07995  6350  00 00 00              BYTE $00,$00,$00,$00,$00,$00,$00,$00
07996  6358  00 00 00              BYTE $00,$00,$00,$00,$00,$00,$00,$00
07997  6360  00 00 00              BYTE $00,$00,$00,$00,$00,$08,$00,$00
07998  6368  00 00 10              BYTE $00,$00,$10,$02,$00,$01,$04,$00
07999  6370  00 00 00              BYTE $00,$00,$00,$00,$00,$00,$00,$00
08000  6378  00 00 00              BYTE $00,$00,$00,$00,$00,$00,$00,$00
08001  6380             
08002  6380             @          
08003  6380             @          
08004  6380  00 7C 00              BYTE $00,$7C,$00,$00,$C6,$00,$01,$03
08005  6388  00 02 24              BYTE $00,$02,$24,$00,$02,$14,$00,$1C
08006  6390  1E 00 70              BYTE $1E,$00,$70,$A0,$00,$AA,$60,$00
08007  6398  85 30 00              BYTE $85,$30,$00,$60,$40,$00,$19,$80
08008  63A0  00 06 00              BYTE $00,$06,$00,$00,$00,$00,$00,$00
08009  63A8  00 00 00              BYTE $00,$00,$00,$00,$00,$00,$00,$00
08010  63B0  00 00 00              BYTE $00,$00,$00,$00,$00,$00,$00,$00
08011  63B8  00 00 00              BYTE $00,$00,$00,$00,$00,$00,$00,$00
08012  63C0  00 00 00              BYTE $00,$00,$00,$01,$E0,$00,$02,$B8
08013  63C8  00 03 54              BYTE $00,$03,$54,$00,$1E,$AC,$00,$71
08014  63D0  F8 00 AA              BYTE $F8,$00,$AA,$60,$00,$85,$30,$00
08015  63D8  60 40 00              BYTE $60,$40,$00,$19,$80,$00,$06,$00
08016  63E0  00 00 00              BYTE $00,$00,$00,$00,$00,$00,$00,$00
08017  63E8  00 00 00              BYTE $00,$00,$00,$00,$00,$00,$00,$00
08018  63F0  00 00 00              BYTE $00,$00,$00,$00,$00,$00,$00,$00
08019  63F8  00 00 00              BYTE $00,$00,$00,$00,$00,$00,$00,$00
08020  6400  00 00 00              BYTE $00,$00,$00,$00,$00,$00,$03,$F8
08021  6408  00 1F 54              BYTE $00,$1F,$54,$00,$76,$AC,$00,$AD
08022  6410  54 00 86              BYTE $54,$00,$86,$AC,$00,$63,$70,$00
08023  6418  19 80 00              BYTE $19,$80,$00,$06,$00,$00,$00,$00
08024  6420  00 00 00              BYTE $00,$00,$00,$00,$00,$00,$00,$00
08025  6428  00 00 00              BYTE $00,$00,$00,$00,$00,$00,$00,$00
08026  6430  00 00 00              BYTE $00,$00,$00,$00,$00,$00,$00,$00
08027  6438  00 00 00              BYTE $00,$00,$00,$00,$00,$00,$00,$00
08028  6440  00 00 00              BYTE $00,$00,$00,$03,$00,$00,$1D,$C0
08029  6448  00 76 A0              BYTE $00,$76,$A0,$00,$A5,$60,$00,$8E
08030  6450  B0 00 69              BYTE $B0,$00,$69,$60,$00,$1A,$30,$00
08031  6458  0D 58 00              BYTE $0D,$58,$00,$0A,$B0,$00,$0D,$50
08032  6460  00 06 B0              BYTE $00,$06,$B0,$00,$01,$98,$00,$00
08033  6468  70 00 00              BYTE $70,$00,$00,$00,$00,$00,$00,$00
08034  6470  00 00 00              BYTE $00,$00,$00,$00,$00,$00,$00,$00
08035  6478  00 00 00              BYTE $00,$00,$00,$00,$00,$00,$00,$00
08036  6480  00 00 00              BYTE $00,$00,$00,$00,$00,$00,$03,$F8
08037  6488  00 1F 54              BYTE $00,$1F,$54,$00,$76,$AC,$00,$AD
08038  6490  54 00 86              BYTE $54,$00,$86,$AC,$00,$63,$70,$00
08039  6498  19 80 00              BYTE $19,$80,$00,$06,$00,$00,$00,$00
08040  64A0  00 00 00              BYTE $00,$00,$00,$00,$00,$00,$00,$00
08041  64A8  00 00 00              BYTE $00,$00,$00,$00,$00,$00,$00,$00
08042  64B0  00 00 00              BYTE $00,$00,$00,$00,$00,$00,$00,$00
08043  64B8  00 00 00              BYTE $00,$00,$00,$00,$00,$00,$00,$00
08044  64C0  00 00 00              BYTE $00,$00,$00,$01,$E0,$00,$02,$B8
08045  64C8  00 03 54              BYTE $00,$03,$54,$00,$1E,$AC,$00,$71
08046  64D0  F8 00 AA              BYTE $F8,$00,$AA,$60,$00,$85,$30,$00
08047  64D8  60 40 00              BYTE $60,$40,$00,$19,$80,$00,$06,$00
08048  64E0  00 00 00              BYTE $00,$00,$00,$00,$00,$00,$00,$00
08049  64E8  00 00 00              BYTE $00,$00,$00,$00,$00,$00,$00,$00
08050  64F0  00 00 00              BYTE $00,$00,$00,$00,$00,$00,$00,$00
08051  64F8  00 00 00              BYTE $00,$00,$00,$00,$00,$00,$00,$00
08052  6500             
08053  6500             @          
08054  6500             @          
08055  6500  3E 00 00              BYTE $3E,$00,$00,$63,$00,$00,$C0,$80
08056  6508  00 24 40              BYTE $00,$24,$40,$00,$28,$40,$00,$78
08057  6510  38 00 05              BYTE $38,$00,$05,$0E,$00,$06,$55,$00
08058  6518  0C A1 00              BYTE $0C,$A1,$00,$02,$06,$00,$01,$98
08059  6520  00 00 60              BYTE $00,$00,$60,$00,$00,$00,$00,$00
08060  6528  00 00 00              BYTE $00,$00,$00,$00,$00,$00,$00,$00
08061  6530  00 00 00              BYTE $00,$00,$00,$00,$00,$00,$00,$00
08062  6538  00 00 00              BYTE $00,$00,$00,$00,$00,$00,$00,$00
08063  6540  00 00 00              BYTE $00,$00,$00,$07,$80,$00,$1D,$40
08064  6548  00 2A C0              BYTE $00,$2A,$C0,$00,$35,$78,$00,$1F
08065  6550  8E 00 06              BYTE $8E,$00,$06,$55,$00,$0C,$A1,$00
08066  6558  02 06 00              BYTE $02,$06,$00,$01,$98,$00,$00,$60
08067  6560  00 00 00              BYTE $00,$00,$00,$00,$00,$00,$00,$00
08068  6568  00 00 00              BYTE $00,$00,$00,$00,$00,$00,$00,$00
08069  6570  00 00 00              BYTE $00,$00,$00,$00,$00,$00,$00,$00
08070  6578  00 00 00              BYTE $00,$00,$00,$00,$00,$00,$00,$00
08071  6580  00 00 00              BYTE $00,$00,$00,$00,$00,$00,$1F,$C0
08072  6588  00 2A F8              BYTE $00,$2A,$F8,$00,$35,$6E,$00,$2A
08073  6590  B5 00 35              BYTE $B5,$00,$35,$61,$00,$0E,$C6,$00
08074  6598  01 98 00              BYTE $01,$98,$00,$00,$60,$00,$00,$00
08075  65A0  00 00 00              BYTE $00,$00,$00,$00,$00,$00,$00,$00
08076  65A8  00 00 00              BYTE $00,$00,$00,$00,$00,$00,$00,$00
08077  65B0  00 00 00              BYTE $00,$00,$00,$00,$00,$00,$00,$00
08078  65B8  00 00 00              BYTE $00,$00,$00,$00,$00,$00,$00,$00
08079  65C0  00 00 00              BYTE $00,$00,$00,$00,$C0,$00,$03,$B8
08080  65C8  00 05 6E              BYTE $00,$05,$6E,$00,$06,$A5,$00,$0D
08081  65D0  71 00 06              BYTE $71,$00,$06,$96,$00,$0C,$58,$00
08082  65D8  1A B0 00              BYTE $1A,$B0,$00,$0D,$50,$00,$0A,$B0
08083  65E0  00 0D 60              BYTE $00,$0D,$60,$00,$19,$80,$00,$0E
08084  65E8  00 00 00              BYTE $00,$00,$00,$00,$00,$00,$00,$00
08085  65F0  00 00 00              BYTE $00,$00,$00,$00,$00,$00,$00,$00
08086  65F8  00 00 00              BYTE $00,$00,$00,$00,$00,$00,$00,$00
08087  6600  00 00 00              BYTE $00,$00,$00,$00,$00,$00,$1F,$C0
08088  6608  00 2A F8              BYTE $00,$2A,$F8,$00,$35,$6E,$00,$2A
08089  6610  B5 00 35              BYTE $B5,$00,$35,$61,$00,$0E,$C6,$00
08090  6618  01 98 00              BYTE $01,$98,$00,$00,$60,$00,$00,$00
08091  6620  00 00 00              BYTE $00,$00,$00,$00,$00,$00,$00,$00
08092  6628  00 00 00              BYTE $00,$00,$00,$00,$00,$00,$00,$00
08093  6630  00 00 00              BYTE $00,$00,$00,$00,$00,$00,$00,$00
08094  6638  00 00 00              BYTE $00,$00,$00,$00,$00,$00,$00,$00
08095  6640  00 00 00              BYTE $00,$00,$00,$07,$80,$00,$1D,$40
08096  6648  00 2A C0              BYTE $00,$2A,$C0,$00,$35,$78,$00,$1F
08097  6650  8E 00 06              BYTE $8E,$00,$06,$55,$00,$0C,$A1,$00
08098  6658  02 06 00              BYTE $02,$06,$00,$01,$98,$00,$00,$60
08099  6660  00 00 00              BYTE $00,$00,$00,$00,$00,$00,$00,$00
08100  6668  00 00 00              BYTE $00,$00,$00,$00,$00,$00,$00,$00
08101  6670  00 00 00              BYTE $00,$00,$00,$00,$00,$00,$00,$00
08102  6678  00 00 00              BYTE $00,$00,$00,$00,$00,$00,$00,$00
08103  6680             
08104  6680             @          
08105  6680             @          
08106  6680  7F FF 80              BYTE $7F,$FF,$80,$7F,$FF,$80,$7F,$FF
08107  6688  80 7F FF              BYTE $80,$7F,$FF,$80,$7F,$FF,$80,$7F
08108  6690  FF 80 7F              BYTE $FF,$80,$7F,$FF,$80,$7F,$FF,$80
08109  6698  7F FF 80              BYTE $7F,$FF,$80,$7F,$FF,$80,$7F,$FF
08110  66A0  80 7F FF              BYTE $80,$7F,$FF,$80,$7F,$FF,$80,$7F
08111  66A8  FF 80 7F              BYTE $FF,$80,$7F,$FF,$80,$7F,$FF,$80
08112  66B0  00 00 00              BYTE $00,$00,$00,$00,$00,$00,$00,$00
08113  66B8  00 00 00              BYTE $00,$00,$00,$00,$00,$00,$00,$00
08114  66C0  2A AA 80              BYTE $2A,$AA,$80,$55,$55,$00,$7F,$FF
08115  66C8  80 7F FF              BYTE $80,$7F,$FF,$80,$7F,$FF,$80,$7F
08116  66D0  FF 80 7F              BYTE $FF,$80,$7F,$FF,$80,$7F,$FF,$80
08117  66D8  3F FF 00              BYTE $3F,$FF,$00,$3F,$FF,$00,$3F,$FF
08118  66E0  00 3F FF              BYTE $00,$3F,$FF,$00,$3F,$FF,$00,$00
08119  66E8  00 00 00              BYTE $00,$00,$00,$00,$00,$00,$00,$00
08120  66F0  00 00 00              BYTE $00,$00,$00,$00,$00,$00,$00,$00
08121  66F8  00 00 00              BYTE $00,$00,$00,$00,$00,$00,$00,$00
08122  6700  00 00 00              BYTE $00,$00,$00,$1F,$FE,$00,$7F,$FF
08123  6708  80 55 55              BYTE $80,$55,$55,$00,$2A,$AA,$80,$7F
08124  6710  FF 80 3F              BYTE $FF,$80,$3F,$FF,$00,$3F,$FF,$00
08125  6718  1F FE 00              BYTE $1F,$FE,$00,$1F,$FE,$00,$0F,$FC
08126  6720  00 0F FC              BYTE $00,$0F,$FC,$00,$00,$00,$00,$00
08127  6728  00 00 00              BYTE $00,$00,$00,$00,$00,$00,$00,$00
08128  6730  00 00 00              BYTE $00,$00,$00,$00,$00,$00,$00,$00
08129  6738  00 00 00              BYTE $00,$00,$00,$00,$00,$00,$00,$00
08130  6740  00 00 00              BYTE $00,$00,$00,$00,$00,$00,$00,$00
08131  6748  00 00 00              BYTE $00,$00,$00,$00,$3F,$FF,$00,$7F
08132  6750  FF 80 2A              BYTE $FF,$80,$2A,$AA,$80,$55,$55,$00
08133  6758  1F FE 00              BYTE $1F,$FE,$00,$07,$F8,$00,$00,$00
08134  6760  00 00 00              BYTE $00,$00,$00,$00,$00,$00,$00,$00
08135  6768  00 00 00              BYTE $00,$00,$00,$00,$00,$00,$00,$00
08136  6770  00 00 00              BYTE $00,$00,$00,$00,$00,$00,$00,$00
08137  6778  00 00 00              BYTE $00,$00,$00,$00,$00,$00,$00,$00
08138  6780  00 00 00              BYTE $00,$00,$00,$00,$00,$00,$00,$00
08139  6788  00 00 00              BYTE $00,$00,$00,$00,$00,$00,$00,$7F
08140  6790  FF 80 7F              BYTE $FF,$80,$7F,$FF,$80,$00,$00,$00
08141  6798  00 00 00              BYTE $00,$00,$00,$00,$00,$00,$00,$00
08142  67A0  00 00 00              BYTE $00,$00,$00,$00,$00,$00,$00,$00
08143  67A8  00 00 00              BYTE $00,$00,$00,$00,$00,$00,$00,$00
08144  67B0  00 00 00              BYTE $00,$00,$00,$00,$00,$00,$00,$00
08145  67B8  00 00 00              BYTE $00,$00,$00,$00,$00,$00,$00,$00
08146  67C0  00 00 00              BYTE $00,$00,$00,$00,$00,$00,$07,$F8
08147  67C8  00 1F FE              BYTE $00,$1F,$FE,$00,$55,$55,$00,$2A
08148  67D0  AA 80 7F              BYTE $AA,$80,$7F,$FF,$80,$3F,$FF,$00
08149  67D8  00 00 00              BYTE $00,$00,$00,$00,$00,$00,$00,$00
08150  67E0  00 00 00              BYTE $00,$00,$00,$00,$00,$00,$00,$00
08151  67E8  00 00 00              BYTE $00,$00,$00,$00,$00,$00,$00,$00
08152  67F0  00 00 00              BYTE $00,$00,$00,$00,$00,$00,$00,$00
08153  67F8  00 00 00              BYTE $00,$00,$00,$00,$00,$00,$00,$00
08154  6800  00 00 00              BYTE $00,$00,$00,$0F,$FC,$00,$0F,$FC
08155  6808  00 1F FE              BYTE $00,$1F,$FE,$00,$1F,$FE,$00,$3F
08156  6810  FF 00 3F              BYTE $FF,$00,$3F,$FF,$00,$7F,$FF,$80
08157  6818  2A AA 80              BYTE $2A,$AA,$80,$55,$55,$00,$7F,$FF
08158  6820  80 1F FE              BYTE $80,$1F,$FE,$00,$00,$00,$00,$00
08159  6828  00 00 00              BYTE $00,$00,$00,$00,$00,$00,$00,$00
08160  6830  00 00 00              BYTE $00,$00,$00,$00,$00,$00,$00,$00
08161  6838  00 00 00              BYTE $00,$00,$00,$00,$00,$00,$00,$00
08162  6840  3F FF 00              BYTE $3F,$FF,$00,$3F,$FF,$00,$3F,$FF
08163  6848  00 3F FF              BYTE $00,$3F,$FF,$00,$3F,$FF,$00,$7F
08164  6850  FF 80 7F              BYTE $FF,$80,$7F,$FF,$80,$7F,$FF,$80
08165  6858  7F FF 80              BYTE $7F,$FF,$80,$7F,$FF,$80,$7F,$FF
08166  6860  80 55 55              BYTE $80,$55,$55,$00,$2A,$AA,$80,$00
08167  6868  00 00 00              BYTE $00,$00,$00,$00,$00,$00,$00,$00
08168  6870  00 00 00              BYTE $00,$00,$00,$00,$00,$00,$00,$00
08169  6878  00 00 00              BYTE $00,$00,$00,$00,$00,$00,$00,$00
08170  6880             
08171  6880             @          
08172  6880             ADDR_SPRITE_KEY_1 
08173  6880             @          
08174  6880  00 00 00              BYTE $00,$00,$00,$00,$00,$00,$00,$61
08175  6888  F0 00 7F              BYTE $F0,$00,$7F,$1C,$00,$7C,$47,$00
08176  6890  38 E1 00              BYTE $38,$E1,$00,$3C,$47,$00,$1F,$1C
08177  6898  00 1D F0              BYTE $00,$1D,$F0,$00,$18,$00,$00,$38
08178  68A0  00 00 38              BYTE $00,$00,$38,$00,$00,$F0,$00,$00
08179  68A8  F0 00 00              BYTE $F0,$00,$00,$C0,$00,$04,$00,$00
08180  68B0  00 00 00              BYTE $00,$00,$00,$00,$00,$00,$00,$00
08181  68B8  00 00 00              BYTE $00,$00,$00,$00,$00,$00,$00,$00
08182  68C0             
08183  68C0             @          
08184  68C0             @          
08185  68C0  02 40 00              BYTE $02,$40,$00,$10,$00,$00,$05,$48
08186  68C8  00 2A 24              BYTE $00,$2A,$24,$00,$9F,$50,$00,$2D
08187  68D0  F0 00 17              BYTE $F0,$00,$17,$64,$00,$BD,$FA,$00
08188  68D8  6F 50 00              BYTE $6F,$50,$00,$BD,$E4,$00,$1F,$59
08189  68E0  00 2B A8              BYTE $00,$2B,$A8,$00,$9E,$D0,$00,$25
08190  68E8  24 00 08              BYTE $24,$00,$08,$D0,$00,$05,$00,$00
08191  68F0  00 00 00              BYTE $00,$00,$00,$00,$00,$00,$00,$00
08192  68F8  00 00 00              BYTE $00,$00,$00,$00,$00,$00,$00,$00
08193  6900  00 00 00              BYTE $00,$00,$00,$00,$00,$00,$0A,$00
08194  6908  00 35 80              BYTE $00,$35,$80,$00,$5B,$40,$00,$AE
08195  6910  80 00 7B              BYTE $80,$00,$7B,$C0,$00,$AF,$60,$00
08196  6918  DB C0 00              BYTE $DB,$C0,$00,$2E,$80,$00,$7B,$40
08197  6920  00 AE 80              BYTE $00,$AE,$80,$00,$45,$40,$00,$2A
08198  6928  00 00 00              BYTE $00,$00,$00,$00,$00,$00,$00,$00
08199  6930  00 00 00              BYTE $00,$00,$00,$00,$00,$00,$00,$00
08200  6938  00 00 00              BYTE $00,$00,$00,$00,$00,$00,$00,$00
08201  6940  00 00 00              BYTE $00,$00,$00,$00,$00,$00,$00,$00
08202  6948  00 00 00              BYTE $00,$00,$00,$00,$34,$00,$00,$49
08203  6950  00 00 A6              BYTE $00,$00,$A6,$80,$00,$5D,$00,$00
08204  6958  B6 80 00              BYTE $B6,$80,$00,$4C,$00,$00,$92,$80
08205  6960  00 49 00              BYTE $00,$49,$00,$00,$14,$00,$00,$00
08206  6968  00 00 00              BYTE $00,$00,$00,$00,$00,$00,$00,$00
08207  6970  00 00 00              BYTE $00,$00,$00,$00,$00,$00,$00,$00
08208  6978  00 00 00              BYTE $00,$00,$00,$00,$00,$00,$00,$00
08209  6980  00 00 00              BYTE $00,$00,$00,$00,$00,$00,$00,$00
08210  6988  00 00 00              BYTE $00,$00,$00,$00,$10,$00,$00,$4C
08211  6990  00 00 12              BYTE $00,$00,$12,$00,$00,$68,$00,$00
08212  6998  98 00 00              BYTE $98,$00,$00,$24,$00,$00,$90,$00
08213  69A0  00 00 00              BYTE $00,$00,$00,$00,$00,$00,$00,$00
08214  69A8  00 00 00              BYTE $00,$00,$00,$00,$00,$00,$00,$00
08215  69B0  00 00 00              BYTE $00,$00,$00,$00,$00,$00,$00,$00
08216  69B8  00 00 00              BYTE $00,$00,$00,$00,$00,$00,$00,$00
08217  69C0             
08218  69C0             @          
08219  69C0             @          
08220  69C0  00 00 00              BYTE $00,$00,$00,$00,$00,$00,$FF,$EC
08221  69C8  00 FF EC              BYTE $00,$FF,$EC,$00,$FF,$CC,$00,$00
08222  69D0  00 00 00              BYTE $00,$00,$00,$00,$00,$00,$00,$00
08223  69D8  00 00 00              BYTE $00,$00,$00,$00,$00,$00,$00,$00
08224  69E0  00 00 00              BYTE $00,$00,$00,$00,$FF,$EC,$00,$FF
08225  69E8  EC 00 FF              BYTE $EC,$00,$FF,$CC,$00,$00,$00,$00
08226  69F0  00 00 00              BYTE $00,$00,$00,$00,$00,$00,$00,$00
08227  69F8  00 00 00              BYTE $00,$00,$00,$00,$00,$00,$00,$00
08228  6A00  00 00 00              BYTE $00,$00,$00,$00,$00,$00,$00,$00
08229  6A08  00 FF EC              BYTE $00,$FF,$EC,$00,$FF,$EC,$00,$FF
08230  6A10  CC 00 00              BYTE $CC,$00,$00,$00,$00,$00,$00,$00
08231  6A18  00 00 00              BYTE $00,$00,$00,$00,$00,$00,$00,$00
08232  6A20  00 FF EC              BYTE $00,$FF,$EC,$00,$FF,$EC,$00,$FF
08233  6A28  CC 00 00              BYTE $CC,$00,$00,$00,$00,$00,$00,$00
08234  6A30  00 00 00              BYTE $00,$00,$00,$00,$00,$00,$00,$00
08235  6A38  00 00 00              BYTE $00,$00,$00,$00,$00,$00,$00,$00
08236  6A40  00 00 00              BYTE $00,$00,$00,$00,$00,$00,$00,$00
08237  6A48  00 00 00              BYTE $00,$00,$00,$00,$FF,$EC,$00,$FF
08238  6A50  EC 00 FF              BYTE $EC,$00,$FF,$CC,$00,$00,$00,$00
08239  6A58  00 00 00              BYTE $00,$00,$00,$00,$00,$00,$FF,$EC
08240  6A60  00 FF EC              BYTE $00,$FF,$EC,$00,$FF,$CC,$00,$00
08241  6A68  00 00 00              BYTE $00,$00,$00,$00,$00,$00,$00,$00
08242  6A70  00 00 00              BYTE $00,$00,$00,$00,$00,$00,$00,$00
08243  6A78  00 00 00              BYTE $00,$00,$00,$00,$00,$00,$00,$00
08244  6A80  00 00 00              BYTE $00,$00,$00,$00,$00,$00,$00,$00
08245  6A88  00 00 00              BYTE $00,$00,$00,$00,$00,$00,$00,$FF
08246  6A90  EC 00 FF              BYTE $EC,$00,$FF,$EC,$00,$FF,$CC,$00
08247  6A98  00 00 00              BYTE $00,$00,$00,$FF,$EC,$00,$FF,$EC
08248  6AA0  00 FF CC              BYTE $00,$FF,$CC,$00,$00,$00,$00,$00
08249  6AA8  00 00 00              BYTE $00,$00,$00,$00,$00,$00,$00,$00
08250  6AB0  00 00 00              BYTE $00,$00,$00,$00,$00,$00,$00,$00
08251  6AB8  00 00 00              BYTE $00,$00,$00,$00,$00,$00,$00,$00
08252  6AC0             
08253  6AC0             @          
08254  6AC0             @          
08255  6AC0  00 00 00              BYTE $00,$00,$00,$38,$00,$00,$EC,$00
08256  6AC8  00 FC 00              BYTE $00,$FC,$00,$00,$0C,$00,$00,$1C
08257  6AD0  00 00 18              BYTE $00,$00,$18,$00,$00,$30,$00,$00
08258  6AD8  30 00 00              BYTE $30,$00,$00,$30,$0E,$00,$70,$1F
08259  6AE0  00 60 7B              BYTE $00,$60,$7B,$00,$7F,$F1,$80,$3F
08260  6AE8  C0 C0 00              BYTE $C0,$C0,$00,$00,$00,$00,$00,$00
08261  6AF0  00 00 00              BYTE $00,$00,$00,$00,$00,$00,$00,$00
08262  6AF8  00 00 00              BYTE $00,$00,$00,$00,$00,$00,$00,$00
08263  6B00  00 00 00              BYTE $00,$00,$00,$0E,$00,$00,$3B,$00
08264  6B08  00 3F 00              BYTE $00,$3F,$00,$00,$06,$00,$00,$0E
08265  6B10  00 00 1C              BYTE $00,$00,$1C,$00,$00,$18,$00,$00
08266  6B18  38 00 00              BYTE $38,$00,$00,$30,$F0,$00,$61,$F8
08267  6B20  40 63 9C              BYTE $40,$63,$9C,$40,$7F,$0E,$C0,$3E
08268  6B28  07 80 00              BYTE $07,$80,$00,$00,$00,$00,$00,$00
08269  6B30  00 00 00              BYTE $00,$00,$00,$00,$00,$00,$00,$00
08270  6B38  00 00 00              BYTE $00,$00,$00,$00,$00,$00,$00,$00
08271  6B40  00 00 00              BYTE $00,$00,$00,$38,$00,$00,$EC,$00
08272  6B48  00 FC 00              BYTE $00,$FC,$00,$00,$0C,$00,$00,$1C
08273  6B50  00 00 18              BYTE $00,$00,$18,$00,$00,$39,$C0,$00
08274  6B58  33 E0 00              BYTE $33,$E0,$00,$33,$60,$00,$77,$60
08275  6B60  00 66 70              BYTE $00,$66,$70,$00,$7E,$38,$00,$3C
08276  6B68  0C 00 00              BYTE $0C,$00,$00,$00,$00,$00,$00,$00
08277  6B70  00 00 00              BYTE $00,$00,$00,$00,$00,$00,$00,$00
08278  6B78  00 00 00              BYTE $00,$00,$00,$00,$00,$00,$00,$00
08279  6B80  00 00 00              BYTE $00,$00,$00,$38,$00,$00,$EC,$00
08280  6B88  00 FC 00              BYTE $00,$FC,$00,$00,$0C,$00,$00,$1C
08281  6B90  00 00 18              BYTE $00,$00,$18,$00,$00,$38,$00,$00
08282  6B98  30 00 00              BYTE $30,$00,$00,$30,$1C,$00,$70,$3E
08283  6BA0  00 60 F6              BYTE $00,$60,$F6,$00,$7F,$E3,$00,$3F
08284  6BA8  81 00 00              BYTE $81,$00,$00,$00,$00,$00,$00,$00
08285  6BB0  00 00 00              BYTE $00,$00,$00,$00,$00,$00,$00,$00
08286  6BB8  00 00 00              BYTE $00,$00,$00,$00,$00,$00,$00,$00
08287  6BC0             
08288  6BC0             @          
08289  6BC0             @          
08290  6BC0  00 00 00              BYTE $00,$00,$00,$00,$07,$00,$00,$0D
08291  6BC8  C0 00 0F              BYTE $C0,$00,$0F,$C0,$00,$0C,$00,$00
08292  6BD0  0E 00 00              BYTE $0E,$00,$00,$06,$00,$00,$03,$00
08293  6BD8  00 03 00              BYTE $00,$03,$00,$1C,$03,$00,$3E,$03
08294  6BE0  80 37 81              BYTE $80,$37,$81,$80,$63,$FF,$80,$C0
08295  6BE8  FF 00 00              BYTE $FF,$00,$00,$00,$00,$00,$00,$00
08296  6BF0  00 00 00              BYTE $00,$00,$00,$00,$00,$00,$00,$00
08297  6BF8  00 00 00              BYTE $00,$00,$00,$00,$00,$00,$00,$00
08298  6C00  00 00 00              BYTE $00,$00,$00,$00,$1C,$00,$00,$37
08299  6C08  00 00 3F              BYTE $00,$00,$3F,$00,$00,$18,$00,$00
08300  6C10  1C 00 00              BYTE $1C,$00,$00,$0E,$00,$00,$06,$00
08301  6C18  00 07 00              BYTE $00,$07,$00,$03,$C3,$00,$87,$E1
08302  6C20  80 8E 71              BYTE $80,$8E,$71,$80,$DC,$3F,$80,$78
08303  6C28  1F 00 00              BYTE $1F,$00,$00,$00,$00,$00,$00,$00
08304  6C30  00 00 00              BYTE $00,$00,$00,$00,$00,$00,$00,$00
08305  6C38  00 00 00              BYTE $00,$00,$00,$00,$00,$00,$00,$00
08306  6C40  00 00 00              BYTE $00,$00,$00,$00,$07,$00,$00,$0D
08307  6C48  C0 00 0F              BYTE $C0,$00,$0F,$C0,$00,$0C,$00,$00
08308  6C50  0E 00 00              BYTE $0E,$00,$00,$06,$00,$00,$E7,$00
08309  6C58  01 F3 00              BYTE $01,$F3,$00,$01,$B3,$00,$01,$BB
08310  6C60  80 03 99              BYTE $80,$03,$99,$80,$07,$1F,$80,$0C
08311  6C68  0F 00 00              BYTE $0F,$00,$00,$00,$00,$00,$00,$00
08312  6C70  00 00 00              BYTE $00,$00,$00,$00,$00,$00,$00,$00
08313  6C78  00 00 00              BYTE $00,$00,$00,$00,$00,$00,$00,$00
08314  6C80  00 00 00              BYTE $00,$00,$00,$00,$07,$00,$00,$0D
08315  6C88  C0 00 0F              BYTE $C0,$00,$0F,$C0,$00,$0C,$00,$00
08316  6C90  0E 00 00              BYTE $0E,$00,$00,$06,$00,$00,$07,$00
08317  6C98  00 03 00              BYTE $00,$03,$00,$0E,$03,$00,$1F,$03
08318  6CA0  80 1B C1              BYTE $80,$1B,$C1,$80,$31,$FF,$80,$20
08319  6CA8  7F 00 00              BYTE $7F,$00,$00,$00,$00,$00,$00,$00
08320  6CB0  00 00 00              BYTE $00,$00,$00,$00,$00,$00,$00,$00
08321  6CB8  00 00 00              BYTE $00,$00,$00,$00,$00,$00,$00,$00
08322  6CC0             
08323  6CC0             @          
08324  6CC0             @          
08325  6CC0  00 00 00              BYTE $00,$00,$00,$00,$00,$00,$00,$04
08326  6CC8  00 00 18              BYTE $00,$00,$18,$00,$00,$70,$00,$01
08327  6CD0  20 00 39              BYTE $20,$00,$39,$80,$00,$7C,$C0,$00
08328  6CD8  7E 00 00              BYTE $7E,$00,$00,$3F,$00,$00,$3F,$00
08329  6CE0  00 1F 00              BYTE $00,$1F,$00,$00,$06,$00,$00,$00
08330  6CE8  00 00 00              BYTE $00,$00,$00,$00,$00,$00,$00,$00
08331  6CF0  00 00 00              BYTE $00,$00,$00,$00,$00,$00,$00,$00
08332  6CF8  00 00 00              BYTE $00,$00,$00,$00,$00,$00,$00,$00
08333  6D00  00 00 00              BYTE $00,$00,$00,$00,$80,$00,$00,$80
08334  6D08  00 01 80              BYTE $00,$01,$80,$00,$00,$00,$00,$01
08335  6D10  80 00 03              BYTE $80,$00,$03,$C0,$00,$00,$00,$00
08336  6D18  03 C0 00              BYTE $03,$C0,$00,$0F,$F0,$00,$1F,$F8
08337  6D20  00 1F F8              BYTE $00,$1F,$F8,$00,$0F,$F0,$00,$00
08338  6D28  00 00 00              BYTE $00,$00,$00,$00,$00,$00,$00,$00
08339  6D30  00 00 00              BYTE $00,$00,$00,$00,$00,$00,$00,$00
08340  6D38  00 00 00              BYTE $00,$00,$00,$00,$00,$00,$00,$00
08341  6D40  00 00 00              BYTE $00,$00,$00,$00,$00,$00,$20,$00
08342  6D48  00 18 00              BYTE $00,$18,$00,$00,$0E,$00,$00,$04
08343  6D50  80 00 01              BYTE $80,$00,$01,$9C,$00,$03,$3E,$00
08344  6D58  00 7E 00              BYTE $00,$7E,$00,$00,$FC,$00,$00,$FC
08345  6D60  00 00 F8              BYTE $00,$00,$F8,$00,$00,$60,$00,$00
08346  6D68  00 00 00              BYTE $00,$00,$00,$00,$00,$00,$00,$00
08347  6D70  00 00 00              BYTE $00,$00,$00,$00,$00,$00,$00,$00
08348  6D78  00 00 00              BYTE $00,$00,$00,$00,$00,$00,$00,$00
08349  6D80  00 00 00              BYTE $00,$00,$00,$00,$00,$00,$00,$60
08350  6D88  00 00 F8              BYTE $00,$00,$F8,$00,$00,$FC,$00,$00
08351  6D90  FC 00 00              BYTE $FC,$00,$00,$7E,$00,$03,$3E,$00
08352  6D98  01 9C 00              BYTE $01,$9C,$00,$04,$80,$00,$0E,$00
08353  6DA0  00 18 00              BYTE $00,$18,$00,$00,$20,$00,$00,$00
08354  6DA8  00 00 00              BYTE $00,$00,$00,$00,$00,$00,$00,$00
08355  6DB0  00 00 00              BYTE $00,$00,$00,$00,$00,$00,$00,$00
08356  6DB8  00 00 00              BYTE $00,$00,$00,$00,$00,$00,$00,$00
08357  6DC0  00 00 00              BYTE $00,$00,$00,$00,$00,$00,$0F,$F0
08358  6DC8  00 1F F8              BYTE $00,$1F,$F8,$00,$1F,$F8,$00,$0F
08359  6DD0  F0 00 03              BYTE $F0,$00,$03,$C0,$00,$00,$00,$00
08360  6DD8  03 C0 00              BYTE $03,$C0,$00,$01,$80,$00,$00,$00
08361  6DE0  00 01 80              BYTE $00,$01,$80,$00,$00,$80,$00,$00
08362  6DE8  80 00 00              BYTE $80,$00,$00,$00,$00,$00,$00,$00
08363  6DF0  00 00 00              BYTE $00,$00,$00,$00,$00,$00,$00,$00
08364  6DF8  00 00 00              BYTE $00,$00,$00,$00,$00,$00,$00,$00
08365  6E00  00 00 00              BYTE $00,$00,$00,$00,$00,$00,$06,$00
08366  6E08  00 1F 00              BYTE $00,$1F,$00,$00,$3F,$00,$00,$3F
08367  6E10  00 00 7E              BYTE $00,$00,$7E,$00,$00,$7C,$C0,$00
08368  6E18  39 80 00              BYTE $39,$80,$00,$01,$20,$00,$00,$70
08369  6E20  00 00 18              BYTE $00,$00,$18,$00,$00,$04,$00,$00
08370  6E28  00 00 00              BYTE $00,$00,$00,$00,$00,$00,$00,$00
08371  6E30  00 00 00              BYTE $00,$00,$00,$00,$00,$00,$00,$00
08372  6E38  00 00 00              BYTE $00,$00,$00,$00,$00,$00,$00,$00
08373  6E40             
08374  6E40             @          
08375  6E40             @          
08376  6E40  03 C0 00              BYTE $03,$C0,$00,$05,$A0,$00,$07,$E0
08377  6E48  00 0B D0              BYTE $00,$0B,$D0,$00,$14,$28,$00,$28
08378  6E50  14 00 28              BYTE $14,$00,$28,$14,$00,$28,$14,$00
08379  6E58  28 14 00              BYTE $28,$14,$00,$28,$14,$00,$24,$24
08380  6E60  00 20 04              BYTE $00,$20,$04,$00,$10,$08,$00,$08
08381  6E68  10 00 00              BYTE $10,$00,$00,$00,$00,$00,$00,$00
08382  6E70  00 00 00              BYTE $00,$00,$00,$00,$00,$00,$00,$00
08383  6E78  00 00 00              BYTE $00,$00,$00,$00,$00,$00,$00,$00
08384  6E80  00 00 00              BYTE $00,$00,$00,$00,$00,$00,$03,$C0
08385  6E88  00 05 A0              BYTE $00,$05,$A0,$00,$07,$E0,$00,$0B
08386  6E90  D0 00 14              BYTE $D0,$00,$14,$28,$00,$28,$14,$00
08387  6E98  48 12 00              BYTE $48,$12,$00,$90,$09,$00,$48,$12
08388  6EA0  00 24 24              BYTE $00,$24,$24,$00,$12,$48,$00,$08
08389  6EA8  10 00 00              BYTE $10,$00,$00,$00,$00,$00,$00,$00
08390  6EB0  00 00 00              BYTE $00,$00,$00,$00,$00,$00,$00,$00
08391  6EB8  00 00 00              BYTE $00,$00,$00,$00,$00,$00,$00,$00
08392  6EC0  00 00 00              BYTE $00,$00,$00,$00,$00,$00,$00,$00
08393  6EC8  00 00 00              BYTE $00,$00,$00,$00,$00,$00,$00,$03
08394  6ED0  C0 00 05              BYTE $C0,$00,$05,$A0,$00,$07,$E0,$00
08395  6ED8  1B D8 00              BYTE $1B,$D8,$00,$64,$26,$00,$88,$11
08396  6EE0  00 90 09              BYTE $00,$90,$09,$00,$48,$12,$00,$24
08397  6EE8  24 00 00              BYTE $24,$00,$00,$00,$00,$00,$00,$00
08398  6EF0  00 00 00              BYTE $00,$00,$00,$00,$00,$00,$00,$00
08399  6EF8  00 00 00              BYTE $00,$00,$00,$00,$00,$00,$00,$00
08400  6F00  00 00 00              BYTE $00,$00,$00,$00,$00,$00,$00,$00
08401  6F08  00 03 C0              BYTE $00,$03,$C0,$00,$05,$A0,$00,$07
08402  6F10  E0 00 1B              BYTE $E0,$00,$1B,$D8,$00,$64,$26,$00
08403  6F18  88 11 00              BYTE $88,$11,$00,$90,$09,$00,$48,$12
08404  6F20  00 24 24              BYTE $00,$24,$24,$00,$00,$00,$00,$00
08405  6F28  00 00 00              BYTE $00,$00,$00,$00,$00,$00,$00,$00
08406  6F30  00 00 00              BYTE $00,$00,$00,$00,$00,$00,$00,$00
08407  6F38  00 00 00              BYTE $00,$00,$00,$00,$00,$00,$00,$00
08408  6F40  03 C0 00              BYTE $03,$C0,$00,$05,$A0,$00,$07,$E0
08409  6F48  00 1B D8              BYTE $00,$1B,$D8,$00,$64,$26,$00,$88
08410  6F50  11 00 90              BYTE $11,$00,$90,$09,$00,$48,$12,$00
08411  6F58  24 24 00              BYTE $24,$24,$00,$00,$00,$00,$00,$00
08412  6F60  00 00 00              BYTE $00,$00,$00,$00,$00,$00,$00,$00
08413  6F68  00 00 00              BYTE $00,$00,$00,$00,$00,$00,$00,$00
08414  6F70  00 00 00              BYTE $00,$00,$00,$00,$00,$00,$00,$00
08415  6F78  00 00 00              BYTE $00,$00,$00,$00,$00,$00,$00,$00
08416  6F80             
08417  6F80             @          
08418  6F80             @          
08419  6F80  04 00 00              BYTE $04,$00,$00,$0E,$00,$00,$14,$00
08420  6F88  00 0A 00              BYTE $00,$0A,$00,$00,$04,$00,$00,$03
08421  6F90  00 00 DA              BYTE $00,$00,$DA,$00,$00,$55,$00,$00
08422  6F98  0F 00 00              BYTE $0F,$00,$00,$02,$00,$00,$07,$00
08423  6FA0  00 00 A0              BYTE $00,$00,$A0,$00,$06,$60,$00,$00
08424  6FA8  20 00 0C              BYTE $20,$00,$0C,$00,$00,$1C,$00,$00
08425  6FB0  00 00 00              BYTE $00,$00,$00,$00,$00,$00,$00,$00
08426  6FB8  00 00 00              BYTE $00,$00,$00,$00,$00,$00,$00,$00
08427  6FC0  02 00 00              BYTE $02,$00,$00,$07,$00,$00,$0A,$00
08428  6FC8  00 05 00              BYTE $00,$05,$00,$00,$02,$00,$00,$69
08429  6FD0  80 00 2F              BYTE $80,$00,$2F,$00,$00,$00,$80,$00
08430  6FD8  07 80 00              BYTE $07,$80,$00,$09,$00,$00,$07,$80
08431  6FE0  00 10 00              BYTE $00,$10,$00,$00,$0B,$C0,$00,$00
08432  6FE8  40 00 03              BYTE $40,$00,$03,$00,$00,$07,$00,$00
08433  6FF0  00 00 00              BYTE $00,$00,$00,$00,$00,$00,$00,$00
08434  6FF8  00 00 00              BYTE $00,$00,$00,$00,$00,$00,$00,$00
08435  7000  02 00 00              BYTE $02,$00,$00,$07,$00,$00,$0A,$00
08436  7008  00 05 00              BYTE $00,$05,$00,$00,$02,$00,$00,$69
08437  7010  80 00 2F              BYTE $80,$00,$2F,$00,$00,$00,$80,$00
08438  7018  07 80 00              BYTE $07,$80,$00,$01,$00,$00,$0B,$80
08439  7020  00 06 00              BYTE $00,$06,$00,$00,$11,$80,$00,$38
08440  7028  00 00 00              BYTE $00,$00,$00,$C0,$00,$01,$C0,$00
08441  7030  00 00 00              BYTE $00,$00,$00,$00,$00,$00,$00,$00
08442  7038  00 00 00              BYTE $00,$00,$00,$00,$00,$00,$00,$00
08443  7040  04 00 00              BYTE $04,$00,$00,$0E,$00,$00,$14,$00
08444  7048  00 0A 00              BYTE $00,$0A,$00,$00,$04,$00,$00,$03
08445  7050  00 00 DE              BYTE $00,$00,$DE,$00,$00,$5D,$00,$00
08446  7058  0F 00 00              BYTE $0F,$00,$00,$02,$00,$00,$0C,$40
08447  7060  00 00 90              BYTE $00,$00,$90,$00,$18,$30,$00,$00
08448  7068  10 00 18              BYTE $10,$00,$18,$00,$00,$38,$00,$00
08449  7070  00 00 00              BYTE $00,$00,$00,$00,$00,$00,$00,$00
08450  7078  00 00 00              BYTE $00,$00,$00,$00,$00,$00,$00,$00
08451  7080             
08452  7080             @          
08453  7080             @          
08454  7080  04 00 00              BYTE $04,$00,$00,$0E,$00,$00,$05,$00
08455  7088  00 0A 00              BYTE $00,$0A,$00,$00,$04,$00,$00,$18
08456  7090  00 00 0B              BYTE $00,$00,$0B,$60,$00,$15,$40,$00
08457  7098  1E 00 00              BYTE $1E,$00,$00,$08,$00,$00,$1C,$00
08458  70A0  00 A0 00              BYTE $00,$A0,$00,$00,$CC,$00,$00,$80
08459  70A8  00 00 06              BYTE $00,$00,$06,$00,$00,$07,$00,$00
08460  70B0  00 00 00              BYTE $00,$00,$00,$00,$00,$00,$00,$00
08461  70B8  00 00 00              BYTE $00,$00,$00,$00,$00,$00,$00,$00
08462  70C0  04 00 00              BYTE $04,$00,$00,$0E,$00,$00,$05,$00
08463  70C8  00 0A 00              BYTE $00,$0A,$00,$00,$04,$00,$00,$19
08464  70D0  60 00 0F              BYTE $60,$00,$0F,$40,$00,$10,$00,$00
08465  70D8  1E 00 00              BYTE $1E,$00,$00,$09,$00,$00,$1E,$00
08466  70E0  00 00 80              BYTE $00,$00,$80,$00,$3D,$00,$00,$20
08467  70E8  00 00 0C              BYTE $00,$00,$0C,$00,$00,$0E,$00,$00
08468  70F0  00 00 00              BYTE $00,$00,$00,$00,$00,$00,$00,$00
08469  70F8  00 00 00              BYTE $00,$00,$00,$00,$00,$00,$00,$00
08470  7100  04 00 00              BYTE $04,$00,$00,$0E,$00,$00,$05,$00
08471  7108  00 0A 00              BYTE $00,$0A,$00,$00,$04,$00,$00,$19
08472  7110  60 00 0F              BYTE $60,$00,$0F,$40,$00,$10,$00,$00
08473  7118  1E 00 00              BYTE $1E,$00,$00,$08,$00,$00,$1D,$00
08474  7120  00 06 00              BYTE $00,$06,$00,$00,$18,$80,$00,$01
08475  7128  C0 00 30              BYTE $C0,$00,$30,$00,$00,$38,$00,$00
08476  7130  00 00 00              BYTE $00,$00,$00,$00,$00,$00,$00,$00
08477  7138  00 00 00              BYTE $00,$00,$00,$00,$00,$00,$00,$00
08478  7140  02 00 00              BYTE $02,$00,$00,$07,$00,$00,$02,$80
08479  7148  00 05 00              BYTE $00,$05,$00,$00,$02,$00,$00,$0C
08480  7150  00 00 07              BYTE $00,$00,$07,$B0,$00,$0B,$A0,$00
08481  7158  0F 00 00              BYTE $0F,$00,$00,$04,$00,$00,$23,$00
08482  7160  00 90 00              BYTE $00,$90,$00,$00,$C1,$80,$00,$80
08483  7168  00 00 01              BYTE $00,$00,$01,$80,$00,$01,$C0,$00
08484  7170  00 00 00              BYTE $00,$00,$00,$00,$00,$00,$00,$00
08485  7178  00 00 00              BYTE $00,$00,$00,$00,$00,$00,$00,$00
08486  7180             
08487  7180             @          
08488  7180             @          
08489  7180  04 04 40              BYTE $04,$04,$40,$04,$04,$40,$2E,$4E
08490  7188  E0 24 44              BYTE $E0,$24,$44,$40,$74,$E4,$44,$24
08491  7190  44 44 24              BYTE $44,$44,$24,$44,$4E,$24,$44,$44
08492  7198  24 44 44              BYTE $24,$44,$44,$24,$44,$44,$24,$44
08493  71A0  44 27 F4              BYTE $44,$27,$F4,$4F,$3F,$F7,$79,$73
08494  71A8  EF FF 77              BYTE $EF,$FF,$77,$FF,$FF,$FF,$FF,$FF
08495  71B0  00 00 00              BYTE $00,$00,$00,$00,$00,$00,$00,$00
08496  71B8  00 00 00              BYTE $00,$00,$00,$00,$00,$00,$00,$00
08497  71C0             
08498  71C0             @          
08499  71C0             @          
08500  71C0  00 00 00              BYTE $00,$00,$00,$40,$00,$00,$40,$00
08501  71C8  00 E0 00              BYTE $00,$E0,$00,$00,$40,$00,$00,$40
08502  71D0  00 00 40              BYTE $00,$00,$40,$00,$00,$48,$00,$00
08503  71D8  48 00 00              BYTE $48,$00,$00,$5C,$00,$00,$48,$00
08504  71E0  00 48 00              BYTE $00,$48,$00,$00,$FC,$00,$00,$EC
08505  71E8  00 00 FE              BYTE $00,$00,$FE,$00,$00,$FE,$00,$00
08506  71F0  00 00 00              BYTE $00,$00,$00,$00,$00,$00,$00,$00
08507  71F8  00 00 00              BYTE $00,$00,$00,$00,$00,$00,$00,$00
08508  7200             
08509  7200             @          
08510  7200             @          
08511  7200  00 00 33              BYTE $00,$00,$33,$00,$00,$66,$61,$F0
08512  7208  CC 7F 1C              BYTE $CC,$7F,$1C,$99,$7C,$47,$33,$38
08513  7210  E1 66 3C              BYTE $E1,$66,$3C,$47,$CC,$1F,$1C,$99
08514  7218  1D F0 33              BYTE $1D,$F0,$33,$18,$00,$66,$38,$00
08515  7220  CC 38 00              BYTE $CC,$38,$00,$99,$F0,$00,$33,$F0
08516  7228  00 66 C0              BYTE $00,$66,$C0,$00,$CC,$00,$00,$99
08517  7230  33 33 33              BYTE $33,$33,$33,$66,$66,$66,$CC,$CC
08518  7238  CC 99 99              BYTE $CC,$99,$99,$99,$33,$33,$33,$00
08519  7240  00 00 CC              BYTE $00,$00,$CC,$00,$00,$99,$61,$F0
08520  7248  33 7F 1C              BYTE $33,$7F,$1C,$66,$7C,$47,$CC,$38
08521  7250  E1 99 3C              BYTE $E1,$99,$3C,$47,$33,$1F,$1C,$66
08522  7258  1D F0 CC              BYTE $1D,$F0,$CC,$18,$00,$99,$38,$00
08523  7260  33 38 00              BYTE $33,$38,$00,$66,$F0,$00,$CC,$F0
08524  7268  00 99 C0              BYTE $00,$99,$C0,$00,$33,$00,$00,$66
08525  7270  CC CC CC              BYTE $CC,$CC,$CC,$99,$99,$99,$33,$33
08526  7278  33 66 66              BYTE $33,$66,$66,$66,$CC,$CC,$CC,$00
08527  7280             
08528  7280             @          
08529  7280             ADDR_SPRITE_KEY_2 
08530  7280             @          
08531  7280  00 00 00              BYTE $00,$00,$00,$00,$0F,$F0,$00,$02
08532  7288  C0 00 05              BYTE $C0,$00,$05,$E0,$00,$1B,$F8,$00
08533  7290  35 DC 00              BYTE $35,$DC,$00,$2B,$E8,$00,$57,$76
08534  7298  00 6B 4E              BYTE $00,$6B,$4E,$00,$35,$AC,$00,$1B
08535  72A0  B0 00 15              BYTE $B0,$00,$15,$B8,$00,$0B,$D0,$00
08536  72A8  05 E0 00              BYTE $05,$E0,$00,$02,$C0,$00,$85,$E0
08537  72B0  00 00 00              BYTE $00,$00,$00,$00,$00,$00,$00,$00
08538  72B8  00 00 00              BYTE $00,$00,$00,$00,$00,$00,$00,$00
08539  72C0             
08540  72C0             @          
08541  72C0             @          
08542  72C0  00 00 00              BYTE $00,$00,$00,$00,$00,$00,$44,$44
08543  72C8  00 AA AA              BYTE $00,$AA,$AA,$00,$11,$11,$00,$00
08544  72D0  00 00 40              BYTE $00,$00,$40,$00,$00,$40,$00,$00
08545  72D8  E0 00 00              BYTE $E0,$00,$00,$A0,$00,$00,$63,$80
08546  72E0  00 2F E0              BYTE $00,$2F,$E0,$00,$3F,$F8,$00,$00
08547  72E8  00 00 00              BYTE $00,$00,$00,$00,$00,$00,$00,$00
08548  72F0  00 00 00              BYTE $00,$00,$00,$00,$00,$00,$00,$00
08549  72F8  00 00 00              BYTE $00,$00,$00,$00,$00,$00,$00,$00
08550  7300             
08551  7300             @          
08552  7300             @          
08553  7300  07 E0 00              BYTE $07,$E0,$00,$1F,$F8,$00,$3F,$FC
08554  7308  00 7F FE              BYTE $00,$7F,$FE,$00,$7F,$FE,$00,$FF
08555  7310  FF 00 FF              BYTE $FF,$00,$FF,$FF,$00,$FF,$FF,$00
08556  7318  FF FF 00              BYTE $FF,$FF,$00,$FF,$FB,$00,$FF,$FB
08557  7320  00 7F F6              BYTE $00,$7F,$F6,$00,$7F,$EE,$00,$3F
08558  7328  FC 00 1F              BYTE $FC,$00,$1F,$F8,$00,$07,$E0,$00
08559  7330  00 00 00              BYTE $00,$00,$00,$00,$00,$00,$00,$00
08560  7338  00 00 00              BYTE $00,$00,$00,$00,$00,$00,$00,$00
08561  7340  00 00 00              BYTE $00,$00,$00,$07,$E0,$00,$1F,$F8
08562  7348  00 3F FC              BYTE $00,$3F,$FC,$00,$3F,$FC,$00,$7F
08563  7350  FE 00 7F              BYTE $FE,$00,$7F,$FE,$00,$7F,$FE,$00
08564  7358  7F F6 00              BYTE $7F,$F6,$00,$7F,$F6,$00,$7F,$EE
08565  7360  00 3F DC              BYTE $00,$3F,$DC,$00,$3F,$FC,$00,$1F
08566  7368  F8 00 07              BYTE $F8,$00,$07,$E0,$00,$00,$00,$00
08567  7370  00 00 00              BYTE $00,$00,$00,$00,$00,$00,$00,$00
08568  7378  00 00 00              BYTE $00,$00,$00,$00,$00,$00,$00,$00
08569  7380             
08570  7380             @          
08571  7380             @          
08572  7380  07 E0 00              BYTE $07,$E0,$00,$18,$18,$00,$20,$04
08573  7388  00 40 02              BYTE $00,$40,$02,$00,$40,$02,$00,$80
08574  7390  01 00 80              BYTE $01,$00,$80,$01,$00,$80,$01,$00
08575  7398  80 01 00              BYTE $80,$01,$00,$80,$01,$00,$80,$01
08576  73A0  00 40 02              BYTE $00,$40,$02,$00,$40,$02,$00,$20
08577  73A8  04 00 18              BYTE $04,$00,$18,$18,$00,$07,$E0,$00
08578  73B0  00 00 00              BYTE $00,$00,$00,$00,$00,$00,$00,$00
08579  73B8  00 00 00              BYTE $00,$00,$00,$00,$00,$00,$00,$00
08580  73C0  03 F0 00              BYTE $03,$F0,$00,$07,$58,$00,$0E,$34
08581  73C8  00 0E 08              BYTE $00,$0E,$08,$00,$1C,$14,$00,$1C
08582  73D0  0A 00 1C              BYTE $0A,$00,$1C,$04,$00,$1C,$0A,$00
08583  73D8  1C 04 00              BYTE $1C,$04,$00,$1C,$0A,$00,$1C,$04
08584  73E0  00 1C 0A              BYTE $00,$1C,$0A,$00,$0E,$0C,$00,$0E
08585  73E8  14 00 07              BYTE $14,$00,$07,$28,$00,$03,$F0,$00
08586  73F0  00 00 00              BYTE $00,$00,$00,$00,$00,$00,$00,$00
08587  73F8  00 00 00              BYTE $00,$00,$00,$00,$00,$00,$00,$00
08588  7400  01 80 00              BYTE $01,$80,$00,$03,$C0,$00,$07,$E0
08589  7408  00 07 40              BYTE $00,$07,$40,$00,$0F,$20,$00,$0E
08590  7410  50 00 0E              BYTE $50,$00,$0E,$20,$00,$0E,$50,$00
08591  7418  0E 20 00              BYTE $0E,$20,$00,$0E,$50,$00,$0E,$20
08592  7420  00 0E 50              BYTE $00,$0E,$50,$00,$07,$20,$00,$07
08593  7428  40 00 03              BYTE $40,$00,$03,$E0,$00,$01,$C0,$00
08594  7430  00 00 00              BYTE $00,$00,$00,$00,$00,$00,$00,$00
08595  7438  00 00 00              BYTE $00,$00,$00,$00,$00,$00,$00,$00
08596  7440  03 80 00              BYTE $03,$80,$00,$03,$80,$00,$03,$80
08597  7448  00 03 80              BYTE $00,$03,$80,$00,$03,$80,$00,$03
08598  7450  80 00 03              BYTE $80,$00,$03,$80,$00,$03,$80,$00
08599  7458  03 80 00              BYTE $03,$80,$00,$03,$80,$00,$03,$80
08600  7460  00 03 80              BYTE $00,$03,$80,$00,$03,$80,$00,$03
08601  7468  80 00 03              BYTE $80,$00,$03,$80,$00,$03,$80,$00
08602  7470  00 00 00              BYTE $00,$00,$00,$00,$00,$00,$00,$00
08603  7478  00 00 00              BYTE $00,$00,$00,$00,$00,$00,$00,$00
08604  7480  01 80 00              BYTE $01,$80,$00,$03,$C0,$00,$07,$E0
08605  7488  00 02 E0              BYTE $00,$02,$E0,$00,$04,$F0,$00,$0A
08606  7490  70 00 04              BYTE $70,$00,$04,$70,$00,$0A,$70,$00
08607  7498  04 70 00              BYTE $04,$70,$00,$0A,$70,$00,$04,$70
08608  74A0  00 0A 70              BYTE $00,$0A,$70,$00,$04,$E0,$00,$02
08609  74A8  E0 00 07              BYTE $E0,$00,$07,$C0,$00,$03,$80,$00
08610  74B0  00 00 00              BYTE $00,$00,$00,$00,$00,$00,$00,$00
08611  74B8  00 00 00              BYTE $00,$00,$00,$00,$00,$00,$00,$00
08612  74C0  07 E0 00              BYTE $07,$E0,$00,$0D,$70,$00,$16,$38
08613  74C8  00 08 38              BYTE $00,$08,$38,$00,$14,$1C,$00,$28
08614  74D0  1C 00 10              BYTE $1C,$00,$10,$1C,$00,$28,$1C,$00
08615  74D8  10 1C 00              BYTE $10,$1C,$00,$28,$1C,$00,$10,$1C
08616  74E0  00 28 1C              BYTE $00,$28,$1C,$00,$18,$38,$00,$14
08617  74E8  38 00 0A              BYTE $38,$00,$0A,$70,$00,$07,$E0,$00
08618  74F0  00 00 00              BYTE $00,$00,$00,$00,$00,$00,$00,$00
08619  74F8  00 00 00              BYTE $00,$00,$00,$00,$00,$00,$00,$00
08620  7500             
08621  7500             @          
08622  7500             ADDR_SPRITE_KEY_3 
08623  7500             @          
08624  7500  00 00 00              BYTE $00,$00,$00,$00,$01,$80,$00,$03
08625  7508  C0 00 03              BYTE $C0,$00,$03,$C0,$00,$06,$60,$00
08626  7510  06 60 00              BYTE $06,$60,$00,$0D,$B0,$00,$0D,$B0
08627  7518  00 1B D8              BYTE $00,$1B,$D8,$00,$1B,$D8,$00,$37
08628  7520  EC 00 37              BYTE $EC,$00,$37,$EC,$00,$60,$06,$00
08629  7528  7F FE 00              BYTE $7F,$FE,$00,$7F,$FE,$00,$00,$00
08630  7530  00 40 00              BYTE $00,$40,$00,$00,$00,$00,$00,$00
08631  7538  00 00 00              BYTE $00,$00,$00,$00,$00,$00,$00,$00
08632  7540             
08633  7540             @          
08634  7540             @          
08635  7540  00 00 33              BYTE $00,$00,$33,$01,$80,$66,$03,$C0
08636  7548  CC 03 C0              BYTE $CC,$03,$C0,$99,$06,$60,$33,$06
08637  7550  60 66 0D              BYTE $60,$66,$0D,$B0,$CC,$0D,$B0,$99
08638  7558  1B D8 33              BYTE $1B,$D8,$33,$1B,$D8,$66,$37,$EC
08639  7560  CC 37 EC              BYTE $CC,$37,$EC,$99,$60,$06,$33,$7F
08640  7568  FE 66 7F              BYTE $FE,$66,$7F,$FE,$CC,$00,$00,$99
08641  7570  33 33 33              BYTE $33,$33,$33,$66,$66,$66,$CC,$CC
08642  7578  CC 99 99              BYTE $CC,$99,$99,$98,$33,$33,$31,$00
08643  7580  00 00 CC              BYTE $00,$00,$CC,$01,$80,$99,$03,$C0
08644  7588  33 03 C0              BYTE $33,$03,$C0,$66,$06,$60,$CC,$06
08645  7590  60 99 0D              BYTE $60,$99,$0D,$B0,$33,$0D,$B0,$66
08646  7598  1B D8 CC              BYTE $1B,$D8,$CC,$1B,$D8,$99,$37,$EC
08647  75A0  33 37 EC              BYTE $33,$37,$EC,$66,$60,$06,$CC,$7F
08648  75A8  FE 99 7F              BYTE $FE,$99,$7F,$FE,$33,$00,$00,$66
08649  75B0  CC CC CC              BYTE $CC,$CC,$CC,$99,$99,$99,$33,$33
08650  75B8  33 66 66              BYTE $33,$66,$66,$67,$CC,$CC,$CE,$00
08651  75C0             
08652  75C0             @          
08653  75C0             @          
08654  75C0  00 60 00              BYTE $00,$60,$00,$00,$C0,$00,$01,$80
08655  75C8  00 03 00              BYTE $00,$03,$00,$00,$01,$80,$00,$00
08656  75D0  C0 00 01              BYTE $C0,$00,$01,$80,$00,$03,$00,$00
08657  75D8  03 00 00              BYTE $03,$00,$00,$01,$80,$00,$01,$80
08658  75E0  00 00 C0              BYTE $00,$00,$C0,$00,$00,$C0,$00,$01
08659  75E8  80 00 03              BYTE $80,$00,$03,$00,$00,$01,$80,$00
08660  75F0  00 00 00              BYTE $00,$00,$00,$00,$00,$00,$00,$00
08661  75F8  00 00 00              BYTE $00,$00,$00,$00,$00,$00,$00,$00
08662  7600  01 80 00              BYTE $01,$80,$00,$01,$80,$00,$03,$00
08663  7608  00 03 00              BYTE $00,$03,$00,$00,$01,$80,$00,$01
08664  7610  80 00 00              BYTE $80,$00,$00,$C0,$00,$00,$C0,$00
08665  7618  01 80 00              BYTE $01,$80,$00,$03,$00,$00,$01,$80
08666  7620  00 00 C0              BYTE $00,$00,$C0,$00,$01,$80,$00,$03
08667  7628  00 00 01              BYTE $00,$00,$01,$80,$00,$01,$80,$00
08668  7630  00 00 00              BYTE $00,$00,$00,$00,$00,$00,$00,$00
08669  7638  00 00 00              BYTE $00,$00,$00,$00,$00,$00,$00,$00
08670  7640  03 00 00              BYTE $03,$00,$00,$01,$80,$00,$00,$C0
08671  7648  00 00 60              BYTE $00,$00,$60,$00,$00,$C0,$00,$01
08672  7650  80 00 03              BYTE $80,$00,$03,$00,$00,$01,$C0,$00
08673  7658  00 F0 00              BYTE $00,$F0,$00,$00,$38,$00,$00,$18
08674  7660  00 00 30              BYTE $00,$00,$30,$00,$00,$60,$00,$00
08675  7668  C0 00 01              BYTE $C0,$00,$01,$80,$00,$00,$C0,$00
08676  7670  00 00 00              BYTE $00,$00,$00,$00,$00,$00,$00,$00
08677  7678  00 00 00              BYTE $00,$00,$00,$00,$00,$00,$00,$00
08678  7680             
08679  7680             @          
08680  7680             ADDR_SPRITE_KEY_4 
08681  7680             @          
08682  7680  00 0F 00              BYTE $00,$0F,$00,$00,$31,$00,$00,$19
08683  7688  00 00 09              BYTE $00,$00,$09,$80,$00,$08,$80,$00
08684  7690  0A C0 00              BYTE $0A,$C0,$00,$0A,$60,$00,$0B,$38
08685  7698  00 09 8C              BYTE $00,$09,$8C,$00,$0C,$F4,$00,$04
08686  76A0  1C 00 06              BYTE $1C,$00,$06,$A0,$00,$03,$E0,$00
08687  76A8  01 40 00              BYTE $01,$40,$00,$01,$40,$00,$07,$F0
08688  76B0  00 04 90              BYTE $00,$04,$90,$00,$00,$00,$00,$00
08689  76B8  00 00 00              BYTE $00,$00,$00,$00,$00,$00,$00,$00
08690  76C0             
08691  76C0             @          
08692  76C0             @          
08693  76C0  33 0F 00              BYTE $33,$0F,$00,$66,$31,$00,$CC,$19
08694  76C8  00 99 09              BYTE $00,$99,$09,$80,$33,$08,$80,$66
08695  76D0  0A C0 CC              BYTE $0A,$C0,$CC,$0A,$60,$99,$0B,$38
08696  76D8  33 09 8C              BYTE $33,$09,$8C,$66,$0C,$F4,$CC,$04
08697  76E0  1C 99 06              BYTE $1C,$99,$06,$A0,$33,$03,$E0,$66
08698  76E8  01 40 CC              BYTE $01,$40,$CC,$01,$40,$99,$07,$F0
08699  76F0  33 33 33              BYTE $33,$33,$33,$66,$66,$66,$CC,$CC
08700  76F8  CC 99 99              BYTE $CC,$99,$99,$99,$33,$33,$33,$00
08701  7700  CC 0F 00              BYTE $CC,$0F,$00,$99,$31,$00,$33,$19
08702  7708  00 66 09              BYTE $00,$66,$09,$80,$CC,$08,$80,$99
08703  7710  0A C0 33              BYTE $0A,$C0,$33,$0A,$60,$66,$0B,$38
08704  7718  CC 09 8C              BYTE $CC,$09,$8C,$99,$0C,$F4,$33,$04
08705  7720  1C 66 06              BYTE $1C,$66,$06,$A0,$CC,$03,$E0,$99
08706  7728  01 40 33              BYTE $01,$40,$33,$01,$40,$66,$07,$F0
08707  7730  CC CC CC              BYTE $CC,$CC,$CC,$99,$99,$99,$33,$33
08708  7738  33 66 66              BYTE $33,$66,$66,$66,$CC,$CC,$CC,$00
08709  7740             
08710  7740             @          
08711  7740             @          
08712  7740  00 1F 00              BYTE $00,$1F,$00,$00,$CF,$00,$03,$C0
08713  7748  00 0F 9F              BYTE $00,$0F,$9F,$00,$3F,$3F,$00,$FF
08714  7750  3F 00 3E              BYTE $3F,$00,$3E,$7F,$00,$C6,$FF,$00
08715  7758  F0 FF 00              BYTE $F0,$FF,$00,$7C,$00,$00,$3E,$7F
08716  7760  00 1F 3F              BYTE $00,$1F,$3F,$00,$0F,$BF,$00,$07
08717  7768  9F 00 03              BYTE $9F,$00,$03,$DF,$00,$01,$CF,$00
08718  7770  00 EF 00              BYTE $00,$EF,$00,$00,$67,$00,$00,$37
08719  7778  00 00 13              BYTE $00,$00,$13,$00,$00,$0B,$00,$00
08720  7780             
08721  7780             @          
08722  7780             @          
08723  7780  00 F8 00              BYTE $00,$F8,$00,$00,$F3,$00,$00,$03
08724  7788  C0 00 F9              BYTE $C0,$00,$F9,$F0,$00,$FC,$FC,$00
08725  7790  FC FF 00              BYTE $FC,$FF,$00,$FE,$7C,$00,$FF,$63
08726  7798  00 FF 0F              BYTE $00,$FF,$0F,$00,$00,$3E,$00,$FE
08727  77A0  7C 00 FC              BYTE $7C,$00,$FC,$F8,$00,$FD,$F0,$00
08728  77A8  F9 E0 00              BYTE $F9,$E0,$00,$FB,$C0,$00,$F3,$80
08729  77B0  00 F7 00              BYTE $00,$F7,$00,$00,$E6,$00,$00,$EC
08730  77B8  00 00 C8              BYTE $00,$00,$C8,$00,$00,$D0,$00,$00
08731  77C0             
08732  77C0             @          
08733  77C0             ADDR_SPRITE_KEY_5 
08734  77C0             @          
08735  77C0  00 7F FE              BYTE $00,$7F,$FE,$00,$80,$01,$00,$83
08736  77C8  81 00 86              BYTE $81,$00,$86,$C1,$00,$8C,$61,$00
08737  77D0  8C 61 00              BYTE $8C,$61,$00,$86,$C1,$00,$83,$81
08738  77D8  00 81 81              BYTE $00,$81,$81,$00,$81,$81,$00,$87
08739  77E0  81 00 81              BYTE $81,$00,$81,$81,$00,$8F,$81,$00
08740  77E8  80 01 00              BYTE $80,$01,$00,$80,$01,$00,$7F,$FE
08741  77F0  00 7F FE              BYTE $00,$7F,$FE,$00,$00,$00,$00,$00
08742  77F8  00 00 00              BYTE $00,$00,$00,$00,$00,$00,$00,$00
08743  7800             
08744  7800             @          
08745  7800             @          
08746  7800  66 0F F0              BYTE $66,$0F,$F0,$CC,$02,$C0,$99,$05
08747  7808  E0 33 1B              BYTE $E0,$33,$1B,$F8,$66,$35,$DC,$CC
08748  7810  2B E8 99              BYTE $2B,$E8,$99,$57,$76,$33,$6B,$4E
08749  7818  66 35 AC              BYTE $66,$35,$AC,$CC,$1B,$B0,$99,$15
08750  7820  B8 33 0B              BYTE $B8,$33,$0B,$D0,$66,$05,$E0,$CC
08751  7828  02 C0 99              BYTE $02,$C0,$99,$05,$E0,$33,$00,$00
08752  7830  66 66 66              BYTE $66,$66,$66,$CC,$CC,$CC,$99,$99
08753  7838  99 33 33              BYTE $99,$33,$33,$33,$66,$66,$66,$00
08754  7840  99 0F F0              BYTE $99,$0F,$F0,$33,$02,$C0,$66,$05
08755  7848  E0 CC 1B              BYTE $E0,$CC,$1B,$F8,$19,$35,$DC,$33
08756  7850  2B E8 66              BYTE $2B,$E8,$66,$57,$76,$CC,$6B,$4E
08757  7858  99 35 AC              BYTE $99,$35,$AC,$33,$1B,$B0,$66,$15
08758  7860  B8 CC 0B              BYTE $B8,$CC,$0B,$D0,$99,$05,$E0,$33
08759  7868  02 C0 66              BYTE $02,$C0,$66,$05,$E0,$CC,$00,$00
08760  7870  99 99 99              BYTE $99,$99,$99,$33,$33,$33,$66,$66
08761  7878  66 CC CC              BYTE $66,$CC,$CC,$CC,$99,$99,$99,$00
08762  7880             
08763  7880             @          
08764  7880             ADDR_SPRITE_KEY_6 
08765  7880             @          
08766  7880  00 0F 00              BYTE $00,$0F,$00,$00,$3B,$00,$00,$0F
08767  7888  00 00 03              BYTE $00,$00,$03,$00,$00,$03,$00,$00
08768  7890  03 00 00              BYTE $03,$00,$00,$07,$80,$00,$04,$E0
08769  7898  00 06 38              BYTE $00,$06,$38,$00,$07,$88,$00,$03
08770  78A0  F8 00 03              BYTE $F8,$00,$03,$C0,$00,$03,$60,$00
08771  78A8  06 30 00              BYTE $06,$30,$00,$0C,$18,$00,$18,$0C
08772  78B0  00 10 08              BYTE $00,$10,$08,$00,$00,$00,$00,$00
08773  78B8  00 00 00              BYTE $00,$00,$00,$00,$00,$00,$00,$00
08774  78C0             
08775  78C0             @          
08776  78C0             @          
08777  78C0  07 80 66              BYTE $07,$80,$66,$1D,$80,$CC,$07,$80
08778  78C8  99 01 80              BYTE $99,$01,$80,$33,$01,$80,$66,$01
08779  78D0  80 CC 03              BYTE $80,$CC,$03,$C0,$99,$02,$70,$33
08780  78D8  03 1C 66              BYTE $03,$1C,$66,$03,$C4,$CC,$01,$FC
08781  78E0  99 01 E0              BYTE $99,$01,$E0,$33,$01,$B0,$66,$03
08782  78E8  18 CC 06              BYTE $18,$CC,$06,$0C,$99,$0C,$06,$33
08783  78F0  66 66 66              BYTE $66,$66,$66,$CC,$CC,$CC,$99,$99
08784  78F8  99 33 33              BYTE $99,$33,$33,$33,$66,$66,$66,$00
08785  7900  07 80 99              BYTE $07,$80,$99,$1D,$80,$33,$07,$80
08786  7908  66 01 80              BYTE $66,$01,$80,$CC,$01,$80,$99,$01
08787  7910  80 33 03              BYTE $80,$33,$03,$C0,$66,$02,$70,$CC
08788  7918  03 1C 99              BYTE $03,$1C,$99,$03,$C4,$33,$01,$FC
08789  7920  66 01 E0              BYTE $66,$01,$E0,$CC,$01,$B0,$99,$03
08790  7928  18 33 06              BYTE $18,$33,$06,$0C,$66,$0C,$06,$CC
08791  7930  99 99 99              BYTE $99,$99,$99,$33,$33,$33,$66,$66
08792  7938  66 CC CC              BYTE $66,$CC,$CC,$CC,$99,$99,$99,$00
08793  7940             
08794  7940             @          
08795  7940             @          
08796  7940  33 33 33              BYTE $33,$33,$33,$66,$66,$66,$CC,$CC
08797  7948  CC 99 99              BYTE $CC,$99,$99,$99,$33,$33,$33,$66
08798  7950  66 66 CC              BYTE $66,$66,$CC,$CC,$CC,$99,$99,$99
08799  7958  33 33 33              BYTE $33,$33,$33,$66,$66,$66,$CC,$CC
08800  7960  CC 99 99              BYTE $CC,$99,$99,$99,$33,$33,$33,$66
08801  7968  66 66 CC              BYTE $66,$66,$CC,$CC,$CC,$98,$99,$99
08802  7970  00 00 00              BYTE $00,$00,$00,$00,$00,$00,$00,$00
08803  7978  00 00 00              BYTE $00,$00,$00,$00,$00,$00,$00,$00
08804  7980  CC CC CC              BYTE $CC,$CC,$CC,$99,$99,$99,$33,$33
08805  7988  33 66 66              BYTE $33,$66,$66,$66,$CC,$CC,$CC,$99
08806  7990  99 99 33              BYTE $99,$99,$33,$33,$33,$66,$66,$66
08807  7998  CC CC CC              BYTE $CC,$CC,$CC,$99,$99,$99,$33,$33
08808  79A0  33 66 66              BYTE $33,$66,$66,$66,$CC,$CC,$CC,$99
08809  79A8  99 99 33              BYTE $99,$99,$33,$33,$33,$66,$66,$66
08810  79B0  00 00 00              BYTE $00,$00,$00,$00,$00,$00,$00,$00
08811  79B8  00 00 00              BYTE $00,$00,$00,$00,$00,$00,$00,$00
08812  79C0             
08813  79C0             @          
08814  79C0             @          
08815  79C0  0B F8 00              BYTE $0B,$F8,$00,$05,$F8,$00,$0A,$F8
08816  79C8  00 05 D0              BYTE $00,$05,$D0,$00,$02,$F0,$00,$05
08817  79D0  D0 00 02              BYTE $D0,$00,$02,$A0,$00,$01,$60,$00
08818  79D8  02 A0 00              BYTE $02,$A0,$00,$01,$E0,$00,$00,$C0
08819  79E0  00 01 40              BYTE $00,$01,$40,$00,$00,$80,$00,$00
08820  79E8  80 00 00              BYTE $80,$00,$00,$80,$00,$00,$00,$00
08821  79F0  00 00 00              BYTE $00,$00,$00,$00,$00,$00,$00,$00
08822  79F8  00 00 00              BYTE $00,$00,$00,$00,$00,$00,$00,$00
08823  7A00  01 00 00              BYTE $01,$00,$00,$00,$00,$00,$04,$04
08824  7A08  00 40 40              BYTE $00,$40,$40,$00,$00,$00,$00,$29
08825  7A10  B0 00 04              BYTE $B0,$00,$04,$D0,$00,$0C,$A0,$00
08826  7A18  17 E0 00              BYTE $17,$E0,$00,$0B,$A4,$00,$87,$00
08827  7A20  00 CB C0              BYTE $00,$CB,$C0,$00,$05,$40,$00,$02
08828  7A28  80 00 07              BYTE $80,$00,$07,$00,$00,$03,$80,$00
08829  7A30  00 00 00              BYTE $00,$00,$00,$00,$00,$00,$00,$00
08830  7A38  00 00 00              BYTE $00,$00,$00,$00,$00,$00,$00,$00
08831  7A40  00 00 00              BYTE $00,$00,$00,$20,$80,$00,$04,$20
08832  7A48  00 00 00              BYTE $00,$00,$00,$00,$02,$04,$00,$00
08833  7A50  00 00 99              BYTE $00,$00,$99,$94,$00,$1D,$B4,$00
08834  7A58  09 10 00              BYTE $09,$10,$00,$0B,$50,$00,$00,$50
08835  7A60  00 16 14              BYTE $00,$16,$14,$00,$00,$00,$00,$03
08836  7A68  A0 00 00              BYTE $A0,$00,$00,$00,$00,$1E,$03,$00
08837  7A70  00 00 00              BYTE $00,$00,$00,$00,$00,$00,$00,$00
08838  7A78  00 00 00              BYTE $00,$00,$00,$00,$00,$00,$00,$00
08839  7A80  00 00 00              BYTE $00,$00,$00,$00,$00,$00,$00,$00
08840  7A88  00 00 00              BYTE $00,$00,$00,$00,$00,$00,$00,$01
08841  7A90  04 00 80              BYTE $04,$00,$80,$00,$00,$04,$10,$00
08842  7A98  00 00 00              BYTE $00,$00,$00,$51,$A4,$00,$14,$B4
08843  7AA0  00 04 90              BYTE $00,$04,$90,$00,$40,$00,$00,$04
08844  7AA8  94 00 10              BYTE $94,$00,$10,$04,$00,$02,$B2,$00
08845  7AB0  00 00 00              BYTE $00,$00,$00,$00,$00,$00,$00,$00
08846  7AB8  00 00 00              BYTE $00,$00,$00,$00,$00,$00,$00,$00
08847  7AC0  00 00 00              BYTE $00,$00,$00,$00,$00,$00,$00,$00
08848  7AC8  00 00 00              BYTE $00,$00,$00,$00,$00,$00,$00,$00
08849  7AD0  00 00 00              BYTE $00,$00,$00,$00,$00,$00,$00,$00
08850  7AD8  00 00 00              BYTE $00,$00,$00,$00,$00,$00,$04,$40
08851  7AE0  00 00 00              BYTE $00,$00,$00,$00,$A0,$18,$00,$26
08852  7AE8  C0 00 00              BYTE $C0,$00,$00,$84,$00,$8B,$B0,$00
08853  7AF0  00 00 00              BYTE $00,$00,$00,$00,$00,$00,$00,$00
08854  7AF8  00 00 00              BYTE $00,$00,$00,$00,$00,$00,$00,$00
08855  7B00             
08856  7B00             @          
08857  7B00             @          
08858  7B00  00 00 00              BYTE $00,$00,$00,$00,$20,$00,$4C,$40
08859  7B08  00 2A 00              BYTE $00,$2A,$00,$00,$07,$50,$00,$00
08860  7B10  A8 00 15              BYTE $A8,$00,$15,$10,$00,$1C,$B0,$00
08861  7B18  2F 70 00              BYTE $2F,$70,$00,$5F,$F0,$00,$3F,$F8
08862  7B20  00 5D 78              BYTE $00,$5D,$78,$00,$2E,$F0,$00,$5F
08863  7B28  FA 00 AF              BYTE $FA,$00,$AF,$BD,$00,$55,$FF,$00
08864  7B30  00 00 00              BYTE $00,$00,$00,$00,$00,$00,$00,$00
08865  7B38  00 00 00              BYTE $00,$00,$00,$00,$00,$00,$00,$00
08866  7B40  00 0C 00              BYTE $00,$0C,$00,$00,$10,$00,$48,$80
08867  7B48  00 95 58              BYTE $00,$95,$58,$00,$82,$E4,$00,$01
08868  7B50  80 00 15              BYTE $80,$00,$15,$10,$00,$1C,$B0,$00
08869  7B58  2F 70 00              BYTE $2F,$70,$00,$5F,$F0,$00,$3F,$F8
08870  7B60  00 5F 78              BYTE $00,$5F,$78,$00,$2E,$B0,$00,$5F
08871  7B68  7A 00 AF              BYTE $7A,$00,$AF,$BD,$00,$55,$FF,$00
08872  7B70  00 00 00              BYTE $00,$00,$00,$00,$00,$00,$00,$00
08873  7B78  00 00 00              BYTE $00,$00,$00,$00,$00,$00,$00,$00
08874  7B80  01 00 00              BYTE $01,$00,$00,$00,$04,$00,$01,$82
08875  7B88  00 05 02              BYTE $00,$05,$02,$00,$2A,$C0,$00,$C1
08876  7B90  A0 00 95              BYTE $A0,$00,$95,$10,$00,$1C,$B0,$00
08877  7B98  2F 70 00              BYTE $2F,$70,$00,$5F,$F0,$00,$3F,$F8
08878  7BA0  00 5F 78              BYTE $00,$5F,$78,$00,$2E,$B0,$00,$5F
08879  7BA8  7A 00 AF              BYTE $7A,$00,$AF,$BD,$00,$55,$FF,$00
08880  7BB0  00 00 00              BYTE $00,$00,$00,$00,$00,$00,$00,$00
08881  7BB8  00 00 00              BYTE $00,$00,$00,$00,$00,$00,$00,$00
08882  7BC0  00 00 00              BYTE $00,$00,$00,$05,$40,$00,$00,$80
08883  7BC8  00 01 00              BYTE $00,$01,$00,$00,$04,$80,$00,$0B
08884  7BD0  A1 00 55              BYTE $A1,$00,$55,$11,$00,$1C,$B0,$00
08885  7BD8  2F 70 00              BYTE $2F,$70,$00,$5F,$F0,$00,$3F,$F8
08886  7BE0  00 5F 78              BYTE $00,$5F,$78,$00,$2E,$B0,$00,$5F
08887  7BE8  7A 00 AF              BYTE $7A,$00,$AF,$BD,$00,$55,$FF,$00
08888  7BF0  00 00 00              BYTE $00,$00,$00,$00,$00,$00,$00,$00
08889  7BF8  00 00 00              BYTE $00,$00,$00,$00,$00,$00,$00,$00
08890  7C00  00 00 00              BYTE $00,$00,$00,$05,$00,$00,$00,$00
08891  7C08  00 05 28              BYTE $00,$05,$28,$00,$0E,$D4,$00,$1B
08892  7C10  A2 00 65              BYTE $A2,$00,$65,$14,$00,$5C,$B0,$00
08893  7C18  2F 70 00              BYTE $2F,$70,$00,$5F,$F3,$00,$3F,$F9
08894  7C20  00 5F F8              BYTE $00,$5F,$F8,$00,$2E,$B0,$00,$5F
08895  7C28  7A 00 AF              BYTE $7A,$00,$AF,$BD,$00,$55,$FF,$00
08896  7C30  00 00 00              BYTE $00,$00,$00,$00,$00,$00,$00,$00
08897  7C38  00 00 00              BYTE $00,$00,$00,$00,$00,$00,$00,$00
08898  7C40             
08899  7C40             @          
08900  7C40             ADDR_SPRITE_KEY_7 
08901  7C40             @          
08902  7C40  00 00 00              BYTE $00,$00,$00,$01,$80,$00,$02,$40
08903  7C48  00 02 40              BYTE $00,$02,$40,$00,$02,$40,$00,$01
08904  7C50  80 00 1F              BYTE $80,$00,$1F,$F8,$00,$01,$80,$00
08905  7C58  01 80 00              BYTE $01,$80,$00,$61,$80,$00,$7F,$FC
08906  7C60  00 01 82              BYTE $00,$01,$82,$00,$01,$82,$00,$7F
08907  7C68  FC 00 61              BYTE $FC,$00,$61,$80,$00,$00,$00,$40
08908  7C70  00 00 00              BYTE $00,$00,$00,$00,$00,$00,$00,$00
08909  7C78  00 00 00              BYTE $00,$00,$00,$00,$00,$00,$00,$00
08910  7C80             
08911  7C80             @          
08912  7C80             @          
08913  7C80  00 00 66              BYTE $00,$00,$66,$01,$80,$CC,$02,$40
08914  7C88  99 02 40              BYTE $99,$02,$40,$33,$02,$40,$66,$01
08915  7C90  80 CC 1F              BYTE $80,$CC,$1F,$F8,$99,$01,$80,$33
08916  7C98  01 80 66              BYTE $01,$80,$66,$61,$80,$CC,$7F,$FC
08917  7CA0  99 01 82              BYTE $99,$01,$82,$33,$01,$82,$66,$7F
08918  7CA8  FC CC 61              BYTE $FC,$CC,$61,$80,$99,$00,$00,$33
08919  7CB0  00 00 00              BYTE $00,$00,$00,$00,$00,$00,$00,$00
08920  7CB8  00 00 00              BYTE $00,$00,$00,$00,$00,$00,$00,$00
08921  7CC0  00 00 99              BYTE $00,$00,$99,$01,$80,$33,$02,$40
08922  7CC8  66 02 40              BYTE $66,$02,$40,$CC,$02,$40,$99,$01
08923  7CD0  80 33 1F              BYTE $80,$33,$1F,$F8,$66,$01,$80,$CC
08924  7CD8  01 80 99              BYTE $01,$80,$99,$61,$80,$33,$7F,$FC
08925  7CE0  66 01 82              BYTE $66,$01,$82,$CC,$01,$82,$99,$7F
08926  7CE8  FC 33 61              BYTE $FC,$33,$61,$80,$66,$00,$00,$CC
08927  7CF0  00 00 00              BYTE $00,$00,$00,$00,$00,$00,$00,$00
08928  7CF8  00 00 00              BYTE $00,$00,$00,$00,$00,$00,$00,$00
08929  7D00             
08930  7D00             @          
08931  7D00             ADDR_SPRITE_KEY_8 
08932  7D00             @          
08933  7D00  00 00 00              BYTE $00,$00,$00,$00,$04,$00,$00,$0C
08934  7D08  00 00 14              BYTE $00,$00,$14,$00,$00,$24,$00,$00
08935  7D10  44 00 70              BYTE $44,$00,$70,$84,$00,$71,$FC,$00
08936  7D18  18 00 00              BYTE $18,$00,$00,$18,$00,$00,$1F,$80
08937  7D20  00 07 E0              BYTE $00,$07,$E0,$00,$00,$72,$00,$00
08938  7D28  3E 00 00              BYTE $3E,$00,$00,$1C,$00,$00,$00,$40
08939  7D30  00 00 00              BYTE $00,$00,$00,$00,$00,$00,$00,$00
08940  7D38  00 00 00              BYTE $00,$00,$00,$00,$00,$00,$00,$00
08941  7D40             
08942  7D40             @          
08943  7D40             @          
08944  7D40  10 10 00              BYTE $10,$10,$00,$1C,$E0,$00,$0F,$E0
08945  7D48  00 03 C0              BYTE $00,$03,$C0,$00,$07,$F0,$00,$C7
08946  7D50  D8 00 7F              BYTE $D8,$00,$7F,$E8,$00,$7F,$DC,$00
08947  7D58  1F F4 00              BYTE $1F,$F4,$00,$1F,$FC,$00,$0E,$E8
08948  7D60  00 05 58              BYTE $00,$05,$58,$00,$06,$F0,$00,$03
08949  7D68  60 00 01              BYTE $60,$00,$01,$40,$00,$00,$00,$00
08950  7D70  00 00 00              BYTE $00,$00,$00,$00,$00,$00,$00,$00
08951  7D78  00 00 00              BYTE $00,$00,$00,$00,$00,$00,$00,$00
08952  7D80  08 20 00              BYTE $08,$20,$00,$0E,$E0,$00,$07,$C0
08953  7D88  00 03 C0              BYTE $00,$03,$C0,$00,$03,$F0,$00,$87
08954  7D90  D8 00 FF              BYTE $D8,$00,$FF,$EC,$00,$7F,$D4,$00
08955  7D98  3F EA 00              BYTE $3F,$EA,$00,$0F,$FE,$00,$06,$DC
08956  7DA0  00 0C 5C              BYTE $00,$0C,$5C,$00,$0E,$F8,$00,$08
08957  7DA8  30 00 08              BYTE $30,$00,$08,$60,$00,$00,$00,$00
08958  7DB0  00 00 00              BYTE $00,$00,$00,$00,$00,$00,$00,$00
08959  7DB8  00 00 00              BYTE $00,$00,$00,$00,$00,$00,$00,$00
08960  7DC0  18 0C 00              BYTE $18,$0C,$00,$0F,$F8,$00,$03,$F0
08961  7DC8  00 01 E0              BYTE $00,$01,$E0,$00,$03,$E8,$00,$07
08962  7DD0  F4 00 0F              BYTE $F4,$00,$0F,$FA,$00,$7F,$F4,$00
08963  7DD8  3F FB 00              BYTE $3F,$FB,$00,$1F,$FD,$00,$07,$77
08964  7DE0  00 0E 36              BYTE $00,$0E,$36,$00,$0C,$7E,$00,$1E
08965  7DE8  0C 00 10              BYTE $0C,$00,$10,$1C,$00,$00,$00,$00
08966  7DF0  00 00 00              BYTE $00,$00,$00,$00,$00,$00,$00,$00
08967  7DF8  00 00 00              BYTE $00,$00,$00,$00,$00,$00,$00,$00
08968  7E00  08 20 00              BYTE $08,$20,$00,$0E,$E0,$00,$07,$C0
08969  7E08  00 03 C0              BYTE $00,$03,$C0,$00,$03,$F0,$00,$87
08970  7E10  D8 00 FF              BYTE $D8,$00,$FF,$EC,$00,$7F,$D4,$00
08971  7E18  3F EA 00              BYTE $3F,$EA,$00,$0F,$FE,$00,$06,$DC
08972  7E20  00 0C 5C              BYTE $00,$0C,$5C,$00,$0E,$F8,$00,$08
08973  7E28  30 00 08              BYTE $30,$00,$08,$60,$00,$00,$00,$00
08974  7E30  00 00 00              BYTE $00,$00,$00,$00,$00,$00,$00,$00
08975  7E38  00 00 00              BYTE $00,$00,$00,$00,$00,$00,$00,$00
08976  7E40             
08977  7E40             @          
08978  7E40             @          
08979  7E40  00 00 00              BYTE $00,$00,$00,$01,$40,$00,$03,$60
08980  7E48  00 06 F0              BYTE $00,$06,$F0,$00,$05,$58,$00,$0E
08981  7E50  E8 00 1F              BYTE $E8,$00,$1F,$FC,$00,$1F,$F4,$00
08982  7E58  7F DC 00              BYTE $7F,$DC,$00,$7F,$E8,$00,$C7,$D8
08983  7E60  00 07 F0              BYTE $00,$07,$F0,$00,$03,$C0,$00,$0F
08984  7E68  E0 00 1C              BYTE $E0,$00,$1C,$E0,$00,$10,$10,$00
08985  7E70  00 00 00              BYTE $00,$00,$00,$00,$00,$00,$00,$00
08986  7E78  00 00 00              BYTE $00,$00,$00,$00,$00,$00,$00,$00
08987  7E80  00 00 00              BYTE $00,$00,$00,$08,$60,$00,$08,$30
08988  7E88  00 0E F8              BYTE $00,$0E,$F8,$00,$0C,$5C,$00,$06
08989  7E90  DC 00 0F              BYTE $DC,$00,$0F,$FE,$00,$3F,$EA,$00
08990  7E98  7F D4 00              BYTE $7F,$D4,$00,$FF,$EC,$00,$87,$D8
08991  7EA0  00 03 F0              BYTE $00,$03,$F0,$00,$03,$C0,$00,$07
08992  7EA8  C0 00 0E              BYTE $C0,$00,$0E,$E0,$00,$08,$20,$00
08993  7EB0  00 00 00              BYTE $00,$00,$00,$00,$00,$00,$00,$00
08994  7EB8  00 00 00              BYTE $00,$00,$00,$00,$00,$00,$00,$00
08995  7EC0  00 00 00              BYTE $00,$00,$00,$10,$1C,$00,$1E,$0C
08996  7EC8  00 0C 7E              BYTE $00,$0C,$7E,$00,$0E,$36,$00,$07
08997  7ED0  77 00 1F              BYTE $77,$00,$1F,$FD,$00,$3F,$FB,$00
08998  7ED8  7F F4 00              BYTE $7F,$F4,$00,$0F,$FA,$00,$07,$F4
08999  7EE0  00 03 E8              BYTE $00,$03,$E8,$00,$01,$E0,$00,$03
09000  7EE8  F0 00 0F              BYTE $F0,$00,$0F,$F8,$00,$18,$0C,$00
09001  7EF0  00 00 00              BYTE $00,$00,$00,$00,$00,$00,$00,$00
09002  7EF8  00 00 00              BYTE $00,$00,$00,$00,$00,$00,$00,$00
09003  7F00  00 00 00              BYTE $00,$00,$00,$08,$60,$00,$08,$30
09004  7F08  00 0E F8              BYTE $00,$0E,$F8,$00,$0C,$5C,$00,$06
09005  7F10  DC 00 0F              BYTE $DC,$00,$0F,$FE,$00,$3F,$EA,$00
09006  7F18  7F D4 00              BYTE $7F,$D4,$00,$FF,$EC,$00,$87,$D8
09007  7F20  00 03 F0              BYTE $00,$03,$F0,$00,$03,$C0,$00,$07
09008  7F28  C0 00 0E              BYTE $C0,$00,$0E,$E0,$00,$08,$20,$00
09009  7F30  00 00 00              BYTE $00,$00,$00,$00,$00,$00,$00,$00
09010  7F38  00 00 00              BYTE $00,$00,$00,$00,$00,$00,$00,$00
09011  7F40             
09012  7F40             @          
09013  7F40             @          
09014  7F40  00 00 00              BYTE $00,$00,$00,$00,$00,$00,$54,$00
09015  7F48  00 2F FF              BYTE $00,$2F,$FF,$00,$54,$00,$00,$00
09016  7F50  00 00 00              BYTE $00,$00,$00,$00,$00,$00,$00,$00
09017  7F58  00 00 00              BYTE $00,$00,$00,$00,$00,$00,$00,$00
09018  7F60  00 00 00              BYTE $00,$00,$00,$00,$00,$00,$00,$00
09019  7F68  00 00 00              BYTE $00,$00,$00,$00,$00,$00,$00,$00
09020  7F70  00 00 00              BYTE $00,$00,$00,$00,$00,$00,$00,$00
09021  7F78  00 00 00              BYTE $00,$00,$00,$00,$00,$00,$00,$00
09022  7F80             
09023  7F80             @          
09024  7F80             @          
09025  7F80  00 00 66              BYTE $00,$00,$66,$00,$04,$CC,$00,$0C
09026  7F88  99 00 14              BYTE $99,$00,$14,$33,$00,$24,$66,$00
09027  7F90  44 CC 70              BYTE $44,$CC,$70,$84,$99,$71,$FC,$33
09028  7F98  18 00 66              BYTE $18,$00,$66,$18,$00,$CC,$1F,$80
09029  7FA0  99 07 E0              BYTE $99,$07,$E0,$33,$00,$72,$66,$00
09030  7FA8  3E CC 00              BYTE $3E,$CC,$00,$1C,$99,$00,$00,$33
09031  7FB0  66 66 66              BYTE $66,$66,$66,$CC,$CC,$CC,$99,$99
09032  7FB8  99 33 33              BYTE $99,$33,$33,$33,$66,$66,$66,$00
09033  7FC0  00 00 99              BYTE $00,$00,$99,$00,$04,$33,$00,$0C
09034  7FC8  66 00 14              BYTE $66,$00,$14,$CC,$00,$24,$99,$00
09035  7FD0  44 33 70              BYTE $44,$33,$70,$84,$66,$71,$FC,$CC
09036  7FD8  18 00 99              BYTE $18,$00,$99,$18,$00,$33,$1F,$80
09037  7FE0  66 07 E0              BYTE $66,$07,$E0,$CC,$00,$72,$99,$00
09038  7FE8  3E 33 00              BYTE $3E,$33,$00,$1C,$66,$00,$00,$CC
09039  7FF0  99 99 99              BYTE $99,$99,$99,$33,$33,$33,$66,$66
09040  7FF8  66 CC CC              BYTE $66,$CC,$CC,$CC,$99,$99,$99,$00
09041  8000             
09042  8000             @          
09043  8000             ADDR_SPRITE_KEY_9 
09044  8000             @          
09045  8000  00 0F F0              BYTE $00,$0F,$F0,$00,$11,$80,$00,$21
09046  8008  80 00 41              BYTE $80,$00,$41,$80,$00,$43,$C0,$00
09047  8010  43 C0 00              BYTE $43,$C0,$00,$47,$E0,$00,$27,$A0
09048  8018  00 27 60              BYTE $00,$27,$60,$00,$16,$E0,$00,$0D
09049  8020  E0 00 07              BYTE $E0,$00,$07,$E0,$00,$03,$C0,$00
09050  8028  03 C0 00              BYTE $03,$C0,$00,$01,$80,$04,$00,$00
09051  8030  00 00 00              BYTE $00,$00,$00,$00,$00,$00,$00,$00
09052  8038  00 00 00              BYTE $00,$00,$00,$00,$00,$00,$00,$00
09053  8040             
09054  8040             @          
09055  8040             @          
09056  8040  0F F0 66              BYTE $0F,$F0,$66,$11,$80,$CC,$21,$80
09057  8048  99 41 80              BYTE $99,$41,$80,$33,$43,$C0,$66,$43
09058  8050  C0 CC 47              BYTE $C0,$CC,$47,$E0,$99,$27,$A0,$33
09059  8058  27 60 66              BYTE $27,$60,$66,$16,$E0,$CC,$0D,$E0
09060  8060  99 07 E0              BYTE $99,$07,$E0,$33,$03,$C0,$66,$03
09061  8068  C0 CC 01              BYTE $C0,$CC,$01,$80,$99,$00,$00,$33
09062  8070  66 66 66              BYTE $66,$66,$66,$CC,$CC,$CC,$99,$99
09063  8078  99 33 33              BYTE $99,$33,$33,$33,$66,$66,$66,$00
09064  8080  0F F0 99              BYTE $0F,$F0,$99,$11,$80,$33,$21,$80
09065  8088  66 41 80              BYTE $66,$41,$80,$CC,$43,$C0,$99,$43
09066  8090  C0 33 47              BYTE $C0,$33,$47,$E0,$66,$27,$A0,$CC
09067  8098  27 60 99              BYTE $27,$60,$99,$16,$E0,$33,$0D,$E0
09068  80A0  66 07 E0              BYTE $66,$07,$E0,$CC,$03,$C0,$99,$03
09069  80A8  C0 33 01              BYTE $C0,$33,$01,$80,$66,$00,$00,$CC
09070  80B0  99 99 99              BYTE $99,$99,$99,$33,$33,$33,$66,$66
09071  80B8  66 CC CC              BYTE $66,$CC,$CC,$CC,$99,$99,$99,$00
09072  80C0             
09073  80C0             @          
09074  80C0             ADDR_SPRITE_KEY_10 
09075  80C0             @          
09076  80C0  00 00 00              BYTE $00,$00,$00,$00,$7F,$FC,$00,$7F
09077  80C8  FC 00 21              BYTE $FC,$00,$21,$10,$00,$00,$00,$00
09078  80D0  11 10 00              BYTE $11,$10,$00,$2A,$A8,$00,$44,$44
09079  80D8  00 00 00              BYTE $00,$00,$00,$00,$00,$00,$00,$7F
09080  80E0  FE 00 7F              BYTE $FE,$00,$7F,$FE,$00,$3F,$FC,$00
09081  80E8  1F F8 00              BYTE $1F,$F8,$00,$07,$E0,$00,$00,$00
09082  80F0  00 02 80              BYTE $00,$02,$80,$00,$00,$00,$00,$00
09083  80F8  00 00 00              BYTE $00,$00,$00,$00,$00,$00,$00,$00
09084  8100             
09085  8100             @          
09086  8100             @          
09087  8100  00 00 00              BYTE $00,$00,$00,$7F,$FC,$00,$7F,$FC
09088  8108  00 21 10              BYTE $00,$21,$10,$00,$00,$00,$00,$11
09089  8110  10 00 2A              BYTE $10,$00,$2A,$A8,$00,$44,$44,$00
09090  8118  00 00 00              BYTE $00,$00,$00,$00,$00,$00,$7F,$FE
09091  8120  00 7F FE              BYTE $00,$7F,$FE,$00,$3F,$FC,$00,$0F
09092  8128  F0 00 00              BYTE $F0,$00,$00,$00,$00,$00,$00,$00
09093  8130  66 66 00              BYTE $66,$66,$00,$CC,$CC,$00,$99,$99
09094  8138  00 33 33              BYTE $00,$33,$33,$00,$66,$66,$00,$00
09095  8140  00 00 00              BYTE $00,$00,$00,$7F,$FC,$00,$7F,$FC
09096  8148  00 21 10              BYTE $00,$21,$10,$00,$00,$00,$00,$11
09097  8150  10 00 2A              BYTE $10,$00,$2A,$A8,$00,$44,$44,$00
09098  8158  00 00 00              BYTE $00,$00,$00,$00,$00,$00,$7F,$FE
09099  8160  00 7F FE              BYTE $00,$7F,$FE,$00,$3F,$FC,$00,$0F
09100  8168  F0 00 00              BYTE $F0,$00,$00,$00,$00,$00,$00,$00
09101  8170  99 99 00              BYTE $99,$99,$00,$33,$33,$00,$66,$66
09102  8178  00 CC CC              BYTE $00,$CC,$CC,$00,$99,$99,$00,$00
09103  8180             
09104  8180             @          
09105  8180             @          
09106  8180  00 00 00              BYTE $00,$00,$00,$00,$00,$00,$00,$00
09107  8188  00 00 00              BYTE $00,$00,$00,$00,$00,$00,$00,$00
09108  8190  00 00 00              BYTE $00,$00,$00,$00,$00,$01,$80,$00
09109  8198  03 C0 00              BYTE $03,$C0,$00,$06,$60,$00,$0C,$30
09110  81A0  00 18 18              BYTE $00,$18,$18,$00,$30,$0C,$00,$60
09111  81A8  06 00 C0              BYTE $06,$00,$C0,$03,$00,$FF,$FF,$00
09112  81B0  00 00 00              BYTE $00,$00,$00,$00,$00,$00,$00,$00
09113  81B8  00 00 00              BYTE $00,$00,$00,$00,$00,$00,$00,$00
09114  81C0             
09115  81C0             @          
09116  81C0             
09117  81C0             ;*=$8000
09118  81C0             
09119  81C0             ; SCREEN 1 - SCREEN 0 SCREEN DATA
09120  81C0             SCREEN_0_SCREEN_DATA 
09121  81C0  00 05 01              BYTE    $00,$05,$01,$02,$15,$20,$13,$09,$0D,$02,$05,$0C,$20,$10,$12,$0F,$06,$01,$0E,$01,$14,$09,$0F,$0E,$00,$05
09122  81DA  00 0C 16              BYTE    $00,$0C,$16,$0B,$20,$30,$0B,$30,$36,$00,$0D
09123  81E5  00 20                 BYTE    $00,$20
09124  81E7  00 20                 BYTE    $00,$20
09125  81E9  00 20                 BYTE    $00,$20
09126  81EB  00 08 31              BYTE    $00,$08,$31,$FD,$0A,$15,$07,$01,$12,$00,$11
09127  81F6  00 20                 BYTE    $00,$20
09128  81F8  00 08 32              BYTE    $00,$08,$32,$FD,$09,$0E,$13,$14,$12,$15,$03,$03,$09,$0F,$0E,$05,$13,$00,$09
09129  820B  00 20                 BYTE    $00,$20
09130  820D  00 20                 BYTE    $00,$20
09131  820F  00 20                 BYTE    $00,$20
09132  8211  00 08 15              BYTE    $00,$08,$15,$05,$12,$13,$09,$0F,$0E,$20,$0F,$12,$09,$07,$09,$0E,$01,$0C,$00,$08
09133  8225  00 0A 15              BYTE    $00,$0A,$15,$09,$03,$14,$0F,$12,$20,$12,$15,$09,$1A,$00,$0B
09134  8234  00 20                 BYTE    $00,$20
09135  8236  00 04 03              BYTE    $00,$04,$03,$0F,$0E,$16,$05,$12,$13,$09,$0F,$0E,$20,$01,$20,$03,$0F,$0D,$0D,$0F,$04,$0F,$12,$05,$20,$36,$34,$00,$03
09136  8253  00 07 06              BYTE    $00,$07,$06,$0B,$0A,$0B,$07,$0B,$03,$0B,$20,$05,$11,$15,$09,$0E,$0F,$18,$05,$00,$08
09137  8268  FF                    BYTE    $FF
09138  8269             
09139  8269             ; SCREEN 1 - SCREEN 0 COLOUR DATA
09140  8269             SCREEN_0_COLOUR_DATA 
09141  8269  30 0A 21              BYTE    $30,$0A,$21,$03,$51,$03,$A1,$13,$20
09142  8272  30 01 1A              BYTE    $30,$01,$1A,$F3,$53,$20
09143  8278  F0 F0                 BYTE    $F0,$F0
09144  827A  F0 F0                 BYTE    $F0,$F0
09145  827C  F0 F0                 BYTE    $F0,$F0
09146  827E  40 23 67              BYTE    $40,$23,$67,$10,$07,$23,$00,$23,$60
09147  8287  50 03 00              BYTE    $50,$03,$00,$A3,$12,$00,$03,$80
09148  828F  30 0A 03              BYTE    $30,$0A,$03,$02,$03,$E7,$80
09149  8296  F0 F0                 BYTE    $F0,$F0
09150  8298  F0 F0                 BYTE    $F0,$F0
09151  829A  F0 F0                 BYTE    $F0,$F0
09152  829C  30 A5 00              BYTE    $30,$A5,$00,$75,$23,$40
09153  82A2  30 55 51              BYTE    $30,$55,$51,$05,$31,$35,$13,$40
09154  82AA  F0 F0                 BYTE    $F0,$F0
09155  82AC  30 F5 55              BYTE    $30,$F5,$55,$00,$15,$20
09156  82B2  30 05 00              BYTE    $30,$05,$00,$05,$71,$05,$71,$30,$03,$20
09157  82BC  FF                    BYTE    $FF
09158  82BD             
09159  82BD             SCREEN_0_INFO_DATA 
09160  82BD  00 00 00              BYTE    0,0,0,0  ;SALIDAS DE LA PANTALLA (IZQUIERDA, DERECHA, ARRIBA, ABAJO)
09161  82C1  00                    BYTE    0
09162  82C2             
09163  82C2             ; SCREEN 15 - INSTRUCCIONES SCREEN DATA
09164  82C2             INSTRUCCIONES_SCREEN_DATA 
09165  82C2  04 05 13              BYTE    $04,$05,$13,$03,$16,$02,$12,$05,$20,$05,$0C,$20,$13,$05,$03,$12,$05,$14,$0F,$20,$04,$05,$20,$01,$02,$15,$20,$13,$09,$0D,$02,$05,$0C,$20,$10,$01,$12,$01
09166  82E8  00                    BYTE    $00
09167  82E9  20 0C 09              BYTE    $20,$0C,$09,$02,$05,$12,$01,$12,$20,$01,$20,$0A,$0F,$08,$0E,$19,$20,$0A,$0F,$0E,$05,$13,$20,$04,$05,$0C,$20,$0D,$01,$0C,$05,$06,$09,$03,$09,$0F,$0B,$20
09168  830F  00                    BYTE    $00
09169  8310  19 20 12              BYTE    $19,$20,$12,$05,$03,$16,$05,$12,$04,$01,$20,$0C,$01,$13,$20,$04,$0F,$13,$20,$0C,$05,$19,$05,$0E,$04,$01,$13,$20,$11,$15,$05,$20,$13,$0F,$02,$12,$05,$20
09170  8336  00                    BYTE    $00
09171  8337  20 20 20              BYTE    $20,$20,$20,$05,$0C,$20,$14,$05,$0D,$10,$0C,$0F,$20,$04,$05,$20,$01,$02,$15,$20,$13,$09,$0D,$02,$05,$0C,$20,$04,$05,$0A,$01,$12,$0F,$0E,$20,$20,$20,$20
09172  835D  00                    BYTE    $00
09173  835E  20 20 20              BYTE    $20,$20,$20,$20,$20,$20,$20,$20,$0C,$0F,$13,$20,$01,$0E,$14,$09,$07,$15,$0F,$13,$20,$0C,$09,$02,$12,$0F,$13,$0B,$0B,$0B,$20,$20,$20,$20,$20,$20,$20,$20
09174  8384  00                    BYTE    $00
09175  8385  17 0B 0B              BYTE    $17,$0B,$0B,$0B,$05,$13,$10,$05,$12,$01,$20,$03,$01,$0C,$03,$15,$0C,$01,$20,$19,$20,$10,$09,$05,$0E,$13,$01,$20,$20,$20,$20,$20,$20,$20,$20,$20,$20,$20
09176  83AB  00                    BYTE    $00
09177  83AC  20 20 20              BYTE    $20,$20,$20,$20,$20,$20,$20,$20,$20,$20,$20,$20,$20,$20,$01,$0E,$14,$05,$13,$20,$04,$05,$20,$01,$03,$14,$15,$01,$12,$0B,$0B,$0B,$17,$20,$20,$20,$20,$20
09178  83D2  00                    BYTE    $00
09179  83D3  17 0B 0B              BYTE    $17,$0B,$0B,$0B,$05,$0C,$20,$04,$09,$01,$0D,$01,$0E,$14,$05,$20,$14,$05,$20,$0D,$0F,$13,$14,$12,$01,$12,$01,$20,$05,$0C,$20,$03,$01,$0D,$09,$0E,$0F,$17
09180  83F9  FF                    BYTE    $FF
09181  83FA             
09182  83FA             ;INSTRUCCIONES_2_SCREEN_DATA
09183  83FA             ;        BYTE    $00
09184  83FA             ;        BYTE    $00
09185  83FA             ;        BYTE    $20,$20,$20,$20,$20,$20,$20,$10,$12,$0F,$07,$12,$01,$0D,$01,$03,$09,$0F,$0E,$20,$19,$20,$07,$12,$01,$06,$09,$03,$0F,$13,$20,$20,$20,$20,$20,$20,$20,$20
09186  83FA             ;        BYTE    $20,$20,$20,$20,$20,$06,$03,$0F,$0B,$20,$0A,$01,$16,$09,$05,$12,$20,$07,$0F,$0E,$1A,$01,$0C,$05,$1A,$20,$03,$01,$65,$05,$14,$05,$20,$20,$20,$20,$20,$20
09187  83FA             ;        BYTE    $00
09188  83FA             ;        BYTE    $00
09189  83FA             ;        BYTE    $20,$20,$20,$20,$20,$20,$20,$20,$20,$20,$20,$20,$20,$20,$20,$20,$0D,$15,$13,$09,$03,$01,$20,$20,$20,$20,$20,$20,$20,$20,$20,$20,$20,$20,$20,$20,$20,$20
09190  83FA             ;        BYTE    $20,$20,$20,$20,$20,$20,$20,$20,$03,$64,$15,$0C,$14,$15,$12,$20,$20,$19,$20,$20,$12,$0B,$20,$02,$01,$19,$0C,$09,$13,$13,$20,$20,$20,$20,$20,$20,$20,$20
09191  83FA             ;        BYTE    $00
09192  83FA             ;        BYTE    $20,$20,$20,$20,$20,$20,$20,$20,$20,$20,$20,$20,$20,$20,$20,$20,$20,$13,$06,$18,$20,$20,$20,$20,$20,$20,$20,$20,$20,$20,$20,$20,$20,$20,$20,$20,$20,$20
09193  83FA             ;        BYTE    $20,$20,$20,$20,$20,$20,$20,$20,$20,$20,$20,$20,$20,$20,$12,$0B,$20,$02,$01,$19,$0C,$09,$13,$13,$20,$20,$20,$20,$20,$20,$20,$20,$20,$20,$20,$20,$20,$20
09194  83FA             ;        BYTE    $00
09195  83FA             ;        BYTE    $00
09196  83FA             ;        BYTE    $20,$20,$20,$20,$20,$20,$20,$20,$20,$20,$20,$20,$20,$02,$05,$14,$01,$20,$14,$05,$13,$14,$05,$12,$13,$20,$20,$20,$20,$20,$20,$20,$20,$20,$20,$20,$20,$20
09197  83FA             ;        BYTE    $20,$20,$20,$03,$08,$05,$0D,$01,$0D,$13,$14,$12,$01,$04,$20,$20,$03,$64,$15,$0C,$14,$15,$12,$20,$20,$05,$0D,$10,$01,$12,$04,$0F,$10,$0F,$20,$20,$20,$20
09198  83FA             ;        BYTE    $20,$20,$20,$09,$0D,$13,$01,$19,$20,$20,$20,$20,$20,$20,$20,$20,$0D,$0F,$12,$07,$01,$0E,$20,$20,$20,$0E,$09,$03,$0F,$20,$07,$01,$0C,$09,$13,$20,$20,$20
09199  83FA             
09200  83FA             ;; SCREEN 15 - INSTRUCCIONES COLOUR DATA
09201  83FA             ;INSTRUCCIONES_COLOUR_DATA
09202  83FA             ;        BYTE    $05,$05,$05,$05,$05,$05,$05,$05,$05,$05,$05,$05,$05,$05,$05,$05,$05,$05,$05,$05,$05,$05,$05,$05,$05,$05,$05,$05,$05,$05,$05,$05,$05,$05,$05,$05,$05,$05,$05,$05
09203  83FA             ;        BYTE    $05,$05,$05,$05,$05,$05,$05,$05,$05,$05,$05,$05,$05,$05,$05,$05,$05,$05,$05,$05,$05,$05,$05,$05,$05,$05,$05,$05,$05,$05,$05,$05,$05,$05,$05,$05,$05,$05,$05,$05
09204  83FA             ;        BYTE    $05,$05,$05,$05,$05,$05,$05,$05,$05,$05,$05,$05,$05,$05,$05,$05,$05,$05,$05,$05,$05,$05,$05,$05,$05,$05,$05,$05,$05,$05,$05,$05,$05,$05,$05,$05,$05,$05,$05,$05
09205  83FA             ;        BYTE    $05,$05,$05,$05,$05,$05,$05,$05,$05,$05,$05,$05,$05,$05,$05,$05,$05,$05,$05,$05,$05,$05,$05,$05,$05,$05,$05,$05,$05,$05,$05,$05,$05,$05,$05,$05,$05,$05,$05,$05
09206  83FA             ;        BYTE    $05,$05,$05,$05,$05,$05,$05,$05,$05,$05,$05,$05,$05,$05,$05,$05,$05,$05,$05,$05,$05,$05,$05,$05,$05,$05,$05,$05,$05,$05,$05,$05,$05,$05,$05,$05,$05,$05,$05,$05
09207  83FA             ;        BYTE    $05,$05,$05,$05,$05,$05,$05,$05,$05,$05,$05,$05,$05,$05,$05,$05,$05,$05,$05,$05,$05,$05,$05,$05,$05,$05,$05,$05,$05,$05,$05,$05,$05,$05,$05,$05,$05,$05,$05,$05
09208  83FA             ;        BYTE    $05,$05,$05,$05,$05,$05,$05,$05,$05,$05,$05,$05,$05,$05,$05,$05,$05,$05,$05,$05,$05,$05,$05,$05,$05,$05,$05,$05,$05,$05,$05,$05,$05,$05,$05,$05,$05,$05,$05,$05
09209  83FA             ;        BYTE    $05,$05,$05,$05,$05,$05,$05,$05,$05,$05,$05,$05,$05,$05,$05,$05,$05,$05,$05,$05,$05,$05,$05,$05,$05,$05,$05,$05,$05,$05,$05,$05,$05,$05,$05,$05,$05,$05,$05,$05
09210  83FA             ;        BYTE    $05,$05,$05,$05,$05,$05,$05,$05,$05,$05,$05,$05,$05,$05,$05,$05,$05,$05,$05,$05,$05,$05,$05,$05,$05,$05,$05,$05,$05,$05,$05,$05,$05,$05,$05,$05,$05,$05,$05,$05
09211  83FA             ;        BYTE    $05,$05,$05,$05,$05,$05,$05,$05,$05,$05,$05,$05,$05,$05,$05,$05,$05,$05,$05,$05,$05,$05,$05,$05,$05,$05,$05,$05,$05,$05,$05,$05,$05,$05,$05,$05,$05,$05,$05,$05
09212  83FA             ;        BYTE    $05,$05,$05,$05,$05,$05,$05,$05,$05,$05,$05,$05,$05,$05,$05,$05,$05,$05,$05,$05,$05,$05,$05,$05,$05,$05,$05,$05,$05,$05,$05,$05,$05,$05,$05,$05,$05,$05,$05,$05
09213  83FA             ;        BYTE    $05,$05,$05,$05,$05,$05,$05,$05,$05,$05,$05,$05,$05,$05,$05,$05,$05,$05,$05,$05,$05,$05,$05,$05,$05,$05,$05,$05,$05,$05,$05,$05,$05,$05,$05,$05,$05,$05,$05,$05
09214  83FA             ;        BYTE    $05,$05,$05,$05,$05,$05,$05,$05,$05,$05,$05,$05,$05,$05,$05,$05,$05,$05,$05,$05,$05,$05,$05,$05,$05,$05,$05,$05,$05,$05,$05,$05,$05,$05,$05,$05,$05,$05,$05,$05
09215  83FA             ;        BYTE    $05,$05,$05,$05,$05,$05,$05,$05,$05,$05,$05,$05,$05,$05,$05,$05,$05,$05,$05,$05,$05,$05,$05,$05,$05,$05,$05,$05,$05,$05,$05,$05,$05,$05,$05,$05,$05,$05,$05,$05
09216  83FA             ;        BYTE    $05,$05,$05,$05,$05,$05,$05,$05,$05,$05,$05,$05,$05,$05,$05,$05,$05,$05,$05,$05,$05,$05,$05,$05,$05,$05,$05,$05,$05,$05,$05,$05,$05,$05,$05,$05,$05,$05,$05,$05
09217  83FA             ;        BYTE    $05,$05,$05,$05,$05,$05,$05,$05,$05,$05,$05,$05,$05,$05,$05,$05,$05,$05,$05,$05,$05,$05,$05,$05,$05,$05,$05,$05,$05,$05,$05,$05,$05,$05,$05,$05,$05,$05,$05,$05
09218  83FA             
09219  83FA             ; SCREEN 2 - SCORE SCREEN DATA
09220  83FA             SCORE_SCREEN_DATA 
09221  83FA                        ;BYTE    $20,$20,$20,$20,$20,$20,$20,$20,$20,$20,$20,$20,$20,$20,$20,$20,$20,$20,$20,$20,$20,$20,$20,$20,$20,$20,$20,$20,$20,$20,$20,$20,$20,$20,$20,$20,$20,$20,$20,$20
09222  83FA  20 20 20              BYTE    $20,$20,$20,$20,$20,$20,$10,$01,$0E,$14,$01,$0C,$0C,$01,$13,$20,$00,$20,$30,$31,$20,$20,$20,$16,$09,$04,$01,$13,$20,$00,$20,$31,$30,$20,$20,$20,$20,$20,$20,$20
09223  8422                        ;BYTE    $20,$20,$20,$20,$20,$20,$20,$20,$20,$20,$20,$20,$20,$20,$20,$20,$20,$20,$20,$20,$20,$20,$20,$20,$20,$20,$20,$20,$20,$20,$20,$20,$20,$20,$20,$20,$20,$20,$20,$20
09224  8422             ;        BYTE    $20,$20,$20,$20,$20,$20,$20,$20,$20,$20,$20,$20,$20,$20,$20,$64,$67,$6B,$6D,$6F,$71,$6B,$77,$79,$7C,$20,$20,$20,$20,$20,$20,$20,$20,$20,$20,$20,$20,$20,$20,$20
09225  8422             ;        BYTE    $20,$20,$20,$20,$20,$20,$20,$20,$20,$20,$20,$20,$20,$20,$20,$65,$69,$68,$68,$68,$68,$68,$68,$7A,$74,$20,$20,$20,$20,$20,$20,$20,$20,$20,$20,$20,$20,$20,$20,$20
09226  8422             ;        BYTE    $20,$20,$20,$20,$20,$20,$20,$20,$20,$20,$20,$20,$20,$20,$20,$65,$69,$68,$68,$68,$68,$68,$68,$7A,$74,$20,$20,$20,$20,$20,$20,$20,$20,$20,$20,$20,$20,$20,$20,$20
09227  8422             ;        BYTE    $20,$20,$20,$20,$20,$20,$20,$20,$20,$20,$20,$20,$20,$20,$20,$66,$6A,$6C,$6E,$70,$72,$6C,$78,$7B,$73,$20,$20,$20,$20,$20,$20,$20,$20,$20,$20,$20,$20,$20,$20,$20
09228  8422             ;        ;BYTE    $20,$20,$20,$20,$20,$20,$20,$20,$20,$20,$20,$20,$20,$20,$20,$20,$20,$20,$20,$20,$20,$20,$20,$20,$20,$20,$20,$20,$20,$20,$20,$20,$20,$20,$20,$20,$20,$20,$20,$20
09229  8422                        ;BYTE    $20,$20,$20,$20,$20,$20,$20,$20,$20,$20,$20,$20,$20,$20,$20,$20,$20,$20,$20,$20,$20,$20,$20,$20,$20,$20,$20,$20,$20,$20,$20,$20,$20,$20,$20,$20,$20,$20,$20,$20
09230  8422                        ;BYTE    $20,$20,$20,$20,$20,$20,$20,$20,$20,$20,$20,$20,$20,$20,$20,$20,$20,$20,$20,$20,$20,$20,$20,$20,$20,$20,$20,$20,$20,$20,$20,$20,$20,$20,$20,$20,$20,$20,$20,$20
09231  8422             
09232  8422             ; SCREEN 2 - SCORE COLOUR DATA
09233  8422             SCORE_COLOUR_DATA 
09234  8422                        ;BYTE    $00,$00,$00,$00,$00,$00,$00,$00,$00,$00,$00,$00,$00,$00,$00,$00,$00,$00,$00,$00,$00,$00,$00,$00,$00,$00,$00,$00,$00,$00,$00,$00,$00,$00,$00,$00,$00,$00,$00,$00
09235  8422  00 00 00              BYTE    $00,$00,$00,$00,$00,$00,$05,$05,$05,$05,$05,$05,$05,$05,$05,$00,$05,$00,$01,$01,$00,$00,$00,$03,$03,$03,$03,$03,$00,$03,$00,$01,$01,$00,$00,$00,$00,$00,$00,$00
09236  844A             ;        BYTE    $00,$00,$00,$00,$00,$03,$03,$00,$03,$00,$00,$00,$00,$00,$00,$07,$07,$07,$07,$07,$07,$07,$07,$07,$07,$00,$00,$00,$00,$00,$00,$00,$00,$00,$00,$00,$00,$00,$00,$00
09237  844A             ;        BYTE    $00,$00,$00,$00,$00,$00,$03,$00,$00,$00,$00,$00,$00,$00,$00,$07,$07,$07,$07,$07,$07,$07,$07,$07,$07,$00,$00,$00,$00,$00,$00,$00,$00,$00,$00,$00,$00,$00,$00,$00
09238  844A             ;        BYTE    $00,$00,$00,$00,$00,$00,$03,$00,$00,$00,$00,$00,$00,$00,$00,$07,$07,$07,$07,$07,$07,$07,$07,$07,$07,$00,$00,$00,$00,$00,$00,$00,$00,$00,$00,$00,$00,$00,$00,$00
09239  844A             ;        BYTE    $00,$00,$00,$00,$00,$00,$03,$00,$00,$00,$00,$00,$00,$00,$00,$07,$07,$07,$07,$07,$07,$07,$07,$07,$07,$00,$00,$00,$00,$00,$00,$00,$00,$00,$00,$00,$00,$00,$00,$00
09240  844A             ;        ;BYTE    $00,$00,$00,$00,$00,$00,$03,$00,$00,$00,$00,$00,$00,$00,$00,$00,$00,$00,$00,$00,$00,$00,$00,$00,$00,$00,$00,$00,$00,$00,$00,$00,$00,$00,$00,$00,$00,$00,$00,$00
09241  844A                        ;BYTE    $00,$00,$00,$00,$00,$00,$00,$00,$00,$00,$00,$00,$00,$00,$00,$00,$00,$00,$00,$00,$00,$00,$00,$00,$00,$00,$00,$00,$00,$00,$00,$00,$00,$00,$00,$00,$00,$00,$00,$00
09242  844A                        ;BYTE    $00,$00,$00,$00,$00,$00,$03,$00,$00,$00,$00,$00,$00,$00,$00,$00,$00,$00,$00,$00,$00,$00,$00,$00,$00,$00,$00,$00,$00,$00,$00,$00,$00,$00,$00,$00,$00,$00,$00,$00
09243  844A             
09244  844A             ; SCREEN 3 - SCREEN 1 SCREEN DATA
09245  844A             SCREEN_1_SCREEN_DATA 
09246  844A  20 20 8C              BYTE    $20,$20,$8C,$A4,$B1,$00,$1B
09247  8451  20 A0 A1              BYTE    $20,$A0,$A1,$A2,$A3,$44,$40,$41,$40,$41,$40,$41,$40,$41,$40,$41,$40,$41,$40,$41,$40,$41,$40,$41,$40,$41,$40,$41,$40,$41,$40,$41
09248  8471  20 90 91              BYTE    $20,$90,$91,$92,$93,$49,$43,$42,$43,$42,$43,$42,$43,$42,$43,$42,$43,$42,$43,$42,$43,$42,$43,$42,$43,$42,$43,$42,$43,$42,$43,$42
09249  8491  20 8C 8D              BYTE    $20,$8C,$8D,$8E,$8F,$4A,$40,$41,$94,$95,$96,$97,$00,$12,$40,$41
09250  84A1  20 88 89              BYTE    $20,$88,$89,$8A,$8B,$4B,$43,$42,$98,$99,$9A,$9B,$00,$12,$43,$42
09251  84B1  20 20 84              BYTE    $20,$20,$84,$85,$86,$44,$40,$41,$9C,$9D,$9E,$9F,$00,$12,$40,$41
09252  84C1  20 80 81              BYTE    $20,$80,$81,$82,$83,$49,$43,$42,$00,$16,$43,$42
09253  84CD  20 20 3B              BYTE    $20,$20,$3B,$3C,$3D,$4A,$40,$41,$00,$10,$40,$41,$00,$06
09254  84DB  20 20 2E              BYTE    $20,$20,$2E,$2F,$3A,$4B,$43,$42,$00,$10,$43,$42,$00,$06
09255  84E9  29 2A 2B              BYTE    $29,$2A,$2B,$2C,$2D,$44,$40,$41,$00,$06,$62,$60,$61,$63,$00,$06,$40,$41,$00,$06
09256  84FD  24 25 26              BYTE    $24,$25,$26,$27,$28,$49,$43,$42,$00,$06,$68,$5E,$5F,$68,$00,$06,$43,$42,$00,$06
09257  8511  22 23 D7              BYTE    $22,$23,$D7,$D8,$D9,$4A,$40,$41,$40,$41,$00,$04,$68,$5C,$5D,$68,$00,$04,$4C,$4F,$40,$41,$00,$04,$40,$41
09258  852B  1F 21 DA              BYTE    $1F,$21,$DA,$DB,$DC,$4B,$43,$42,$43,$42,$00,$04,$58,$59,$5A,$5B,$00,$04,$4D,$4E,$43,$42,$00,$04,$43,$42
09259  8545  1D 1E DD              BYTE    $1D,$1E,$DD,$DE,$DF,$00,$09,$54,$55,$56,$57,$00,$04,$68,$68,$40,$41,$40,$41,$40,$41,$40,$41
09260  855C  1B 1C E0              BYTE    $1B,$1C,$E0,$E1,$E2,$00,$09,$50,$51,$52,$53,$00,$04,$68,$68,$43,$42,$43,$42,$43,$42,$43,$42
09261  8573  46 47 45              BYTE    $46,$47,$45,$46,$47,$48,$45,$46,$47,$48,$45,$46,$47,$48,$45,$46,$47,$48,$45,$46,$47,$48,$45,$46,$47,$48,$45,$46,$47,$48,$45,$46
09262  8593  FF                    BYTE    $FF
09263  8594             
09264  8594             ; SCREEN 3 - SCREEN 1 COLOUR DATA
09265  8594             SCREEN_1_COLOUR_DATA 
09266  8594  10 25 0A              BYTE    $10,$25,$0A,$F3,$93
09267  8599  00 33 0A              BYTE    $00,$33,$0A,$F3,$93
09268  859E  00 33 0A              BYTE    $00,$33,$0A,$F3,$93
09269  85A3  00 27 03              BYTE    $00,$27,$03,$0A,$13,$31,$F0,$10,$13
09270  85AC  00 27 03              BYTE    $00,$27,$03,$0A,$13,$31,$F0,$10,$13
09271  85B5  10 27 0A              BYTE    $10,$27,$0A,$13,$31,$F0,$10,$13
09272  85BD  00 37 0A              BYTE    $00,$37,$0A,$13,$F0,$50,$13
09273  85C4  10 27 0A              BYTE    $10,$27,$0A,$13,$F0,$13,$50
09274  85CB  10 27 0A              BYTE    $10,$27,$0A,$13,$F0,$13,$50
09275  85D2  47 0A 13              BYTE    $47,$0A,$13,$50,$31,$50,$13,$50
09276  85DA  47 0A 13              BYTE    $47,$0A,$13,$60,$11,$60,$13,$50
09277  85E2  17 1A 01              BYTE    $17,$1A,$01,$0A,$33,$40,$11,$40,$17,$13,$30,$13
09278  85EE  17 1A 01              BYTE    $17,$1A,$01,$0A,$33,$30,$31,$30,$17,$13,$30,$13
09279  85FA  17 1A 01              BYTE    $17,$1A,$01,$80,$31,$30,$16,$73
09280  8602  17 1A 01              BYTE    $17,$1A,$01,$80,$3A,$30,$16,$73
09281  860A  F5 F5                 BYTE    $F5,$F5
09282  860C  FF                    BYTE    $FF
09283  860D             
09284  860D             SCREEN_1_INFO_DATA 
09285  860D  00 02 00              BYTE    0,2,0,0  ;SALIDAS DE LA PANTALLA (IZQUIERDA, DERECHA, ARRIBA, ABAJO)
09286  8611  04                    BYTE    4
09287  8612                        ;SPRITE,MOVIMIENTO,MOVIMIENTO INICIAL, DIVISOR DE VELOCIDAD,DELAY ANIMACION, COLOR,X-Y INICIAL,X-Y FINAL
09288  8612  5B 00 01              BYTE    SP_KEY_1,SP_NONE,1,1,WHITE,26,14
09289  8619  02 01 01              BYTE    SP_MURCIELAGO,SP_LR,1,1,WHITE,33,5,24
09290  8621  01 04 00              BYTE    SP_GOTA,SP_D,0,4,GREEN,20,4,8
09291  8629  03 03 01              BYTE    SP_PLANO,SP_UD,1,2,RED,33,12,6
09292  8631             
09293  8631             ; SCREEN 4 - SCREEN 2 SCREEN DATA
09294  8631             SCREEN_2_SCREEN_DATA 
09295  8631  00 20                 BYTE    $00,$20
09296  8633  40 41 40              BYTE    $40,$41,$40,$41,$40,$41,$40,$41,$40,$41,$40,$41,$40,$41,$40,$41,$40,$41,$40,$41,$40,$41,$40,$41,$40,$41,$40,$41,$40,$41,$40,$41
09297  8653  43 42 43              BYTE    $43,$42,$43,$42,$43,$42,$43,$42,$43,$42,$43,$42,$43,$42,$43,$42,$43,$42,$43,$42,$43,$42,$43,$42,$43,$42,$43,$42,$43,$42,$43,$42
09298  8673  40 41 00              BYTE    $40,$41,$00,$1C,$40,$41
09299  8679  43 42 00              BYTE    $43,$42,$00,$1C,$43,$42
09300  867F  40 41 00              BYTE    $40,$41,$00,$1C,$40,$41
09301  8685  43 42 00              BYTE    $43,$42,$00,$0C,$40,$41,$40,$41,$40,$41,$40,$41,$40,$41,$40,$41,$00,$04,$43,$42
09302  8699  00 0A 7D              BYTE    $00,$0A,$7D,$7E,$7F,$7D,$43,$42,$43,$42,$43,$42,$43,$42,$43,$42,$43,$42,$00,$04,$40,$41
09303  86AF  00 0E 40              BYTE    $00,$0E,$40,$41,$00,$0E,$43,$42
09304  86B7  00 0E 43              BYTE    $00,$0E,$43,$42,$00,$0E,$40,$41
09305  86BF  00 0E 40              BYTE    $00,$0E,$40,$41,$00,$03,$40,$41,$40,$41,$40,$41,$40,$41,$40,$41,$40,$41,$42
09306  86D2  40 41 7D              BYTE    $40,$41,$7D,$7E,$7F,$7D,$00,$08,$43,$42,$00,$03,$43,$42,$43,$42,$43,$42,$43,$42,$43,$42,$43,$42,$41
09307  86EB  43 42 00              BYTE    $43,$42,$00,$1C,$43,$42
09308  86F1  40 41 A0              BYTE    $40,$41,$A0,$00,$1B,$40,$41
09309  86F8  43 42 A1              BYTE    $43,$42,$A1,$A2,$A3,$A4,$00,$18,$43,$42
09310  8702  45 46 47              BYTE    $45,$46,$47,$48,$45,$46,$45,$46,$00,$04,$46,$47,$48,$45,$46,$47,$48,$45,$46,$47,$48,$45,$00,$04,$45,$46,$47,$48
09311  871E  FF                    BYTE    $FF
09312  871F             
09313  871F             ; SCREEN 4 - SCREEN 2 COLOUR DATA
09314  871F             SCREEN_2_COLOUR_DATA 
09315  871F  F0 F0                 BYTE    $F0,$F0
09316  8721  F5 F5                 BYTE    $F5,$F5
09317  8723  F5 F5                 BYTE    $F5,$F5
09318  8725  15 F0 B0              BYTE    $15,$F0,$B0,$15
09319  8729  15 F0 B0              BYTE    $15,$F0,$B0,$15
09320  872D  15 F0 B0              BYTE    $15,$F0,$B0,$15
09321  8731  15 B0 B4              BYTE    $15,$B0,$B4,$30,$15
09322  8736  80 47 B4              BYTE    $80,$47,$B4,$30,$15
09323  873B  C0 24 D0              BYTE    $C0,$24,$D0,$15
09324  873F  C0 24 D0              BYTE    $C0,$24,$D0,$15
09325  8743  15 A0 24              BYTE    $15,$A0,$24,$10,$04,$C5
09326  8749  15 37 60              BYTE    $15,$37,$60,$24,$20,$C5
09327  874F  15 F0 B0              BYTE    $15,$F0,$B0,$15
09328  8753  15 01 F0              BYTE    $15,$01,$F0,$A0,$15
09329  8758  15 31 F0              BYTE    $15,$31,$F0,$70,$15
09330  875D  73 20 C3              BYTE    $73,$20,$C3,$30,$33
09331  8762  FF                    BYTE    $FF
09332  8763             
09333  8763             SCREEN_2_INFO_DATA 
09334  8763  01 00 00              BYTE    1,0,0,3  ;SALIDAS DE LA PANTALLA (IZQUIERDA, DERECHA, ARRIBA, ABAJO)
09335  8767  03                    BYTE    3
09336  8768                        ;SPRITE,MOVIMIENTO,MOVIMIENTO INICIAL, DIVISOR DE VELOCIDAD,DELAY ANIMACION, COLOR,X-Y INICIAL,X-Y FINAL
09337  8768  05 00 01              BYTE    SP_PALMAS,SP_NONE,1,2,RED,17,14
09338  876F  06 01 01              BYTE    SP_SERPIENTE,SP_LR,1,1,GREEN,27,14,18
09339  8777  04 01 00              BYTE    SP_MOSCAS,SP_LR,0,1,WHITE,14,5,10
09340  877F             
09341  877F             ; SCREEN 5 - SCREEN 3 SCREEN DATA
09342  877F             SCREEN_3_SCREEN_DATA 
09343  877F  45 46 47              BYTE    $45,$46,$47,$48,$45,$46,$47,$48,$00,$04,$45,$46,$47,$48,$45,$46,$47,$48,$45,$46,$47,$48,$00,$04,$45,$46,$47,$48
09344  879B  1B 1C 1F              BYTE    $1B,$1C,$1F,$21,$2C,$2D,$00,$06,$28,$29,$3E,$3F,$00,$0E,$3E,$3F
09345  87AB  1D 1E 22              BYTE    $1D,$1E,$22,$23,$2E,$2F,$00,$06,$2A,$2B,$75,$76,$00,$0E,$75,$76
09346  87BB  24 25 28              BYTE    $24,$25,$28,$29,$00,$08,$3A,$3B,$00,$0A,$4C,$4F,$3E,$3F,$1F,$21,$2C,$2D
09347  87CD  26 27 2A              BYTE    $26,$27,$2A,$2B,$00,$08,$3C,$3D,$00,$0A,$4D,$4E,$75,$76,$22,$23,$2E,$2F
09348  87DF  1B 1C 00              BYTE    $1B,$1C,$00,$0A,$28,$29,$00,$10,$28,$29
09349  87E9  1D 1E 00              BYTE    $1D,$1E,$00,$0A,$2A,$2B,$00,$10,$2A,$2B
09350  87F3  24 25 00              BYTE    $24,$25,$00,$0A,$3A,$3B,$4C,$4F,$3E,$3F,$1F,$21,$2C,$2D,$1F,$21,$2C,$2D,$00,$04,$3A,$3B
09351  8809  26 27 00              BYTE    $26,$27,$00,$0A,$3C,$3D,$4D,$4E,$75,$76,$22,$23,$2E,$2F,$22,$23,$2E,$2F,$00,$04,$3C,$3D
09352  881F  1B 1C 00              BYTE    $1B,$1C,$00,$0A,$28,$29,$1B,$1C,$1F,$21,$2C,$2D,$7D,$7E,$7D,$7E,$7F,$7D,$00,$04,$1B,$1C
09353  8835  1D 1E 00              BYTE    $1D,$1E,$00,$0A,$2A,$2B,$1D,$1E,$22,$23,$2E,$2F,$00,$0A,$1D,$1E
09354  8845  24 25 00              BYTE    $24,$25,$00,$0A,$3A,$3B,$24,$25,$00,$0E,$24,$25
09355  8851  26 27 A0              BYTE    $26,$27,$A0,$00,$03,$4C,$4F,$1F,$21,$24,$25,$3C,$3D,$26,$27,$00,$0E,$26,$27
09356  8864  28 29 A1              BYTE    $28,$29,$A1,$A2,$A3,$A4,$4D,$4E,$22,$23,$26,$27,$24,$25,$00,$0E,$1F,$21,$2C,$2D
09357  8878  2A 2B 7D              BYTE    $2A,$2B,$7D,$7E,$7F,$7D,$7D,$7E,$7D,$7E,$7F,$7E,$26,$27,$00,$0E,$22,$23,$2E,$2F
09358  888C  7D 7E 7F              BYTE    $7D,$7E,$7F,$7D,$7D,$7E,$7F,$7D,$7D,$7E,$7D,$7E,$7F,$7D,$7D,$7E,$7F,$7D,$00,$04,$7D,$7E,$7F,$7D,$7D,$7E,$7D,$7E,$7F,$7D
09359  88AA  FF                    BYTE    $FF
09360  88AB             
09361  88AB             ; SCREEN 5 - SCREEN 3 COLOUR DATA
09362  88AB             SCREEN_3_COLOUR_DATA 
09363  88AB  7A 30 BA              BYTE    $7A,$30,$BA,$30,$3A
09364  88B0  57 50 37              BYTE    $57,$50,$37,$D0,$17
09365  88B5  57 50 37              BYTE    $57,$50,$37,$D0,$17
09366  88BA  37 70 17              BYTE    $37,$70,$17,$90,$77
09367  88BF  37 70 17              BYTE    $37,$70,$17,$90,$77
09368  88C4  17 90 17              BYTE    $17,$90,$17,$F0,$17
09369  88C9  17 90 17              BYTE    $17,$90,$17,$F0,$17
09370  88CE  17 90 D7              BYTE    $17,$90,$D7,$30,$17
09371  88D3  17 90 D7              BYTE    $17,$90,$D7,$30,$17
09372  88D8  17 90 77              BYTE    $17,$90,$77,$55,$30,$17
09373  88DE  17 90 77              BYTE    $17,$90,$77,$90,$17
09374  88E3  17 90 37              BYTE    $17,$90,$37,$D0,$17
09375  88E8  17 01 20              BYTE    $17,$01,$20,$97,$D0,$17
09376  88EE  17 31 77              BYTE    $17,$31,$77,$D0,$37
09377  88F3  17 95 17              BYTE    $17,$95,$17,$D0,$37
09378  88F8  F5 15 30              BYTE    $F5,$15,$30,$95
09379  88FC  FF                    BYTE    $FF
09380  88FD             
09381  88FD             SCREEN_3_INFO_DATA 
09382  88FD  00 00 02              BYTE    0,0,2,4  ;SALIDAS DE LA PANTALLA (IZQUIERDA, DERECHA, ARRIBA, ABAJO)
09383  8901  05                    BYTE    5
09384  8902                        ;SPRITE,MOVIMIENTO,MOVIMIENTO INICIAL, DIVISOR DE VELOCIDAD,DELAY ANIMACION, COLOR,X-Y INICIAL,X-Y FINAL
09385  8902  07 01 01              BYTE    SP_MAZO,SP_LR,1,2,CYAN,27,4,25
09386  890A  08 01 00              BYTE    SP_ARANA,SP_LR,0,1,GREEN,25,6,18
09387  8912  09 01 01              BYTE    SP_MOMIA,SP_LR,1,1,WHITE,31,14,26
09388  891A  0A 00 00              BYTE    SP_PINCHOS_1,SP_NONE,0,0,BLUE,13,11
09389  8921  0B 00 00              BYTE    SP_PINCHOS_2,SP_NONE,0,0,BLUE,16,11
09390  8928             
09391  8928             ; SCREEN 6 - SCREEN 4 SCREEN DATA
09392  8928             SCREEN_4_SCREEN_DATA 
09393  8928  1F 21 2C              BYTE    $1F,$21,$2C,$2D,$1F,$21,$2C,$2D,$1F,$21,$2C,$2D,$1F,$21,$2C,$2D,$3E,$3F,$00,$04,$4C,$4F,$3E,$3F,$4C,$4F,$3E,$3F,$4C,$4F
09394  8946  22 23 2E              BYTE    $22,$23,$2E,$2F,$22,$23,$2E,$2F,$22,$23,$2E,$2F,$22,$23,$2E,$2F,$75,$76,$00,$04,$4D,$4E,$75,$76,$4D,$4E,$75,$76,$4D,$4E
09395  8964  28 29 68              BYTE    $28,$29,$68,$68,$00,$14,$94,$95,$96,$97,$1F,$21,$2C,$2D
09396  8972  2A 2B 68              BYTE    $2A,$2B,$68,$68,$00,$14,$98,$99,$9A,$9B,$22,$23,$2E,$2F
09397  8980  3A 3B 00              BYTE    $3A,$3B,$00,$11,$3E,$3F,$00,$03,$9C,$9D,$9E,$9F,$4C,$4F,$3E,$3F
09398  8990  3C 3D 00              BYTE    $3C,$3D,$00,$11,$75,$76,$00,$07,$4D,$4E,$75,$76
09399  899C  1B 1C 00              BYTE    $1B,$1C,$00,$1A,$1F,$21,$2C,$2D
09400  89A4  1D 1E 1F              BYTE    $1D,$1E,$1F,$21,$2C,$2D,$1F,$21,$2C,$2D,$00,$12,$22,$23,$2E,$2F
09401  89B4  24 25 22              BYTE    $24,$25,$22,$23,$2E,$2F,$22,$23,$2E,$2F,$1F,$21,$2C,$2D,$00,$06,$1F,$21,$2C,$2D,$28,$29,$3E,$3F,$4C,$4F,$3E,$3F
09402  89D0  26 27 00              BYTE    $26,$27,$00,$08,$22,$23,$2E,$2F,$00,$06,$22,$23,$2E,$2F,$2A,$2B,$75,$76,$4D,$4E,$75,$76
09403  89E6  28 29 00              BYTE    $28,$29,$00,$0F,$28,$29,$3E,$3F,$3E,$3F,$00,$05,$C7,$C8,$C9,$CA
09404  89F6  2A 2B 00              BYTE    $2A,$2B,$00,$0F,$2A,$2B,$75,$76,$75,$76,$00,$05,$CB,$CC,$CD,$CE
09405  8A06  3A 3B 00              BYTE    $3A,$3B,$00,$1A,$CF,$D0,$D1,$D2
09406  8A0E  3C 3D 00              BYTE    $3C,$3D,$00,$1A,$D3,$D4,$D5,$D6
09407  8A16  28 29 3E              BYTE    $28,$29,$3E,$3F,$00,$04,$28,$29,$3E,$3F,$1F,$21,$2C,$2D,$28,$29,$3E,$3F,$28,$29,$3E,$3F,$1F,$21,$2C,$2D,$1F,$21,$2C,$2D
09408  8A34  2A 2B 75              BYTE    $2A,$2B,$75,$76,$00,$04,$2A,$2B,$75,$76,$22,$23,$2E,$2F,$2A,$2B,$75,$76,$2A,$2B,$75,$76,$22,$23,$2E,$2F,$22,$23,$2E,$2F
09409  8A52  FF                    BYTE    $FF
09410  8A53             
09411  8A53             ; SCREEN 6 - SCREEN 4 COLOUR DATA
09412  8A53             SCREEN_4_COLOUR_DATA 
09413  8A53  F5 15 30              BYTE    $F5,$15,$30,$95
09414  8A57  F5 15 30              BYTE    $F5,$15,$30,$95
09415  8A5B  15 16 F0              BYTE    $15,$16,$F0,$30,$31,$35
09416  8A61  15 16 F0              BYTE    $15,$16,$F0,$30,$31,$35
09417  8A67  15 F0 27              BYTE    $15,$F0,$27,$20,$31,$35
09418  8A6D  15 F0 27              BYTE    $15,$F0,$27,$60,$35
09419  8A72  15 F0 90              BYTE    $15,$F0,$90,$35
09420  8A76  15 77 F0              BYTE    $15,$77,$F0,$10,$35
09421  8A7B  15 B7 50              BYTE    $15,$B7,$50,$77,$35
09422  8A80  15 70 37              BYTE    $15,$70,$37,$50,$77,$35
09423  8A86  15 E0 57              BYTE    $15,$E0,$57,$40,$3A
09424  8A8B  15 E0 57              BYTE    $15,$E0,$57,$40,$3A
09425  8A90  15 F0 90              BYTE    $15,$F0,$90,$3A
09426  8A94  15 F0 90              BYTE    $15,$F0,$90,$3A
09427  8A98  F3 F3                 BYTE    $F3,$F3
09428  8A9A  F3 F3                 BYTE    $F3,$F3
09429  8A9C  FF                    BYTE    $FF
09430  8A9D             
09431  8A9D             SCREEN_4_INFO_DATA 
09432  8A9D  00 05 03              BYTE    0,5,3,7  ;SALIDAS DE LA PANTALLA (IZQUIERDA, DERECHA, ARRIBA, ABAJO)
09433  8AA1  04                    BYTE    4
09434  8AA2  33 00 01              BYTE    SP_LOCK_1,SP_NONE,1,8,WHITE,7,3
09435  8AA9  01 04 01              BYTE    SP_GOTA,SP_D,1,5,CYAN,12,3,6
09436  8AB1  03 03 00              BYTE    SP_PLANO,SP_UD,0,1,RED,20,11,5
09437  8AB9  06 01 01              BYTE    SP_SERPIENTE,SP_LR,1,1,GREEN,25,13,15
09438  8AC1             
09439  8AC1             ; SCREEN 7 - SCREEN 5 SCREEN DATA
09440  8AC1             SCREEN_5_SCREEN_DATA 
09441  8AC1  84 85 86              BYTE    $84,$85,$86,$87,$80,$81,$84,$85,$86,$87,$84,$85,$86,$87,$84,$85,$86,$87,$80,$81,$84,$85,$86,$87,$80,$81,$84,$85,$86,$87,$80,$81
09442  8AE1  88 89 8A              BYTE    $88,$89,$8A,$8B,$82,$83,$88,$89,$8A,$8B,$88,$89,$8A,$8B,$88,$89,$8A,$8B,$82,$83,$88,$89,$8A,$8B,$82,$83,$88,$89,$8A,$8B,$82,$83
09443  8B01  8C 8D 44              BYTE    $8C,$8D,$44,$00,$03,$E3,$E4,$00,$05,$E3,$E4,$00,$07,$94,$95,$96,$97,$00,$06
09444  8B14  8E 8F 49              BYTE    $8E,$8F,$49,$20,$20,$E5,$E6,$E7,$E8,$00,$03,$E5,$E6,$E7,$E8,$00,$06,$98,$99,$9A,$9B,$00,$06
09445  8B2B  90 91 4A              BYTE    $90,$91,$4A,$20,$20,$E9,$EA,$EB,$EC,$00,$03,$E9,$EA,$EB,$EC,$00,$06,$9C,$9D,$9E,$9F,$00,$06
09446  8B42  92 93 4B              BYTE    $92,$93,$4B,$20,$20,$ED,$EE,$EF,$F0,$00,$03,$ED,$EE,$EF,$F0,$00,$10
09447  8B53  8C 8D 44              BYTE    $8C,$8D,$44,$20,$20,$F1,$F2,$F3,$F4,$00,$03,$F1,$F2,$F3,$F4,$00,$10
09448  8B64  8E 8F 49              BYTE    $8E,$8F,$49,$20,$20,$F5,$F6,$F7,$F8,$00,$03,$F5,$F6,$F7,$F8,$00,$10
09449  8B75  90 91 4A              BYTE    $90,$91,$4A,$20,$20,$50,$51,$52,$50,$51,$52,$53,$50,$51,$52,$53,$00,$0C,$84,$85,$86,$87
09450  8B8B  92 93 4B              BYTE    $92,$93,$4B,$00,$19,$88,$89,$8A,$8B
09451  8B94  D7 D8 D9              BYTE    $D7,$D8,$D9,$00,$13,$84,$85,$86,$87,$84,$85,$86,$87,$80,$81
09452  8BA3  DA DB DC              BYTE    $DA,$DB,$DC,$00,$13,$88,$89,$8A,$8B,$88,$89,$8A,$8B,$82,$83
09453  8BB2  DD DE DF              BYTE    $DD,$DE,$DF,$00,$11,$84,$85,$86,$87,$84,$85,$86,$87,$84,$85,$86,$87
09454  8BC3  E0 E1 E2              BYTE    $E0,$E1,$E2,$00,$11,$88,$89,$8A,$8B,$88,$89,$8A,$8B,$88,$89,$8A,$8B
09455  8BD4  84 85 86              BYTE    $84,$85,$86,$87,$80,$81,$84,$85,$86,$87,$84,$85,$86,$87,$80,$81,$84,$85,$86,$87,$80,$81,$84,$85,$86,$87,$84,$85,$86,$87,$80,$81
09456  8BF4  88 89 8A              BYTE    $88,$89,$8A,$8B,$82,$83,$88,$89,$8A,$8B,$88,$89,$8A,$8B,$82,$83,$88,$89,$8A,$8B,$82,$83,$88,$89,$8A,$8B,$88,$89,$8A,$8B,$82,$83
09457  8C14  FF                    BYTE    $FF
09458  8C15             
09459  8C15             ; SCREEN 7 - SCREEN 5 COLOUR DATA
09460  8C15             SCREEN_5_COLOUR_DATA 
09461  8C15  F2 F2                 BYTE    $F2,$F2
09462  8C17  F2 F2                 BYTE    $F2,$F2
09463  8C19  12 07 20              BYTE    $12,$07,$20,$17,$40,$17,$40,$53,$50
09464  8C22  12 07 10              BYTE    $12,$07,$10,$37,$20,$37,$30,$53,$50
09465  8C2B  12 07 10              BYTE    $12,$07,$10,$37,$20,$37,$30,$53,$50
09466  8C34  12 07 10              BYTE    $12,$07,$10,$37,$20,$37,$F0
09467  8C3B  12 07 10              BYTE    $12,$07,$10,$37,$20,$37,$F0
09468  8C42  12 07 10              BYTE    $12,$07,$10,$37,$20,$37,$F0
09469  8C49  12 07 10              BYTE    $12,$07,$10,$A5,$B0,$31
09470  8C4F  12 07 F0              BYTE    $12,$07,$F0,$80,$31
09471  8C54  27 F0 20              BYTE    $27,$F0,$20,$91
09472  8C58  27 F0 20              BYTE    $27,$F0,$20,$91
09473  8C5C  27 F0 00              BYTE    $27,$F0,$00,$B1
09474  8C60  27 F0 00              BYTE    $27,$F0,$00,$B1
09475  8C64  F1 F1                 BYTE    $F1,$F1
09476  8C66  F1 F1                 BYTE    $F1,$F1
09477  8C68  FF                    BYTE    $FF
09478  8C69             
09479  8C69             SCREEN_5_INFO_DATA 
09480  8C69  04 06 00              BYTE    4,6,0,0  ;SALIDAS DE LA PANTALLA (IZQUIERDA, DERECHA, ARRIBA, ABAJO)
09481  8C6D  03                    BYTE    3
09482  8C6E  01 04 00              BYTE    SP_GOTA,SP_D,0,4,CYAN,14,10,13
09483  8C76  08 03 00              BYTE    SP_ARANA,SP_UD,0,2,GREEN,27,9,5
09484  8C7E  01 04 01              BYTE    SP_GOTA,SP_D,1,4,YELLOW,33,3,7
09485  8C86             
09486  8C86             ; SCREEN 8 - SCREEN 6 SCREEN DATA
09487  8C86             SCREEN_6_SCREEN_DATA 
09488  8C86  80 81 84              BYTE    $80,$81,$84,$85,$86,$87,$84,$85,$86,$87,$84,$85,$86,$87,$80,$81,$84,$85,$86,$87,$84,$85,$86,$87,$84,$85,$86,$87,$84,$85,$86,$87
09489  8CA6  82 83 88              BYTE    $82,$83,$88,$89,$8A,$8B,$88,$89,$8A,$8B,$88,$89,$8A,$8B,$82,$83,$88,$89,$8A,$8B,$88,$89,$8A,$8B,$88,$89,$8A,$8B,$88,$89,$8A,$8B
09490  8CC6  00 0C 84              BYTE    $00,$0C,$84,$85,$86,$87,$8C,$8D,$84,$85,$86,$87,$00,$04,$84,$85,$86,$87,$A5,$A6
09491  8CDA  00 0C 88              BYTE    $00,$0C,$88,$89,$8A,$8B,$8E,$8F,$88,$89,$8A,$8B,$00,$04,$88,$89,$8A,$8B,$A7,$A8
09492  8CEE  00 0E A5              BYTE    $00,$0E,$A5,$A6,$90,$91,$80,$81,$00,$08,$8C,$8D,$A9,$AA
09493  8CFC  00 0E A7              BYTE    $00,$0E,$A7,$A8,$92,$93,$82,$83,$00,$06,$68,$68,$8E,$8F,$AB,$AC
09494  8D0C  00 0E A9              BYTE    $00,$0E,$A9,$AA,$A5,$A6,$00,$08,$68,$68,$90,$91,$8C,$8D
09495  8D1A  00 0E AB              BYTE    $00,$0E,$AB,$AC,$A7,$A8,$00,$08,$B1,$B2,$92,$93,$8E,$8F
09496  8D28  80 81 84              BYTE    $80,$81,$84,$85,$86,$87,$00,$0A,$A9,$AA,$00,$06,$84,$85,$86,$87,$AD,$AE,$90,$91
09497  8D3C  82 83 88              BYTE    $82,$83,$88,$89,$8A,$8B,$00,$0A,$AB,$AC,$00,$06,$88,$89,$8A,$8B,$AF,$B0,$92,$93
09498  8D50  84 85 86              BYTE    $84,$85,$86,$87,$84,$85,$86,$87,$00,$09,$7D,$7E,$7F,$7D,$00,$05,$A5,$A6,$20,$20,$A5,$A6
09499  8D66  88 89 8A              BYTE    $88,$89,$8A,$8B,$88,$89,$8A,$8B,$00,$12,$A7,$A8,$20,$20,$A7,$A8
09500  8D76  80 81 84              BYTE    $80,$81,$84,$85,$86,$87,$84,$85,$86,$87,$84,$85,$86,$87,$00,$0C,$A9,$AA,$80,$81,$A9,$AA
09501  8D8C  82 83 88              BYTE    $82,$83,$88,$89,$8A,$8B,$88,$89,$8A,$8B,$88,$89,$8A,$8B,$00,$0C,$AB,$AC,$82,$83,$AB,$AC
09502  8DA2  84 85 86              BYTE    $84,$85,$86,$87,$84,$85,$86,$87,$84,$85,$86,$87,$80,$81,$84,$85,$86,$87,$84,$85,$86,$87,$80,$81,$84,$85,$86,$87,$84,$85,$86,$87
09503  8DC2  88 89 8A              BYTE    $88,$89,$8A,$8B,$88,$89,$8A,$8B,$88,$89,$8A,$8B,$82,$83,$88,$89,$8A,$8B,$88,$89,$8A,$8B,$82,$83,$88,$89,$8A,$8B,$88,$89,$8A,$8B
09504  8DE2  FF                    BYTE    $FF
09505  8DE3             
09506  8DE3             ; SCREEN 8 - SCREEN 6 COLOUR DATA
09507  8DE3             SCREEN_6_COLOUR_DATA 
09508  8DE3  F2 F2                 BYTE    $F2,$F2
09509  8DE5  F2 F2                 BYTE    $F2,$F2
09510  8DE7  B0 92 30              BYTE    $B0,$92,$30,$51
09511  8DEB  B0 92 30              BYTE    $B0,$92,$30,$51
09512  8DEF  D0 52 70              BYTE    $D0,$52,$70,$31
09513  8DF3  D0 52 50              BYTE    $D0,$52,$50,$16,$31
09514  8DF8  D0 32 70              BYTE    $D0,$32,$70,$16,$31
09515  8DFD  D0 32 70              BYTE    $D0,$32,$70,$17,$31
09516  8E02  51 90 12              BYTE    $51,$90,$12,$50,$71
09517  8E07  51 90 12              BYTE    $51,$90,$12,$50,$71
09518  8E0C  71 80 47              BYTE    $71,$80,$47,$30,$11,$10,$11
09519  8E13  71 F0 10              BYTE    $71,$F0,$10,$11,$10,$11
09520  8E19  D1 B0 51              BYTE    $D1,$B0,$51
09521  8E1C  D1 B0 51              BYTE    $D1,$B0,$51
09522  8E1F  F1 F1                 BYTE    $F1,$F1
09523  8E21  F1 F1                 BYTE    $F1,$F1
09524  8E23  FF                    BYTE    $FF
09525  8E24             
09526  8E24             SCREEN_6_INFO_DATA 
09527  8E24  05 00 00              BYTE    5,0,0,0  ;SALIDAS DE LA PANTALLA (IZQUIERDA, DERECHA, ARRIBA, ABAJO)
09528  8E28  05                    BYTE    5
09529  8E29  47 00 01              BYTE    SP_TRANSPORTER_1,SP_NONE,1,1,YELLOW,33,11
09530  8E30  5C 00 01              BYTE    SP_KEY_2,SP_NONE,1,1,WHITE,30,6
09531  8E37  01 04 00              BYTE    SP_GOTA,SP_D,0,4,YELLOW,9,3,7
09532  8E3F  09 01 01              BYTE    SP_MOMIA,SP_LR,1,1,CYAN,29,13,18
09533  8E47  0C 01 01              BYTE    SP_BOLA,SP_LR,1,1,GREEN,19,11,13
09534  8E4F             
09535  8E4F             
09536  8E4F             ; SCREEN 9 - SCREEN 7 SCREEN DATA
09537  8E4F             SCREEN_7_SCREEN_DATA 
09538  8E4F  B3 B4 B5              BYTE    $B3,$B4,$B5,$B6,$00,$04,$B3,$B4,$B5,$B6,$B3,$B4,$B5,$B6,$B3,$B4,$B5,$B6,$B3,$B4,$B5,$B6,$B3,$B4,$B5,$B6,$B3,$B4,$B5,$B6
09539  8E6D  B7 B8 B9              BYTE    $B7,$B8,$B9,$BA,$00,$04,$B7,$B8,$B9,$BA,$B7,$B8,$B9,$BA,$B7,$B8,$B9,$BA,$B7,$B8,$B9,$BA,$B7,$B8,$B9,$BA,$B7,$B8,$B9,$BA
09540  8E8B  BB BC 00              BYTE    $BB,$BC,$00,$0C,$BB,$BC,$00,$10
09541  8E93  BD BE 00              BYTE    $BD,$BE,$00,$0C,$BD,$BE,$00,$10
09542  8E9B  BF C0 00              BYTE    $BF,$C0,$00,$0C,$BF,$C0,$00,$10
09543  8EA3  C1 C2 00              BYTE    $C1,$C2,$00,$0C,$C1,$C2,$00,$0A,$B3,$B4,$B5,$B6,$20,$20
09544  8EB1  BB BC B3              BYTE    $BB,$BC,$B3,$B4,$B5,$B6,$B3,$B4,$B5,$B6,$00,$04,$B3,$B4,$B5,$B6,$00,$04,$B3,$B4,$B5,$B6,$B7,$B8,$B9,$BA,$BB,$BC
09545  8ECD  BD BE B7              BYTE    $BD,$BE,$B7,$B8,$B9,$BA,$B7,$B8,$B9,$BA,$00,$04,$B7,$B8,$B9,$BA,$00,$04,$B7,$B8,$B9,$BA,$00,$04,$BD,$BE
09546  8EE7  BF C0 02              BYTE    $BF,$C0,$02,$03,$05,$06,$07,$08,$00,$05,$B3,$B4,$B5,$B6,$00,$0D,$BF,$C0
09547  8EF9  C1 C2 0A              BYTE    $C1,$C2,$0A,$0B,$0D,$0F,$11,$12,$00,$05,$B7,$B8,$B9,$BA,$00,$0D,$C1,$C2
09548  8F0B  BB BC 15              BYTE    $BB,$BC,$15,$17,$18,$19,$1A,$54,$00,$07,$B3,$B4,$B5,$B6,$B3,$B4,$B5,$B6,$B3,$B4,$B5,$B6,$00,$03,$BB,$BC
09549  8F25  BD BE 55              BYTE    $BD,$BE,$55,$56,$57,$58,$59,$5A,$00,$07,$B7,$B8,$B9,$BA,$B7,$B8,$B9,$BA,$B7,$B8,$B9,$BA,$00,$03,$BD,$BE
09550  8F3F  BF C0 5B              BYTE    $BF,$C0,$5B,$5C,$5D,$5E,$5F,$60,$00,$16,$BF,$C0
09551  8F4B  C1 C2 62              BYTE    $C1,$C2,$62,$63,$F9,$FA,$FB,$FC,$00,$16,$C1,$C2
09552  8F57  B3 B4 B5              BYTE    $B3,$B4,$B5,$B6,$B3,$B4,$B5,$B6,$B3,$B4,$B5,$B6,$B3,$B4,$B5,$B6,$B3,$B4,$B5,$B6,$B3,$B4,$B5,$B6,$B3,$B4,$B5,$B6,$B3,$B4,$B5,$B6
09553  8F77  B7 B8 B9              BYTE    $B7,$B8,$B9,$BA,$B7,$B8,$B9,$BA,$B7,$B8,$B9,$BA,$B7,$B8,$B9,$BA,$B7,$B8,$B9,$BA,$B7,$B8,$B9,$BA,$B7,$B8,$B9,$BA,$B7,$B8,$B9,$BA
09554  8F97  FF                    BYTE    $FF
09555  8F98             
09556  8F98             ; SCREEN 9 - SCREEN 7 COLOUR DATA
09557  8F98             SCREEN_7_COLOUR_DATA 
09558  8F98  37 30 F7              BYTE    $37,$30,$F7,$77
09559  8F9C  37 30 F7              BYTE    $37,$30,$F7,$77
09560  8FA0  17 B0 11              BYTE    $17,$B0,$11,$F0
09561  8FA4  17 B0 11              BYTE    $17,$B0,$11,$F0
09562  8FA8  17 B0 11              BYTE    $17,$B0,$11,$F0
09563  8FAC  17 B0 11              BYTE    $17,$B0,$11,$90,$31,$10
09564  8FB2  17 71 30              BYTE    $17,$71,$30,$31,$20,$A1
09565  8FB8  17 71 30              BYTE    $17,$71,$30,$31,$20,$41,$30,$11
09566  8FC0  17 5A 40              BYTE    $17,$5A,$40,$31,$C0,$11
09567  8FC6  17 5A 40              BYTE    $17,$5A,$40,$31,$C0,$11
09568  8FCC  17 5A 50              BYTE    $17,$5A,$50,$C1,$20,$11
09569  8FD2  17 5A 50              BYTE    $17,$5A,$50,$C1,$20,$11
09570  8FD8  17 5A F0              BYTE    $17,$5A,$F0,$50,$11
09571  8FDD  17 5A F0              BYTE    $17,$5A,$F0,$50,$11
09572  8FE2  F5 F5                 BYTE    $F5,$F5
09573  8FE4  F5 F5                 BYTE    $F5,$F5
09574  8FE6  FF                    BYTE    $FF
09575  8FE7             
09576  8FE7             SCREEN_7_INFO_DATA 
09577  8FE7  00 08 04              BYTE    0,8,4,0  ;SALIDAS DE LA PANTALLA (IZQUIERDA, DERECHA, ARRIBA, ABAJO)
09578  8FEB  03                    BYTE    3
09579  8FEC  02 03 01              BYTE    SP_MURCIELAGO,SP_UD,1,1,RED,25,9,2
09580  8FF4  04 01 01              BYTE    SP_MOSCAS,SP_LR,1,1,CYAN,17,5,12
09581  8FFC  0D 01 01              BYTE    SP_ARO,SP_LR,1,1,YELLOW,21,13,12
09582  9004             
09583  9004             ; SCREEN 10 - SCREEN 8 SCREEN DATA
09584  9004             SCREEN_8_SCREEN_DATA 
09585  9004  B3 B4 B5              BYTE    $B3,$B4,$B5,$B6,$B3,$B4,$B5,$B6,$B3,$B4,$B5,$B6,$B3,$B4,$B5,$B6,$B3,$B4,$B5,$B6,$B3,$B4,$B5,$B6,$B3,$B4,$B5,$B6,$B3,$B4,$B5,$B6
09586  9024  B7 B8 B9              BYTE    $B7,$B8,$B9,$BA,$B7,$B8,$B9,$BA,$B7,$B8,$B9,$BA,$B7,$B8,$B9,$BA,$B7,$B8,$B9,$BA,$B7,$B8,$B9,$BA,$B7,$B8,$B9,$BA,$B7,$B8,$B9,$BA
09587  9044  00 1C C7              BYTE    $00,$1C,$C7,$C8,$C9,$CA
09588  904A  00 1C CB              BYTE    $00,$1C,$CB,$CC,$CD,$CE
09589  9050  00 1C CF              BYTE    $00,$1C,$CF,$D0,$D1,$D2
09590  9056  00 1C D3              BYTE    $00,$1C,$D3,$D4,$D5,$D6
09591  905C  BB BC 00              BYTE    $BB,$BC,$00,$08,$84,$85,$86,$87,$80,$81,$00,$04,$40,$41,$40,$41,$40,$41,$40,$41,$40,$41,$40,$41
09592  9074  BD BE 00              BYTE    $BD,$BE,$00,$08,$88,$89,$8A,$8B,$82,$83,$00,$04,$43,$42,$43,$42,$43,$42,$43,$42,$43,$42,$43,$42
09593  908C  BF C0 84              BYTE    $BF,$C0,$84,$85,$86,$87,$00,$12,$B1,$B2,$20,$20,$40,$41,$40,$41
09594  909C  C1 C2 88              BYTE    $C1,$C2,$88,$89,$8A,$8B,$00,$12,$68,$68,$20,$20,$43,$42,$43,$42
09595  90AC  BB BC 80              BYTE    $BB,$BC,$80,$81,$84,$85,$86,$87,$00,$10,$68,$68,$20,$20,$40,$41,$40,$41
09596  90BE  BD BE 82              BYTE    $BD,$BE,$82,$83,$88,$89,$8A,$8B,$00,$14,$43,$42,$43,$42
09597  90CC  BF C0 84              BYTE    $BF,$C0,$84,$85,$86,$87,$84,$85,$86,$87,$00,$12,$40,$41,$40,$41
09598  90DC  C1 C2 88              BYTE    $C1,$C2,$88,$89,$8A,$8B,$88,$89,$8A,$8B,$45,$46,$47,$48,$45,$46,$47,$48,$45,$46,$47,$48,$45,$46,$47,$48,$45,$46,$43,$42,$43,$42
09599  90FC  B3 B4 B5              BYTE    $B3,$B4,$B5,$B6,$B3,$B4,$B5,$B6,$B3,$B4,$B5,$B6,$B3,$B4,$B5,$B6,$B3,$B4,$B5,$B6,$B3,$B4,$B5,$B6,$B3,$B4,$B5,$B6,$B3,$B4,$B5,$B6
09600  911C  B7 B8 B9              BYTE    $B7,$B8,$B9,$BA,$B7,$B8,$B9,$BA,$B7,$B8,$B9,$BA,$B7,$B8,$B9,$BA,$B7,$B8,$B9,$BA,$B7,$B8,$B9,$BA,$B7,$B8,$B9,$BA,$B7,$B8,$B9,$BA
09601  913C  FF                    BYTE    $FF
09602  913D             
09603  913D             ; SCREEN 10 - SCREEN 8 COLOUR DATA
09604  913D             SCREEN_8_COLOUR_DATA 
09605  913D  F1 F1                 BYTE    $F1,$F1
09606  913F  F1 F1                 BYTE    $F1,$F1
09607  9141  F0 B0 35              BYTE    $F0,$B0,$35
09608  9144  F0 B0 35              BYTE    $F0,$B0,$35
09609  9147  F0 B0 35              BYTE    $F0,$B0,$35
09610  914A  F0 B0 35              BYTE    $F0,$B0,$35
09611  914D  13 70 57              BYTE    $13,$70,$57,$30,$B7
09612  9152  13 70 57              BYTE    $13,$70,$57,$30,$B7
09613  9157  13 31 F0              BYTE    $13,$31,$F0,$10,$11,$10,$37
09614  915E  13 31 F0              BYTE    $13,$31,$F0,$10,$16,$10,$37
09615  9165  13 51 F0              BYTE    $13,$51,$F0,$16,$10,$37
09616  916B  13 51 F0              BYTE    $13,$51,$F0,$30,$37
09617  9170  13 71 F0              BYTE    $13,$71,$F0,$10,$37
09618  9175  13 71 FA              BYTE    $13,$71,$FA,$1A,$37
09619  917A  F3 F3                 BYTE    $F3,$F3
09620  917C  F3 F3                 BYTE    $F3,$F3
09621  917E  FF                    BYTE    $FF
09622  917F             
09623  917F             SCREEN_8_INFO_DATA 
09624  917F  07 09 00              BYTE    7,9,0,0  ;SALIDAS DE LA PANTALLA (IZQUIERDA, DERECHA, ARRIBA, ABAJO)
09625  9183  04                    BYTE    4
09626  9184  01 04 01              BYTE    SP_GOTA,SP_D,1,4,CYAN,17,9,12
09627  918C  07 01 01              BYTE    SP_MAZO,SP_LR,1,1,RED,19,5,14
09628  9194  08 01 00              BYTE    SP_ARANA,SP_LR,0,1,WHITE,25,12,18
09629  919C  5D 00 01              BYTE    SP_KEY_3,SP_NONE,1,1,WHITE,28,10
09630  91A3             
09631  91A3             ; SCREEN 11 - SCREEN 9 SCREEN DATA
09632  91A3             SCREEN_9_SCREEN_DATA 
09633  91A3  B3 B4 B5              BYTE    $B3,$B4,$B5,$B6,$B3,$B4,$B5,$B6,$B3,$B4,$B5,$B6,$B3,$B4,$B5,$B6,$B3,$B4,$B5,$B6,$B3,$B4,$B5,$B6,$B3,$B4,$B5,$B6,$B3,$B4,$B5,$B6
09634  91C3  B7 B8 B9              BYTE    $B7,$B8,$B9,$BA,$B7,$B8,$B9,$BA,$B7,$B8,$B9,$BA,$B7,$B8,$B9,$BA,$B7,$B8,$B9,$BA,$B7,$B8,$B9,$BA,$B7,$B8,$B9,$BA,$B7,$B8,$B9,$BA
09635  91E3  40 41 00              BYTE    $40,$41,$00,$12,$E3,$E4,$00,$09,$44
09636  91EC  43 42 00              BYTE    $43,$42,$00,$11,$E5,$E6,$E7,$E8,$00,$08,$49
09637  91F7  40 41 00              BYTE    $40,$41,$00,$11,$E9,$EA,$EB,$EC,$00,$08,$4A
09638  9202  43 42 00              BYTE    $43,$42,$00,$11,$ED,$EE,$EF,$F0,$00,$08,$4B
09639  920D  40 41 40              BYTE    $40,$41,$40,$41,$00,$0F,$F1,$F2,$F3,$F4,$00,$08,$4A
09640  921A  43 42 43              BYTE    $43,$42,$43,$42,$00,$0F,$F5,$F6,$F7,$F8,$00,$08,$4B
09641  9227  40 41 40              BYTE    $40,$41,$40,$41,$40,$41,$40,$41,$40,$41,$40,$41,$00,$07,$B3,$B4,$B5,$B6,$00,$05,$B3,$B4,$B5,$B6
09642  923F  43 42 43              BYTE    $43,$42,$43,$42,$43,$42,$43,$42,$43,$42,$43,$42,$00,$07,$B7,$B8,$B9,$BA,$00,$05,$B7,$B8,$B9,$BA
09643  9257  40 41 40              BYTE    $40,$41,$40,$41,$68,$68,$00,$0D,$B3,$B4,$B5,$B6,$00,$09
09644  9265  43 42 43              BYTE    $43,$42,$43,$42,$68,$68,$00,$0D,$B7,$B8,$B9,$BA,$00,$09
09645  9273  40 41 40              BYTE    $40,$41,$40,$41,$00,$0D,$B3,$B4,$B5,$B6,$B3,$B4,$B5,$B6,$00,$07
09646  9283  43 42 43              BYTE    $43,$42,$43,$42,$00,$0D,$B7,$B8,$B9,$BA,$B7,$B8,$B9,$BA,$00,$07
09647  9293  40 41 40              BYTE    $40,$41,$40,$41,$40,$41,$40,$41,$40,$41,$40,$41,$40,$41,$40,$41,$40,$41,$40,$41,$40,$41,$40,$41,$40,$41,$40,$41,$40,$41,$40,$41
09648  92B3  43 42 43              BYTE    $43,$42,$43,$42,$43,$42,$43,$42,$43,$42,$43,$42,$43,$42,$43,$42,$43,$42,$43,$42,$43,$42,$43,$42,$43,$42,$43,$42,$43,$42,$43,$42
09649  92D3  FF                    BYTE    $FF
09650  92D4             
09651  92D4             ; SCREEN 11 - SCREEN 9 COLOUR DATA
09652  92D4             SCREEN_9_COLOUR_DATA 
09653  92D4  F3 F3                 BYTE    $F3,$F3
09654  92D6  F3 F3                 BYTE    $F3,$F3
09655  92D8  17 F0 10              BYTE    $17,$F0,$10,$11,$80,$05
09656  92DE  17 F0 00              BYTE    $17,$F0,$00,$31,$70,$05
09657  92E4  17 F0 00              BYTE    $17,$F0,$00,$31,$70,$05
09658  92EA  17 F0 00              BYTE    $17,$F0,$00,$31,$70,$05
09659  92F0  37 E0 31              BYTE    $37,$E0,$31,$70,$05
09660  92F5  37 E0 31              BYTE    $37,$E0,$31,$70,$05
09661  92FA  B7 60 35              BYTE    $B7,$60,$35,$40,$35
09662  92FF  B7 60 35              BYTE    $B7,$60,$35,$40,$35
09663  9304  37 16 C0              BYTE    $37,$16,$C0,$35,$80
09664  9309  37 16 C0              BYTE    $37,$16,$C0,$35,$80
09665  930E  37 C0 75              BYTE    $37,$C0,$75,$60
09666  9312  37 C0 75              BYTE    $37,$C0,$75,$60
09667  9316  F7 F7                 BYTE    $F7,$F7
09668  9318  F7 F7                 BYTE    $F7,$F7
09669  931A  FF                    BYTE    $FF
09670  931B             
09671  931B             SCREEN_9_INFO_DATA 
09672  931B  08 0A 00              BYTE    8,10,0,0  ;SALIDAS DE LA PANTALLA (IZQUIERDA, DERECHA, ARRIBA, ABAJO)
09673  931F  04                    BYTE    4
09674  9320  03 01 01              BYTE    SP_PLANO,SP_LR,1,2,LIGHT_RED,22,9,16
09675  9328  05 01 01              BYTE    SP_PALMAS,SP_LR,1,2,CYAN,20,13,13
09676  9330  04 01 00              BYTE    SP_MOSCAS,SP_LR,0,1,WHITE,33,11,27
09677  9338  35 00 01              BYTE    SP_LOCK_3,SP_NONE,1,8,WHITE,9,11
09678  933F             
09679  933F             ; SCREEN 12 - SCREEN 10 SCREEN DATA
09680  933F             SCREEN_10_SCREEN_DATA 
09681  933F  80 81 84              BYTE    $80,$81,$84,$85,$86,$87,$80,$81,$00,$04,$A5,$A6,$A5,$A6,$80,$81,$84,$85,$86,$87,$84,$85,$86,$87,$80,$81,$84,$85,$86,$87
09682  935D  82 83 88              BYTE    $82,$83,$88,$89,$8A,$8B,$82,$83,$00,$04,$A7,$A8,$A7,$A8,$82,$83,$88,$89,$8A,$8B,$88,$89,$8A,$8B,$82,$83,$88,$89,$8A,$8B
09683  937B  8C 8D 00              BYTE    $8C,$8D,$00,$0A,$A9,$AA,$A9,$AA,$80,$81,$94,$95,$96,$97,$00,$08,$80,$81
09684  938D  8E 8F 00              BYTE    $8E,$8F,$00,$0A,$AB,$AC,$AB,$AC,$82,$83,$98,$99,$9A,$9B,$00,$08,$82,$83
09685  939F  90 91 00              BYTE    $90,$91,$00,$07,$84,$85,$86,$87,$00,$03,$8C,$8D,$9C,$9D,$9E,$9F,$00,$08,$A5,$A6
09686  93B3  92 93 00              BYTE    $92,$93,$00,$07,$88,$89,$8A,$8B,$00,$03,$8E,$8F,$00,$0C,$A7,$A8
09687  93C3  8C 8D 00              BYTE    $8C,$8D,$00,$0E,$90,$91,$00,$0C,$A9,$AA
09688  93CD  8E 8F 00              BYTE    $8E,$8F,$00,$0E,$92,$93,$00,$0C,$AB,$AC
09689  93D7  90 91 84              BYTE    $90,$91,$84,$85,$86,$87,$00,$0A,$80,$81,$00,$0C,$A5,$A6
09690  93E5  92 93 88              BYTE    $92,$93,$88,$89,$8A,$8B,$00,$0A,$82,$83,$00,$06,$F9,$FB,$FC,$FA,$20,$20,$A7,$A8
09691  93F9  00 0A 80              BYTE    $00,$0A,$80,$81,$84,$85,$86,$87,$A5,$A6,$A0,$00,$05,$84,$85,$86,$87,$80,$81,$A9,$AA
09692  940E  00 0A 82              BYTE    $00,$0A,$82,$83,$88,$89,$8A,$8B,$A7,$A8,$A1,$A2,$A3,$A4,$20,$20,$88,$89,$8A,$8B,$82,$83,$AB,$AC
09693  9426  00 10 A9              BYTE    $00,$10,$A9,$AA,$84,$85,$86,$87,$84,$85,$86,$87,$84,$85,$86,$87,$80,$81
09694  9438  00 10 AB              BYTE    $00,$10,$AB,$AC,$88,$89,$8A,$8B,$88,$89,$8A,$8B,$88,$89,$8A,$8B,$82,$83
09695  944A  84 85 86              BYTE    $84,$85,$86,$87,$80,$81,$84,$85,$86,$87,$80,$81,$84,$85,$86,$87,$84,$85,$86,$87,$80,$81,$84,$85,$86,$87,$80,$81,$84,$85,$86,$87
09696  946A  88 89 8A              BYTE    $88,$89,$8A,$8B,$82,$83,$88,$89,$8A,$8B,$82,$83,$88,$89,$8A,$8B,$88,$89,$8A,$8B,$82,$83,$88,$89,$8A,$8B,$82,$83,$88,$89,$8A,$8B
09697  948A  FF                    BYTE    $FF
09698  948B             
09699  948B             ; SCREEN 12 - SCREEN 10 COLOUR DATA
09700  948B             SCREEN_10_COLOUR_DATA 
09701  948B  73 30 F3              BYTE    $73,$30,$F3,$33
09702  948F  73 30 F3              BYTE    $73,$30,$F3,$33
09703  9493  13 90 33              BYTE    $13,$90,$33,$17,$35,$70,$17
09704  949A  13 90 33              BYTE    $13,$90,$33,$17,$35,$70,$17
09705  94A1  13 60 37              BYTE    $13,$60,$37,$20,$17,$35,$70,$17
09706  94A9  13 60 37              BYTE    $13,$60,$37,$20,$17,$B0,$17
09707  94B0  13 D0 17              BYTE    $13,$D0,$17,$B0,$17
09708  94B5  13 D0 17              BYTE    $13,$D0,$17,$B0,$17
09709  94BA  53 90 17              BYTE    $53,$90,$17,$B0,$17
09710  94BF  53 90 17              BYTE    $53,$90,$17,$50,$31,$10,$17
09711  94C6  90 77 01              BYTE    $90,$77,$01,$40,$51,$17
09712  94CC  90 77 31              BYTE    $90,$77,$31,$10,$51,$17
09713  94D2  F0 17 B1              BYTE    $F0,$17,$B1,$17
09714  94D6  F0 17 B1              BYTE    $F0,$17,$B1,$17
09715  94DA  F7 F7                 BYTE    $F7,$F7
09716  94DC  F7 F7                 BYTE    $F7,$F7
09717  94DE  FF                    BYTE    $FF
09718  94DF             
09719  94DF             SCREEN_10_INFO_DATA 
09720  94DF  09 00 0B              BYTE    9,0,11,0  ;SALIDAS DE LA PANTALLA (IZQUIERDA, DERECHA, ARRIBA, ABAJO)
09721  94E3  05                    BYTE    5
09722  94E4  06 01 01              BYTE    SP_SERPIENTE,SP_LR,1,1,GREEN,19,9,14
09723  94EC  01 04 01              BYTE    SP_GOTA,SP_D,1,3,WHITE,9,3,7
09724  94F4  08 03 02              BYTE    SP_ARANA,SP_UD,2,1,WHITE,24,9,6
09725  94FC  0F 00 00              BYTE    SP_DIAMANTE_L,SP_NONE,0,1,WHITE,29,8
09726  9503  10 00 00              BYTE    SP_DIAMANTE_R,SP_NONE,0,1,WHITE,30,8
09727  950A             
09728  950A             ; SCREEN 13 - SCREEN 11 SCREEN DATA
09729  950A             SCREEN_11_SCREEN_DATA 
09730  950A  A5 A6 00              BYTE    $A5,$A6,$00,$06,$84,$85,$86,$87,$84,$85,$86,$87,$B1,$B2,$84,$85,$86,$87,$84,$85,$86,$87,$00,$04,$A5,$A6
09731  9524  A7 A8 00              BYTE    $A7,$A8,$00,$06,$88,$89,$8A,$8B,$88,$89,$8A,$8B,$C3,$C4,$88,$89,$8A,$8B,$88,$89,$8A,$8B,$00,$04,$A7,$A8
09732  953E  A9 AA 00              BYTE    $A9,$AA,$00,$0E,$C5,$C6,$00,$0C,$A9,$AA
09733  9548  AB AC 00              BYTE    $AB,$AC,$00,$1C,$AB,$AC
09734  954E  80 81 84              BYTE    $80,$81,$84,$85,$86,$87,$00,$16,$80,$81,$A5,$A6
09735  955A  82 83 88              BYTE    $82,$83,$88,$89,$8A,$8B,$00,$16,$82,$83,$A7,$A8
09736  9566  A5 A6 00              BYTE    $A5,$A6,$00,$04,$84,$85,$86,$87,$00,$0C,$80,$81,$84,$85,$86,$87,$20,$20,$A9,$AA
09737  957A  A7 A8 00              BYTE    $A7,$A8,$00,$04,$88,$89,$8A,$8B,$00,$0C,$82,$83,$88,$89,$8A,$8B,$20,$20,$AB,$AC
09738  958E  A9 AA 02              BYTE    $A9,$AA,$02,$03,$05,$06,$00,$18,$80,$81
09739  9598  AB AC 07              BYTE    $AB,$AC,$07,$08,$0A,$0B,$00,$03,$84,$85,$86,$87,$00,$11,$82,$83
09740  95A8  A5 A6 0D              BYTE    $A5,$A6,$0D,$0F,$11,$12,$00,$03,$88,$89,$8A,$8B,$00,$06,$84,$85,$86,$87,$00,$07,$A5,$A6
09741  95BE  A7 A8 15              BYTE    $A7,$A8,$15,$17,$18,$19,$00,$0A,$C3,$C4,$20,$88,$89,$8A,$8B,$00,$07,$A7,$A8
09742  95D1  A9 AA 54              BYTE    $A9,$AA,$54,$55,$56,$57,$00,$0A,$C5,$C6,$00,$0C,$A9,$AA
09743  95DF  AB AC 58              BYTE    $AB,$AC,$58,$59,$5A,$5B,$00,$0A,$B1,$B2,$00,$0C,$AB,$AC
09744  95ED  84 85 86              BYTE    $84,$85,$86,$87,$84,$85,$86,$87,$00,$04,$84,$85,$86,$87,$84,$85,$86,$87,$80,$81,$84,$85,$86,$87,$84,$85,$86,$87,$80,$81
09745  960B  88 89 8A              BYTE    $88,$89,$8A,$8B,$88,$89,$8A,$8B,$00,$04,$88,$89,$8A,$8B,$88,$89,$8A,$8B,$82,$83,$88,$89,$8A,$8B,$88,$89,$8A,$8B,$82,$83
09746  9629  FF                    BYTE    $FF
09747  962A             
09748  962A             ; SCREEN 13 - SCREEN 11 COLOUR DATA
09749  962A             SCREEN_11_COLOUR_DATA 
09750  962A  17 10 21              BYTE    $17,$10,$21,$87,$11,$77,$30,$17
09751  9632  17 10 21              BYTE    $17,$10,$21,$87,$15,$77,$30,$17
09752  963A  17 D0 15              BYTE    $17,$D0,$15,$B0,$17
09753  963F  17 F0 B0              BYTE    $17,$F0,$B0,$17
09754  9643  17 31 F0              BYTE    $17,$31,$F0,$50,$11,$17
09755  9649  17 31 F0              BYTE    $17,$31,$F0,$50,$11,$17
09756  964F  17 30 31              BYTE    $17,$30,$31,$B0,$51,$10,$17
09757  9656  17 30 31              BYTE    $17,$30,$31,$B0,$51,$10,$17
09758  965D  17 33 F0              BYTE    $17,$33,$F0,$70,$17
09759  9662  17 13 01              BYTE    $17,$13,$01,$03,$20,$31,$F0,$00,$17
09760  966B  17 03 21              BYTE    $17,$03,$21,$20,$31,$50,$31,$60,$17
09761  9674  17 03 21              BYTE    $17,$03,$21,$90,$15,$00,$31,$60,$17
09762  967D  17 03 21              BYTE    $17,$03,$21,$90,$15,$B0,$17
09763  9684  17 33 80              BYTE    $17,$33,$80,$21,$B0,$17
09764  968A  71 30 F1              BYTE    $71,$30,$F1,$31
09765  968E  71 30 F1              BYTE    $71,$30,$F1,$31
09766  9692  FF                    BYTE    $FF
09767  9693             
09768  9693             SCREEN_11_INFO_DATA 
09769  9693  00 00 0C              BYTE    0,0,12,10  ;SALIDAS DE LA PANTALLA (IZQUIERDA, DERECHA, ARRIBA, ABAJO)
09770  9697  03                    BYTE    3
09771  9698  01 04 01              BYTE    SP_GOTA,SP_D,1,3,CYAN,16,3,8
09772  96A0  0E 03 01              BYTE    SP_RAYO,SP_UD,1,2,WHITE,21,10,3
09773  96A8  0E 03 00              BYTE    SP_RAYO,SP_UD,0,2,WHITE,21,10,3
09774  96B0             
09775  96B0             ; SCREEN 14 - SCREEN 12 SCREEN DATA
09776  96B0             SCREEN_12_SCREEN_DATA 
09777  96B0  84 85 86              BYTE    $84,$85,$86,$87,$84,$85,$86,$87,$84,$85,$86,$87,$80,$81,$84,$85,$86,$87,$84,$85,$86,$87,$84,$85,$86,$87,$80,$81,$84,$85,$86,$87
09778  96D0  88 89 8A              BYTE    $88,$89,$8A,$8B,$88,$89,$8A,$8B,$88,$89,$8A,$8B,$82,$83,$88,$89,$8A,$8B,$88,$89,$8A,$8B,$88,$89,$8A,$8B,$82,$83,$88,$89,$8A,$8B
09779  96F0  F4 F5 00              BYTE    $F4,$F5,$00,$09,$68,$68,$F4,$F5,$6D,$6E,$6F,$70,$71,$72,$80,$81,$68,$68,$00,$05,$F4,$F5
09780  9706  F6 F7 00              BYTE    $F6,$F7,$00,$09,$68,$68,$F6,$F7,$73,$74,$75,$76,$77,$78,$82,$83,$68,$68,$00,$05,$F6,$F7
09781  971C  F8 F9 00              BYTE    $F8,$F9,$00,$0B,$F8,$F9,$79,$68,$7A,$7B,$7C,$7D,$F4,$F5,$00,$07,$F8,$F9
09782  972E  FA FB 00              BYTE    $FA,$FB,$00,$07,$B1,$B2,$BC,$B1,$FA,$FB,$7E,$7F,$C6,$C7,$C8,$C9,$F6,$F7,$00,$07,$FA,$FB
09783  9744  F4 F5 00              BYTE    $F4,$F5,$00,$05,$84,$85,$86,$87,$84,$85,$86,$87,$CA,$CB,$CC,$CD,$CE,$7D,$F8,$F9,$00,$07,$80,$81
09784  975C  F6 F7 00              BYTE    $F6,$F7,$00,$04,$B1,$88,$89,$8A,$8B,$88,$89,$8A,$8B,$CF,$D0,$D1,$D2,$D3,$7D,$FA,$FB,$B1,$B2,$BC,$00,$04,$82,$83
09785  9778  F8 F9 00              BYTE    $F8,$F9,$00,$0D,$D4,$D5,$D6,$DF,$E0,$E1,$80,$81,$00,$07,$F4,$F5
09786  9788  FA FB 00              BYTE    $FA,$FB,$00,$0D,$E2,$E3,$E4,$E5,$E6,$E7,$82,$83,$00,$07,$F6,$F7
09787  9798  80 81 00              BYTE    $80,$81,$00,$0D,$E8,$E9,$EA,$EB,$EC,$ED,$F4,$F5,$00,$07,$F8,$F9
09788  97A8  82 83 B1              BYTE    $82,$83,$B1,$B2,$BC,$B1,$00,$09,$EE,$EF,$F0,$F1,$F2,$F3,$F6,$F7,$00,$04,$B2,$BC,$B1,$FA,$FB
09789  97BF  F4 F5 00              BYTE    $F4,$F5,$00,$0D,$84,$85,$86,$87,$80,$81,$F8,$F9,$00,$07,$F4,$F5
09790  97CF  F6 F7 00              BYTE    $F6,$F7,$00,$0D,$88,$89,$8A,$8B,$82,$83,$FA,$FB,$00,$07,$F6,$F7
09791  97DF  F8 F9 00              BYTE    $F8,$F9,$00,$09,$80,$81,$84,$85,$86,$87,$84,$85,$86,$87,$80,$81,$00,$07,$F8,$F9
09792  97F3  FA FB 00              BYTE    $FA,$FB,$00,$06,$B1,$B2,$BC,$82,$83,$88,$89,$8A,$8B,$88,$89,$8A,$8B,$82,$83,$B2,$BC,$B1,$00,$04,$FA,$FB
09793  980D  FF                    BYTE    $FF
09794  980E             
09795  980E             ; SCREEN 14 - SCREEN 12 COLOUR DATA
09796  980E             SCREEN_12_COLOUR_DATA 
09797  980E  F7 F7                 BYTE    $F7,$F7
09798  9810  F7 F7                 BYTE    $F7,$F7
09799  9812  17 80 16              BYTE    $17,$80,$16,$15,$51,$15,$16,$40,$15
09800  981B  17 80 16              BYTE    $17,$80,$16,$15,$51,$15,$16,$40,$15
09801  9824  17 A0 15              BYTE    $17,$A0,$15,$51,$15,$60,$15
09802  982B  17 30 61              BYTE    $17,$30,$61,$15,$51,$15,$60,$15
09803  9833  17 30 01              BYTE    $17,$30,$01,$75,$51,$15,$60,$15
09804  983B  17 30 85              BYTE    $17,$30,$85,$51,$15,$21,$30,$15
09805  9843  17 C0 51              BYTE    $17,$C0,$51,$15,$60,$15
09806  9849  17 C0 51              BYTE    $17,$C0,$51,$15,$60,$15
09807  984F  17 C0 51              BYTE    $17,$C0,$51,$15,$60,$15
09808  9855  17 35 80              BYTE    $17,$35,$80,$51,$15,$30,$21,$15
09809  985D  17 C0 51              BYTE    $17,$C0,$51,$15,$60,$15
09810  9863  17 C0 51              BYTE    $17,$C0,$51,$15,$60,$15
09811  9869  17 80 91              BYTE    $17,$80,$91,$15,$60,$15
09812  986F  17 50 25              BYTE    $17,$50,$25,$91,$15,$21,$30,$15
09813  9877  FF                    BYTE    $FF
09814  9878             
09815  9878             SCREEN_12_INFO_DATA 
09816  9878  00 00 00              BYTE    0,0,0,11  ;SALIDAS DE LA PANTALLA (IZQUIERDA, DERECHA, ARRIBA, ABAJO)
09817  987C  05                    BYTE    5
09818  987D  04 01 02              BYTE    SP_MOSCAS,SP_LR,2,1,WHITE,12,5,6
09819  9885  02 01 01              BYTE    SP_MURCIELAGO,SP_LR,1,1,CYAN,18,9,6
09820  988D  01 04 03              BYTE    SP_GOTA,SP_D,3,4,YELLOW,33,3,10
09821  9895  36 00 01              BYTE    SP_LOCK_4,SP_NONE,1,8,WHITE,15,3
09822  989C  5E 00 01              BYTE    SP_KEY_4,SP_NONE,1,1,WHITE,27,3
09823  98A3             
09824  98A3             ; SCREEN 16 - SCREEN 13 SCREEN DATA
09825  98A3             SCREEN_13_SCREEN_DATA 
09826  98A3  50 51 52              BYTE    $50,$51,$52,$53,$50,$51,$52,$53,$50,$51,$52,$53,$50,$51,$52,$53,$50,$51,$52,$53,$50,$51,$52,$53,$50,$51,$52,$53,$50,$51,$52,$53
09827  98C3  00 05 94              BYTE    $00,$05,$94,$95,$96,$97,$00,$12,$A0,$A1,$A2,$A3,$C7
09828  98D0  00 05 98              BYTE    $00,$05,$98,$99,$9A,$9B,$00,$04,$CB,$CD,$20,$CF,$D1,$D3,$D5,$20,$E3,$E3,$E6,$E7,$20,$20,$90,$91,$92,$93,$C8
09829  98EB  00 05 9C              BYTE    $00,$05,$9C,$9D,$9E,$9F,$00,$04,$CC,$CE,$20,$D0,$D2,$D4,$D6,$20,$E4,$E5,$E8,$E9,$20,$20,$8C,$8D,$8E,$8F,$C9
09830  9906  00 13 EA              BYTE    $00,$13,$EA,$20,$20,$ED,$EE,$00,$03,$88,$89,$8A,$8B,$CA
09831  9914  00 13 EB              BYTE    $00,$13,$EB,$EC,$20,$E3,$E3,$00,$04,$84,$85,$86,$CA
09832  9921  00 1B 80              BYTE    $00,$1B,$80,$81,$82,$83,$C7
09833  9928  00 1C 3B              BYTE    $00,$1C,$3B,$3C,$3D,$C8
09834  992E  20 20 62              BYTE    $20,$20,$62,$60,$61,$63,$00,$04,$62,$60,$61,$63,$00,$0E,$2E,$2F,$3A,$C9
09835  9940  20 20 68              BYTE    $20,$20,$68,$5E,$5F,$68,$00,$04,$68,$5E,$5F,$68,$00,$0C,$29,$2A,$2B,$2C,$2D,$CA
09836  9954  20 20 68              BYTE    $20,$20,$68,$5C,$5D,$68,$00,$04,$68,$5C,$5D,$68,$00,$03,$50,$51,$52,$53,$00,$05,$24,$25,$26,$27,$28,$FB
09837  996E  20 20 58              BYTE    $20,$20,$58,$59,$5A,$5B,$50,$51,$52,$53,$58,$59,$5A,$5B,$00,$0C,$1F,$21,$C4,$C6,$FA,$FC
09838  9984  20 20 54              BYTE    $20,$20,$54,$55,$56,$57,$00,$04,$54,$55,$56,$57,$00,$0C,$1D,$1E,$C3,$C5,$F9,$FB
09839  9998  20 20 50              BYTE    $20,$20,$50,$51,$52,$53,$00,$04,$50,$51,$52,$53,$00,$0C,$1B,$1C,$C4,$C6,$FA,$FC
09840  99AC  C3 C5 F9              BYTE    $C3,$C5,$F9,$FB,$C3,$C5,$F9,$FB,$C3,$C5,$F9,$FB,$C3,$C5,$F9,$FB,$C3,$C5,$F9,$FB,$C3,$C5,$F9,$FB,$C3,$C5,$F9,$FB,$C3,$C5,$F9,$FB
09841  99CC  C4 C6 FA              BYTE    $C4,$C6,$FA,$FC,$C4,$C6,$FA,$FC,$C4,$C6,$FA,$FC,$C4,$C6,$FA,$FC,$C4,$C6,$FA,$FC,$C4,$C6,$FA,$FC,$C4,$C6,$FA,$FC,$C4,$C6,$FA,$FC
09842  99EC  FF                    BYTE    $FF
09843  99ED             
09844  99ED             ; SCREEN 16 - SCREEN 13 COLOUR DATA
09845  99ED             SCREEN_13_COLOUR_DATA 
09846  99ED  F5 F5                 BYTE    $F5,$F5
09847  99EF  30 41 F0              BYTE    $30,$41,$F0,$10,$31,$03
09848  99F5  30 41 20              BYTE    $30,$41,$20,$21,$00,$31,$00,$31,$10,$31,$03
09849  9A00  30 41 20              BYTE    $30,$41,$20,$21,$00,$31,$00,$31,$10,$31,$03
09850  9A0B  B0 21 30              BYTE    $B0,$21,$30,$01,$10,$11,$20,$31,$03
09851  9A14  F0 20 11              BYTE    $F0,$20,$11,$00,$11,$20,$31,$03
09852  9A1C  F0 A0 31              BYTE    $F0,$A0,$31,$03
09853  9A20  F0 A0 31              BYTE    $F0,$A0,$31,$03
09854  9A24  10 31 30              BYTE    $10,$31,$30,$71,$80,$31,$03
09855  9A2B  20 11 50              BYTE    $20,$11,$50,$11,$C0,$41,$03
09856  9A32  20 11 50              BYTE    $20,$11,$50,$11,$30,$3A,$40,$41,$07
09857  9A3B  10 31 3A              BYTE    $10,$31,$3A,$71,$70,$11,$37
09858  9A42  10 31 30              BYTE    $10,$31,$30,$71,$70,$11,$37
09859  9A49  10 3A 30              BYTE    $10,$3A,$30,$7A,$70,$11,$37
09860  9A50  F7 F7                 BYTE    $F7,$F7
09861  9A52  F7 F7                 BYTE    $F7,$F7
09862  9A54  FF                    BYTE    $FF
09863  9A55             
09864  9A55             SCREEN_13_INFO_DATA 
09865  9A55  0E 00 00              BYTE    14,0,0,0  ;SALIDAS DE LA PANTALLA (IZQUIERDA, DERECHA, ARRIBA, ABAJO)
09866  9A59  03                    BYTE    3
09867  9A5A  01 04 00              BYTE    SP_GOTA,SP_D,0,2,YELLOW,8,2,7
09868  9A62  01 04 00              BYTE    SP_GOTA,SP_D,0,3,CYAN,16,2,7
09869  9A6A  08 03 01              BYTE    SP_ARANA,SP_UD,1,1,GREEN,13,10,5
09870  9A72             
09871  9A72             ; SCREEN 17 - SCREEN 14 SCREEN DATA
09872  9A72             SCREEN_14_SCREEN_DATA 
09873  9A72  2C 2D 2E              BYTE    $2C,$2D,$2E,$2F,$2C,$2D,$2E,$2F,$2C,$2D,$2E,$2F,$2C,$2D,$2E,$2F,$2C,$2D,$2E,$2F,$2C,$2D,$2E,$2F,$2C,$2D,$2E,$2F,$2C,$2D,$2E,$2F
09874  9A92  84 85 86              BYTE    $84,$85,$86,$87,$84,$85,$86,$87,$80,$81,$84,$85,$86,$87,$80,$81,$84,$85,$86,$87,$00,$0C
09875  9AA8  88 89 8A              BYTE    $88,$89,$8A,$8B,$88,$89,$8A,$8B,$82,$83,$88,$89,$8A,$8B,$82,$83,$88,$89,$8A,$8B,$00,$0C
09876  9ABE  80 81 84              BYTE    $80,$81,$84,$85,$86,$87,$84,$85,$86,$87,$80,$81,$84,$85,$86,$87,$00,$10
09877  9AD0  82 83 88              BYTE    $82,$83,$88,$89,$8A,$8B,$88,$89,$8A,$8B,$82,$83,$88,$89,$8A,$8B,$00,$10
09878  9AE2  84 85 86              BYTE    $84,$85,$86,$87,$84,$85,$86,$87,$00,$18
09879  9AEC  88 89 8A              BYTE    $88,$89,$8A,$8B,$88,$89,$8A,$8B,$00,$18
09880  9AF6  00 20                 BYTE    $00,$20
09881  9AF8  00 20                 BYTE    $00,$20
09882  9AFA  00 20                 BYTE    $00,$20
09883  9AFC  00 0E D7              BYTE    $00,$0E,$D7,$D9,$DB,$DD,$00,$0E
09884  9B04  00 0E D8              BYTE    $00,$0E,$D8,$DA,$DC,$DE,$00,$0E
09885  9B0C  00 20                 BYTE    $00,$20
09886  9B0E  00 20                 BYTE    $00,$20
09887  9B10  D7 D9 DB              BYTE    $D7,$D9,$DB,$DD,$D7,$D9,$DB,$DD,$D7,$D9,$DB,$DD,$D7,$D9,$DB,$DD,$D7,$D9,$DB,$DD,$D7,$D9,$DB,$DD,$D7,$D9,$DB,$DD,$D7,$D9,$DB,$DD
09888  9B30  D8 DA DC              BYTE    $D8,$DA,$DC,$DE,$D8,$DA,$DC,$DE,$D8,$DA,$DC,$DE,$D8,$DA,$DC,$DE,$D8,$DA,$DC,$DE,$D8,$DA,$DC,$DE,$D8,$DA,$DC,$DE,$D8,$DA,$DC,$DE
09889  9B50  FF                    BYTE    $FF
09890  9B51             
09891  9B51             ; SCREEN 17 - SCREEN 14 COLOUR DATA
09892  9B51             SCREEN_14_COLOUR_DATA 
09893  9B51  F1 F1                 BYTE    $F1,$F1
09894  9B53  F2 32 B0              BYTE    $F2,$32,$B0
09895  9B56  F2 32 B0              BYTE    $F2,$32,$B0
09896  9B59  F2 F0                 BYTE    $F2,$F0
09897  9B5B  F2 F0                 BYTE    $F2,$F0
09898  9B5D  72 F0 70              BYTE    $72,$F0,$70
09899  9B60  72 F0 70              BYTE    $72,$F0,$70
09900  9B63  F0 F0                 BYTE    $F0,$F0
09901  9B65  F0 F0                 BYTE    $F0,$F0
09902  9B67  F0 F0                 BYTE    $F0,$F0
09903  9B69  D0 37 D0              BYTE    $D0,$37,$D0
09904  9B6C  D0 37 D0              BYTE    $D0,$37,$D0
09905  9B6F  F0 F0                 BYTE    $F0,$F0
09906  9B71  F0 F0                 BYTE    $F0,$F0
09907  9B73  F7 F7                 BYTE    $F7,$F7
09908  9B75  F7 F7                 BYTE    $F7,$F7
09909  9B77  FF                    BYTE    $FF
09910  9B78             
09911  9B78             SCREEN_14_INFO_DATA 
09912  9B78  0F 0D 00              BYTE    15,13,0,0  ;SALIDAS DE LA PANTALLA (IZQUIERDA, DERECHA, ARRIBA, ABAJO)
09913  9B7C  03                    BYTE    3
09914  9B7D  06 01 01              BYTE    SP_SERPIENTE,SP_LR,1,2,WHITE,26,13,10
09915  9B85  06 01 00              BYTE    SP_SERPIENTE,SP_LR,0,1,YELLOW,31,13,7
09916  9B8D  06 01 00              BYTE    SP_SERPIENTE,SP_LR,0,1,GREEN,25,13,14
09917  9B95             
09918  9B95             ; SCREEN 18 - SCREEN 15 SCREEN DATA
09919  9B95             SCREEN_15_SCREEN_DATA 
09920  9B95  D7 D9 DB              BYTE    $D7,$D9,$DB,$DD,$2C,$2D,$2E,$2F,$2C,$2D,$2E,$2F,$2C,$2D,$2E,$2F,$2C,$2D,$2E,$2F,$2C,$2D,$2E,$2F,$2C,$2D,$2E,$2F,$2C,$2D,$2E,$2F
09921  9BB5  D8 DA DC              BYTE    $D8,$DA,$DC,$DE,$A0,$A1,$A2,$A3,$00,$06,$84,$85,$86,$87,$84,$85,$86,$87,$84,$85,$86,$87,$84,$85,$86,$87,$80,$81
09922  9BD1  D7 D9 DB              BYTE    $D7,$D9,$DB,$DD,$A4,$A5,$A6,$A7,$00,$06,$88,$89,$8A,$8B,$88,$89,$8A,$8B,$88,$89,$8A,$8B,$88,$89,$8A,$8B,$82,$83
09923  9BED  D8 DA DC              BYTE    $D8,$DA,$DC,$DE,$A8,$A9,$AA,$AB,$00,$08,$A0,$A1,$A2,$A3,$84,$85,$86,$87,$84,$85,$86,$87,$84,$85,$86,$87
09924  9C07  D7 D9 DB              BYTE    $D7,$D9,$DB,$DD,$00,$0C,$A4,$A5,$A6,$A7,$88,$89,$8A,$8B,$88,$89,$8A,$8B,$88,$89,$8A,$8B
09925  9C1D  D8 DA DC              BYTE    $D8,$DA,$DC,$DE,$00,$0C,$A8,$A9,$AA,$AB,$00,$06,$84,$85,$86,$87,$80,$81
09926  9C2F  D7 D9 DB              BYTE    $D7,$D9,$DB,$DD,$00,$16,$88,$89,$8A,$8B,$82,$83
09927  9C3B  D8 DA DC              BYTE    $D8,$DA,$DC,$DE,$00,$1C
09928  9C41  D7 D9 DB              BYTE    $D7,$D9,$DB,$DD,$00,$1C
09929  9C47  D8 DA DC              BYTE    $D8,$DA,$DC,$DE,$00,$1C
09930  9C4D  D7 D9 DB              BYTE    $D7,$D9,$DB,$DD,$00,$1C
09931  9C53  D8 DA DC              BYTE    $D8,$DA,$DC,$DE,$00,$1C
09932  9C59  D7 D9 DB              BYTE    $D7,$D9,$DB,$DD,$00,$1C
09933  9C5F  D8 DA DC              BYTE    $D8,$DA,$DC,$DE,$00,$1C
09934  9C65  D7 D9 DB              BYTE    $D7,$D9,$DB,$DD,$00,$03,$D7,$D9,$DB,$DD,$00,$05,$D7,$D9,$DB,$DD,$D7,$D9,$DB,$DD,$D7,$D9,$DB,$DD,$D7,$D9,$DB,$DD
09935  9C81  D8 DA DC              BYTE    $D8,$DA,$DC,$DE,$00,$03,$D8,$DA,$DC,$DE,$00,$05,$D8,$DA,$DC,$DE,$D8,$DA,$DC,$DE,$D8,$DA,$DC,$DE,$D8,$DA,$DC,$DE
09936  9C9D  FF                    BYTE    $FF
09937  9C9E             
09938  9C9E             ; SCREEN 18 - SCREEN 15 COLOUR DATA
09939  9C9E             SCREEN_15_COLOUR_DATA 
09940  9C9E  F1 F1                 BYTE    $F1,$F1
09941  9CA0  71 50 F2              BYTE    $71,$50,$F2,$12
09942  9CA4  71 50 F2              BYTE    $71,$50,$F2,$12
09943  9CA8  71 70 31              BYTE    $71,$70,$31,$B2
09944  9CAC  31 B0 31              BYTE    $31,$B0,$31,$B2
09945  9CB0  31 B0 31              BYTE    $31,$B0,$31,$50,$52
09946  9CB5  31 F0 50              BYTE    $31,$F0,$50,$52
09947  9CB9  31 F0 B0              BYTE    $31,$F0,$B0
09948  9CBC  31 F0 B0              BYTE    $31,$F0,$B0
09949  9CBF  31 F0 B0              BYTE    $31,$F0,$B0
09950  9CC2  31 F0 B0              BYTE    $31,$F0,$B0
09951  9CC5  31 F0 B0              BYTE    $31,$F0,$B0
09952  9CC8  31 F0 B0              BYTE    $31,$F0,$B0
09953  9CCB  31 F0 B0              BYTE    $31,$F0,$B0
09954  9CCE  31 10 01              BYTE    $31,$10,$01,$47,$30,$F7
09955  9CD4  31 10 01              BYTE    $31,$10,$01,$47,$30,$F7
09956  9CDA  FF                    BYTE    $FF
09957  9CDB             
09958  9CDB             SCREEN_15_INFO_DATA 
09959  9CDB  00 0E 00              BYTE    0,14,0,16  ;SALIDAS DE LA PANTALLA (IZQUIERDA, DERECHA, ARRIBA, ABAJO)
09960  9CDF  03                    BYTE    3
09961  9CE0  01 04 00              BYTE    SP_GOTA,SP_D,0,2,CYAN,31,8,13
09962  9CE8  08 03 01              BYTE    SP_ARANA,SP_UD,1,1,YELLOW,21,13,7
09963  9CF0  02 01 01              BYTE    SP_MURCIELAGO,SP_LR,1,1,WHITE,19,13,9
09964  9CF8             
09965  9CF8             ; SCREEN 19 - SCREEN 16 SCREEN DATA
09966  9CF8             SCREEN_16_SCREEN_DATA 
09967  9CF8  D7 D9 DB              BYTE    $D7,$D9,$DB,$DD,$00,$03,$D7,$D9,$DB,$DD,$00,$05,$D7,$D9,$DB,$DD,$D7,$D9,$DB,$DD,$D7,$D9,$DB,$DD,$D7,$D9,$DB,$DD
09968  9D14  D8 DA DC              BYTE    $D8,$DA,$DC,$DE,$00,$03,$D8,$DA,$DC,$DE,$00,$05,$D8,$DA,$DC,$DE,$D8,$DA,$DC,$DE,$D8,$DA,$DC,$DE,$D8,$DA,$DC,$DE
09969  9D30  D7 D9 DB              BYTE    $D7,$D9,$DB,$DD,$00,$03,$D7,$D9,$DB,$DD,$00,$05,$C2,$20,$20,$68,$68,$00,$03,$D7,$D9,$DB,$DD,$D7,$D9,$DB,$DD
09970  9D4B  D8 DA DC              BYTE    $D8,$DA,$DC,$DE,$00,$03,$D8,$DA,$DC,$DE,$00,$05,$C3,$20,$20,$68,$68,$00,$03,$D8,$DA,$DC,$DE,$D8,$DA,$DC,$DE
09971  9D66  D7 D9 DB              BYTE    $D7,$D9,$DB,$DD,$00,$03,$D7,$D9,$DB,$DD,$00,$05,$C4,$00,$09,$6D,$6E,$6F,$70,$71,$72
09972  9D7B  D8 DA DC              BYTE    $D8,$DA,$DC,$DE,$00,$03,$D8,$DA,$DC,$DE,$00,$05,$C2,$00,$09,$73,$74,$75,$76,$77,$78
09973  9D90  D7 D9 DB              BYTE    $D7,$D9,$DB,$DD,$00,$03,$D7,$D9,$DB,$DD,$00,$05,$C3,$00,$09,$79,$68,$7A,$7B,$7C,$7D
09974  9DA5  D8 DA DC              BYTE    $D8,$DA,$DC,$DE,$00,$03,$D8,$DA,$DC,$DE,$00,$05,$C4,$00,$09,$7E,$7F,$C6,$C7,$C8,$C9
09975  9DBA  D7 D9 DB              BYTE    $D7,$D9,$DB,$DD,$00,$03,$D7,$D9,$DB,$DD,$D7,$D9,$DB,$DD,$D7,$D9,$DB,$DD,$00,$07,$CA,$CB,$CC,$CD,$CE,$7D
09976  9DD4  D8 DA DC              BYTE    $D8,$DA,$DC,$DE,$00,$03,$D8,$DA,$DC,$DE,$D8,$DA,$DC,$DE,$D8,$DA,$DC,$DE,$00,$07,$CF,$D0,$D1,$D2,$D3,$7D
09977  9DEE  D7 D9 DB              BYTE    $D7,$D9,$DB,$DD,$00,$0E,$D7,$D9,$DB,$DD,$00,$04,$D4,$D5,$D6,$DF,$E0,$E1
09978  9E00  D8 DA DC              BYTE    $D8,$DA,$DC,$DE,$00,$0E,$D8,$DA,$DC,$DE,$00,$04,$E2,$E3,$E4,$E5,$E6,$E7
09979  9E12  D7 D9 DB              BYTE    $D7,$D9,$DB,$DD,$00,$16,$E8,$E9,$EA,$EB,$EC,$ED
09980  9E1E  D8 DA DC              BYTE    $D8,$DA,$DC,$DE,$00,$16,$EE,$EF,$F0,$F1,$F2,$F3
09981  9E2A  D7 D9 DB              BYTE    $D7,$D9,$DB,$DD,$D7,$D9,$DB,$DD,$D7,$D9,$DB,$DD,$D7,$D9,$DB,$DD,$D7,$D9,$DB,$DD,$D7,$D9,$DB,$DD,$D7,$D9,$DB,$DD,$D7,$D9,$DB,$DD
09982  9E4A  D8 DA DC              BYTE    $D8,$DA,$DC,$DE,$D8,$DA,$DC,$DE,$D8,$DA,$DC,$DE,$D8,$DA,$DC,$DE,$D8,$DA,$DC,$DE,$D8,$DA,$DC,$DE,$D8,$DA,$DC,$DE,$D8,$DA,$DC,$DE
09983  9E6A  FF                    BYTE    $FF
09984  9E6B             
09985  9E6B             ; SCREEN 19 - SCREEN 16 COLOUR DATA
09986  9E6B             SCREEN_16_COLOUR_DATA 
09987  9E6B  31 20 35              BYTE    $31,$20,$35,$30,$F1,$01
09988  9E71  31 20 35              BYTE    $31,$20,$35,$30,$F1,$01
09989  9E77  31 20 35              BYTE    $31,$20,$35,$40,$01,$10,$16,$20,$71
09990  9E80  31 20 35              BYTE    $31,$20,$35,$40,$01,$10,$16,$20,$71
09991  9E89  31 20 35              BYTE    $31,$20,$35,$40,$01,$80,$53
09992  9E90  31 20 35              BYTE    $31,$20,$35,$40,$01,$80,$53
09993  9E97  31 20 35              BYTE    $31,$20,$35,$40,$01,$80,$53
09994  9E9E  31 20 35              BYTE    $31,$20,$35,$40,$01,$80,$53
09995  9EA5  31 20 B5              BYTE    $31,$20,$B5,$60,$53
09996  9EAA  31 20 B5              BYTE    $31,$20,$B5,$60,$53
09997  9EAF  31 D0 31              BYTE    $31,$D0,$31,$30,$53
09998  9EB4  31 D0 31              BYTE    $31,$D0,$31,$30,$53
09999  9EB9  31 F0 50              BYTE    $31,$F0,$50,$53
10000  9EBD  31 F0 50              BYTE    $31,$F0,$50,$53
10001  9EC1  F5 F5                 BYTE    $F5,$F5
10002  9EC3  F5 F5                 BYTE    $F5,$F5
10003  9EC5  FF                    BYTE    $FF
10004  9EC6             
10005  9EC6             SCREEN_16_INFO_DATA 
10006  9EC6  00 11 0F              BYTE    0,17,15,0  ;SALIDAS DE LA PANTALLA (IZQUIERDA, DERECHA, ARRIBA, ABAJO)
10007  9ECA  05                    BYTE    5
10008  9ECB  0C 01 01              BYTE    SP_BOLA,SP_LR,1,1,RED,21,13,12
10009  9ED3  04 01 01              BYTE    SP_MOSCAS,SP_LR,1,1,CYAN,27,5,22
10010  9EDB  01 04 00              BYTE    SP_GOTA,SP_D,0,2,YELLOW,29,5,13
10011  9EE3  0A 00 00              BYTE    SP_PINCHOS_1,SP_NONE,0,0,BLUE,17,7
10012  9EEA                        ;BYTE    SP_PINCHOS_2,SP_NONE,0,0,BLUE,18,7,18,7
10013  9EEA  5F 00 00              BYTE    SP_KEY_5,SP_NONE,0,0,WHITE,23,3
10014  9EF1             
10015  9EF1             ; SCREEN 20 - SCREEN 17 SCREEN DATA
10016  9EF1             SCREEN_17_SCREEN_DATA 
10017  9EF1  D7 D9 DB              BYTE    $D7,$D9,$DB,$DD,$D7,$D9,$DB,$DD,$D7,$D9,$DB,$DD,$D7,$D9,$DB,$DD,$D7,$D9,$DB,$DD,$D7,$D9,$DB,$DD,$D7,$D9,$DB,$DD,$D7,$D9,$DB,$DD
10018  9F11  D8 DA DC              BYTE    $D8,$DA,$DC,$DE,$D8,$DA,$DC,$DE,$D8,$DA,$DC,$DE,$D8,$DA,$DC,$DE,$D8,$DA,$DC,$DE,$D8,$DA,$DC,$DE,$D8,$DA,$DC,$DE,$D8,$DA,$DC,$DE
10019  9F31  D7 D9 DB              BYTE    $D7,$D9,$DB,$DD,$D7,$D9,$DB,$DD,$D7,$D9,$DB,$DD,$D7,$D9,$DB,$DD,$00,$06,$D7,$D9,$DB,$DD,$D7,$D9,$DB,$DD,$62,$65
10020  9F4D  D8 DA DC              BYTE    $D8,$DA,$DC,$DE,$D8,$DA,$DC,$DE,$D8,$DA,$DC,$DE,$D8,$DA,$DC,$DE,$00,$06,$D8,$DA,$DC,$DE,$D8,$DA,$DC,$DE,$63,$66
10021  9F69  6D 6E 6F              BYTE    $6D,$6E,$6F,$70,$71,$72,$62,$65,$D7,$D9,$DB,$DD,$00,$0E,$D7,$D9,$DB,$DD,$68,$67
10022  9F7D  73 74 75              BYTE    $73,$74,$75,$76,$77,$78,$63,$66,$D8,$DA,$DC,$DE,$00,$0E,$D8,$DA,$DC,$DE,$64,$69
10023  9F91  79 68 7A              BYTE    $79,$68,$7A,$7B,$7C,$7D,$68,$67,$00,$12,$62,$65,$62,$65,$62,$65
10024  9FA1  7E 7F C6              BYTE    $7E,$7F,$C6,$C7,$C8,$C9,$64,$69,$00,$12,$63,$66,$63,$66,$63,$66
10025  9FB1  CA CB CC              BYTE    $CA,$CB,$CC,$CD,$CE,$7D,$00,$14,$68,$67,$68,$67,$68,$67
10026  9FBF  CF D0 D1              BYTE    $CF,$D0,$D1,$D2,$D3,$7D,$00,$14,$64,$69,$64,$69,$64,$69
10027  9FCD  D4 D5 D6              BYTE    $D4,$D5,$D6,$DF,$E0,$E1,$00,$16,$68,$68,$62,$65
10028  9FD9  E2 E3 E4              BYTE    $E2,$E3,$E4,$E5,$E6,$E7,$00,$16,$68,$68,$63,$66
10029  9FE5  E8 E9 EA              BYTE    $E8,$E9,$EA,$EB,$EC,$ED,$00,$18,$68,$67
10030  9FEF  EE EF F0              BYTE    $EE,$EF,$F0,$F1,$F2,$F3,$00,$0D,$6A,$6B,$6B,$6B,$6B,$6B,$6C,$00,$04,$64,$69
10031  A002  D7 D9 DB              BYTE    $D7,$D9,$DB,$DD,$D7,$D9,$DB,$DD,$D7,$D9,$DB,$DD,$D7,$D9,$DB,$DD,$D7,$D9,$DB,$DD,$D7,$D9,$DB,$DD,$D7,$D9,$DB,$DD,$D7,$D9,$DB,$DD
10032  A022  D8 DA DC              BYTE    $D8,$DA,$DC,$DE,$D8,$DA,$DC,$DE,$D8,$DA,$DC,$DE,$D8,$DA,$DC,$DE,$D8,$DA,$DC,$DE,$D8,$DA,$DC,$DE,$D8,$DA,$DC,$DE,$D8,$DA,$DC,$DE
10033  A042  FF                    BYTE    $FF
10034  A043             
10035  A043             ; SCREEN 20 - SCREEN 17 COLOUR DATA
10036  A043             SCREEN_17_COLOUR_DATA 
10037  A043  F7 F7                 BYTE    $F7,$F7
10038  A045  F7 F7                 BYTE    $F7,$F7
10039  A047  F7 50 97              BYTE    $F7,$50,$97
10040  A04A  F7 50 97              BYTE    $F7,$50,$97
10041  A04D  52 57 D0              BYTE    $52,$57,$D0,$57
10042  A051  52 57 D0              BYTE    $52,$57,$D0,$57
10043  A055  52 17 F0              BYTE    $52,$17,$F0,$10,$57
10044  A05A  52 17 F0              BYTE    $52,$17,$F0,$10,$57
10045  A05F  52 F0 30              BYTE    $52,$F0,$30,$57
10046  A063  52 F0 30              BYTE    $52,$F0,$30,$57
10047  A067  52 F0 50              BYTE    $52,$F0,$50,$16,$17
10048  A06C  52 F0 50              BYTE    $52,$F0,$50,$16,$17
10049  A071  52 F0 70              BYTE    $52,$F0,$70,$17
10050  A075  52 C0 81              BYTE    $52,$C0,$81,$06,$00,$17
10051  A07B  F3 F3                 BYTE    $F3,$F3
10052  A07D  F3 F3                 BYTE    $F3,$F3
10053  A07F  FF                    BYTE    $FF
10054  A080             
10055  A080             SCREEN_17_INFO_DATA 
10056  A080  00 00 00              BYTE    0,0,0,0  ;SALIDAS DE LA PANTALLA (IZQUIERDA, DERECHA, ARRIBA, ABAJO)
10057  A084  05                    BYTE    5
10058  A085  01 04 00              BYTE    SP_GOTA,SP_D,0,3,GREEN,14,7,13
10059  A08D  01 04 00              BYTE    SP_GOTA,SP_D,0,2,WHITE,17,5,13
10060  A095  01 04 00              BYTE    SP_GOTA,SP_D,0,2,LIGHT_RED,21,3,13
10061  A09D  34 00 01              BYTE    SP_LOCK_2,SP_NONE,1,8,WHITE,32,11
10062  A0A4  08 01 01              BYTE    SP_ARANA,SP_LR,1,2,GREEN,28,12,24
10063  A0AC             
10064  A0AC             ; SCREEN 21 - SCREEN 18 SCREEN DATA
10065  A0AC             SCREEN_18_SCREEN_DATA 
10066  A0AC  7D 7E 7F              BYTE    $7D,$7E,$7F,$7D,$7D,$7E,$7F,$7D,$7D,$7E,$7F,$7D,$7D,$7E,$7F,$7D,$7D,$7E,$7F,$7D,$7D,$7E,$7F,$7D,$7D,$7E,$7F,$7D,$7D,$7E,$7F,$7D
10067  A0CC  44 00 1E              BYTE    $44,$00,$1E,$44
10068  A0D0  49 00 1E              BYTE    $49,$00,$1E,$49
10069  A0D4  4A 00 1E              BYTE    $4A,$00,$1E,$4A
10070  A0D8  4B 7D 7E              BYTE    $4B,$7D,$7E,$7F,$7D,$7D,$7E,$7F,$7D,$7D,$7E,$7F,$7D,$7D,$7E,$7F,$7D,$7D,$7E,$7F,$7D,$7D,$7E,$7F,$7D,$7D,$00,$05,$4B
10071  A0F5  44 00 1E              BYTE    $44,$00,$1E,$44
10072  A0F9  49 00 1E              BYTE    $49,$00,$1E,$49
10073  A0FD  4A 00 04              BYTE    $4A,$00,$04,$7D,$7E,$7F,$7D,$7D,$7E,$7F,$7D,$7D,$7E,$7F,$7D,$7D,$7E,$7F,$7D,$7D,$7E,$7F,$7D,$7D,$7E,$7D,$7D,$7E,$7F,$4A
10074  A11B  4B 00 07              BYTE    $4B,$00,$07,$7D,$7E,$7F,$7D,$7D,$7E,$7F,$7D,$00,$05,$7D,$7E,$7F,$44,$44,$7E,$7F,$7D,$20,$20,$4B
10075  A133  44 00 09              BYTE    $44,$00,$09,$7D,$44,$44,$7D,$00,$09,$7D,$49,$49,$7D,$00,$04,$44
10076  A143  49 02 03              BYTE    $49,$02,$03,$05,$06,$00,$06,$49,$49,$00,$0B,$4A,$4A,$00,$05,$49
10077  A153  4A 07 08              BYTE    $4A,$07,$08,$0A,$0B,$00,$06,$4A,$4A,$00,$0B,$4B,$4B,$00,$05,$4A
10078  A163  4B 0D 0F              BYTE    $4B,$0D,$0F,$11,$12,$00,$06,$4B,$4B,$00,$12,$4B
10079  A16F  4A 15 17              BYTE    $4A,$15,$17,$18,$19,$00,$1A,$4A
10080  A177  4B 54 55              BYTE    $4B,$54,$55,$56,$57,$00,$1A,$4B
10081  A17F  7D 58 59              BYTE    $7D,$58,$59,$5A,$5B,$7E,$7F,$7D,$7D,$7E,$7F,$7D,$7D,$7E,$7F,$7D,$7D,$7E,$7F,$7D,$7D,$7E,$7F,$7D,$00,$04,$7D,$7D,$7E,$7F
10082  A19D  FF                    BYTE    $FF
10083  A19E             
10084  A19E             ; SCREEN 21 - SCREEN 18 COLOUR DATA
10085  A19E             SCREEN_18_COLOUR_DATA 
10086  A19E  F3 F3                 BYTE    $F3,$F3
10087  A1A0  03 F0 D0              BYTE    $03,$F0,$D0,$03
10088  A1A4  03 F0 D0              BYTE    $03,$F0,$D0,$03
10089  A1A8  03 F0 D0              BYTE    $03,$F0,$D0,$03
10090  A1AC  03 F1 81              BYTE    $03,$F1,$81,$40,$03
10091  A1B1  03 F0 D0              BYTE    $03,$F0,$D0,$03
10092  A1B5  03 F0 D0              BYTE    $03,$F0,$D0,$03
10093  A1B9  03 10 F1              BYTE    $03,$10,$F1,$B1,$03
10094  A1BE  53 10 71              BYTE    $53,$10,$71,$40,$21,$15,$21,$10,$03
10095  A1C7  63 20 01              BYTE    $63,$20,$01,$15,$01,$80,$01,$15,$01,$30,$03
10096  A1D2  03 35 01              BYTE    $03,$35,$01,$40,$15,$A0,$15,$40,$03
10097  A1DB  03 15 07              BYTE    $03,$15,$07,$05,$01,$40,$15,$A0,$15,$40,$03
10098  A1E6  03 05 27              BYTE    $03,$05,$27,$01,$40,$15,$F0,$10,$03
10099  A1EF  03 05 27              BYTE    $03,$05,$27,$03,$F0,$80,$03
10100  A1F6  03 05 27              BYTE    $03,$05,$27,$F0,$90,$03
10101  A1FC  01 35 F1              BYTE    $01,$35,$F1,$21,$30,$31
10102  A202  FF                    BYTE    $FF
10103  A203             
10104  A203             SCREEN_18_INFO_DATA 
10105  A203  00 00 00              BYTE    0,0,0,19  ;SALIDAS DE LA PANTALLA (IZQUIERDA, DERECHA, ARRIBA, ABAJO)
10106  A207  03                    BYTE    3
10107  A208  08 01 00              BYTE    SP_ARANA,SP_LR,0,1,GREEN,34,6,29
10108  A210  0C 03 00              BYTE    SP_BOLA,SP_UD,0,1,CYAN,22,14,9
10109  A218  09 01 01              BYTE    SP_MOMIA,SP_LR,1,2,YELLOW,28,14,23
10110  A220             
10111  A220             ; SCREEN 22 - SCREEN 19 SCREEN DATA
10112  A220             SCREEN_19_SCREEN_DATA 
10113  A220  4C 4F 3E              BYTE    $4C,$4F,$3E,$3F,$1F,$21,$2C,$2D,$4C,$4F,$3E,$3F,$4C,$4F,$3E,$3F,$1F,$21,$2C,$2D,$4C,$4F,$3E,$3F,$00,$04,$4C,$4F,$3E,$3F
10114  A23E  4D 4E 75              BYTE    $4D,$4E,$75,$76,$22,$23,$2E,$2F,$4D,$4E,$75,$76,$4D,$4E,$75,$76,$22,$23,$2E,$2F,$4D,$4E,$75,$76,$00,$04,$4D,$4E,$75,$76
10115  A25C  1F 21 2C              BYTE    $1F,$21,$2C,$2D,$00,$18,$4C,$4F,$3E,$3F
10116  A266  22 23 2E              BYTE    $22,$23,$2E,$2F,$00,$18,$4D,$4E,$75,$76
10117  A270  4C 4F 3E              BYTE    $4C,$4F,$3E,$3F,$00,$18,$1F,$21,$2C,$2D
10118  A27A  4D 4E 75              BYTE    $4D,$4E,$75,$76,$00,$18,$22,$23,$2E,$2F
10119  A284  1F 21 2C              BYTE    $1F,$21,$2C,$2D,$C7,$C8,$C9,$CA,$C7,$C8,$C9,$CA,$00,$10,$4C,$4F,$3E,$3F
10120  A296  22 23 2E              BYTE    $22,$23,$2E,$2F,$CB,$CC,$CD,$CE,$CB,$CC,$CD,$CE,$00,$10,$4D,$4E,$75,$76
10121  A2A8  1F 21 2C              BYTE    $1F,$21,$2C,$2D,$CF,$D0,$D1,$D2,$CF,$D0,$D1,$D2,$4C,$4F,$3E,$3F,$1F,$21,$2C,$2D,$00,$08,$1F,$21,$2C,$2D
10122  A2C2  22 23 2E              BYTE    $22,$23,$2E,$2F,$D3,$D4,$D5,$D6,$D3,$D4,$D5,$D6,$4D,$4E,$75,$76,$22,$23,$2E,$2F,$00,$08,$22,$23,$2E,$2F
10123  A2DC  4C 4F 3E              BYTE    $4C,$4F,$3E,$3F,$C7,$C8,$C9,$CA,$00,$14,$4C,$4F,$3E,$3F
10124  A2EA  4D 4E 75              BYTE    $4D,$4E,$75,$76,$CB,$CC,$CD,$CE,$00,$14,$4D,$4E,$75,$76
10125  A2F8  4C 4F 3E              BYTE    $4C,$4F,$3E,$3F,$CF,$D0,$D1,$D2,$00,$14,$4C,$4F,$3E,$3F
10126  A306  4D 4E 75              BYTE    $4D,$4E,$75,$76,$D3,$D4,$D5,$D6,$00,$14,$4D,$4E,$75,$76
10127  A314  1F 21 2C              BYTE    $1F,$21,$2C,$2D,$1F,$21,$2C,$2D,$00,$04,$1F,$21,$2C,$2D,$4C,$4F,$3E,$3F,$1F,$21,$2C,$2D,$00,$04,$1F,$21,$2C,$2D
10128  A330  22 23 2E              BYTE    $22,$23,$2E,$2F,$22,$23,$2E,$2F,$00,$04,$22,$23,$2E,$2F,$4D,$4E,$75,$76,$22,$23,$2E,$2F,$00,$04,$22,$23,$2E,$2F
10129  A34C  FF                    BYTE    $FF
10130  A34D             
10131  A34D             ; SCREEN 22 - SCREEN 19 COLOUR DATA
10132  A34D             SCREEN_19_COLOUR_DATA 
10133  A34D  F7 77 30              BYTE    $F7,$77,$30,$37
10134  A351  F7 77 30              BYTE    $F7,$77,$30,$37
10135  A355  37 F0 70              BYTE    $37,$F0,$70,$37
10136  A359  37 F0 70              BYTE    $37,$F0,$70,$37
10137  A35D  35 F0 70              BYTE    $35,$F0,$70,$37
10138  A361  35 F0 70              BYTE    $35,$F0,$70,$37
10139  A365  37 33 31              BYTE    $37,$33,$31,$F0,$37
10140  A36A  37 33 31              BYTE    $37,$33,$31,$55,$11,$15,$50,$37
10141  A372  37 33 B1              BYTE    $37,$33,$B1,$15,$50,$37
10142  A378  37 33 B1              BYTE    $37,$33,$B1,$15,$50,$37
10143  A37E  35 3A D5              BYTE    $35,$3A,$D5,$50,$37
10144  A383  35 7A F0              BYTE    $35,$7A,$F0,$37
10145  A387  35 7A F0              BYTE    $35,$7A,$F0,$37
10146  A38B  35 7A F0              BYTE    $35,$7A,$F0,$37
10147  A38F  75 3A B5              BYTE    $75,$3A,$B5,$30,$35
10148  A394  75 31 B5              BYTE    $75,$31,$B5,$30,$35
10149  A399  FF                    BYTE    $FF
10150  A39A             
10151  A39A             SCREEN_19_INFO_DATA 
10152  A39A  00 00 12              BYTE    0,0,18,20  ;SALIDAS DE LA PANTALLA (IZQUIERDA, DERECHA, ARRIBA, ABAJO)
10153  A39E  03                    BYTE    3
10154  A39F  01 04 01              BYTE    SP_GOTA,SP_D,1,4,CYAN,18,3,7
10155  A3A7  01 04 00              BYTE    SP_GOTA,SP_D,0,4,YELLOW,22,3,7
10156  A3AF  03 01 01              BYTE    SP_PLANO,SP_LR,1,2,BLUE,27,13,17
10157  A3B7             
10158  A3B7             ; SCREEN 23 - SCREEN 20 SCREEN DATA
10159  A3B7             SCREEN_20_SCREEN_DATA 
10160  A3B7  A5 A6 80              BYTE    $A5,$A6,$80,$81,$84,$85,$86,$87,$00,$04,$84,$85,$86,$87,$84,$85,$86,$87,$84,$85,$86,$87,$00,$04,$80,$81,$A5,$A6
10161  A3D3  A7 A8 82              BYTE    $A7,$A8,$82,$83,$88,$89,$8A,$8B,$00,$04,$88,$89,$8A,$8B,$88,$89,$8A,$8B,$88,$89,$8A,$8B,$00,$04,$82,$83,$A7,$A8
10162  A3EF  A9 AA A5              BYTE    $A9,$AA,$A5,$A6,$00,$18,$A5,$A6,$A9,$AA
10163  A3F9  AB AC A7              BYTE    $AB,$AC,$A7,$A8,$00,$18,$A7,$A8,$AB,$AC
10164  A403  A5 A6 A9              BYTE    $A5,$A6,$A9,$AA,$00,$18,$A9,$AA,$A5,$A6
10165  A40D  A7 A8 AB              BYTE    $A7,$A8,$AB,$AC,$00,$18,$AB,$AC,$A7,$A8
10166  A417  A9 AA A5              BYTE    $A9,$AA,$A5,$A6,$80,$81,$84,$85,$86,$87,$80,$81,$00,$10,$A5,$A6,$A9,$AA
10167  A429  AB AC A7              BYTE    $AB,$AC,$A7,$A8,$82,$83,$88,$89,$8A,$8B,$82,$83,$00,$10,$A7,$A8,$AB,$AC
10168  A43B  80 81 A9              BYTE    $80,$81,$A9,$AA,$00,$0C,$02,$03,$05,$06,$07,$08,$00,$06,$A9,$AA,$80,$81
10169  A44D  82 83 AB              BYTE    $82,$83,$AB,$AC,$00,$0C,$0A,$0B,$0D,$0F,$11,$12,$00,$06,$AB,$AC,$82,$83
10170  A45F  A5 A6 80              BYTE    $A5,$A6,$80,$81,$00,$0C,$15,$17,$18,$19,$1A,$54,$00,$07,$68,$68,$44
10171  A470  A7 A8 82              BYTE    $A7,$A8,$82,$83,$00,$0C,$55,$56,$57,$58,$59,$5A,$00,$07,$68,$68,$49
10172  A481  A9 AA A5              BYTE    $A9,$AA,$A5,$A6,$00,$0A,$80,$81,$5B,$5C,$5D,$5E,$5F,$60,$00,$09,$4A
10173  A492  AB AC A7              BYTE    $AB,$AC,$A7,$A8,$00,$0A,$82,$83,$62,$63,$F9,$FA,$FB,$FC,$00,$09,$4B
10174  A4A3  80 81 A9              BYTE    $80,$81,$A9,$AA,$00,$04,$80,$81,$84,$85,$86,$87,$84,$85,$86,$87,$80,$81,$84,$85,$86,$87,$00,$04,$84,$85,$86,$87
10175  A4BF  82 83 AB              BYTE    $82,$83,$AB,$AC,$00,$04,$82,$83,$88,$89,$8A,$8B,$88,$89,$8A,$8B,$82,$83,$88,$89,$8A,$8B,$00,$04,$88,$89,$8A,$8B
10176  A4DB  FF                    BYTE    $FF
10177  A4DC             
10178  A4DC             ; SCREEN 23 - SCREEN 20 COLOUR DATA
10179  A4DC             SCREEN_20_COLOUR_DATA 
10180  A4DC  77 30 B7              BYTE    $77,$30,$B7,$30,$37
10181  A4E1  77 30 B7              BYTE    $77,$30,$B7,$30,$37
10182  A4E6  37 F0 70              BYTE    $37,$F0,$70,$37
10183  A4EA  37 F0 70              BYTE    $37,$F0,$70,$37
10184  A4EE  37 F0 70              BYTE    $37,$F0,$70,$37
10185  A4F2  37 F0 70              BYTE    $37,$F0,$70,$37
10186  A4F6  B7 F0 37              BYTE    $B7,$F0,$37
10187  A4F9  B7 F0 37              BYTE    $B7,$F0,$37
10188  A4FC  37 B0 51              BYTE    $37,$B0,$51,$50,$37
10189  A501  37 B0 51              BYTE    $37,$B0,$51,$50,$37
10190  A506  37 B0 51              BYTE    $37,$B0,$51,$60,$16,$07
10191  A50C  37 B0 51              BYTE    $37,$B0,$51,$60,$16,$07
10192  A512  37 90 17              BYTE    $37,$90,$17,$51,$80,$07
10193  A518  37 30 77              BYTE    $37,$30,$77,$51,$80,$07
10194  A51E  37 30 F7              BYTE    $37,$30,$F7,$30,$37
10195  A523  37 30 F7              BYTE    $37,$30,$F7,$30,$37
10196  A528  FF                    BYTE    $FF
10197  A529             
10198  A529             SCREEN_20_INFO_DATA 
10199  A529  00 00 13              BYTE    0,0,19,21  ;SALIDAS DE LA PANTALLA (IZQUIERDA, DERECHA, ARRIBA, ABAJO)
10200  A52D  04                    BYTE    4
10201  A52E  01 04 00              BYTE    SP_GOTA,SP_D,0,3,WHITE,15,9,13
10202  A536  02 01 01              BYTE    SP_MURCIELAGO,SP_LR,1,1,CYAN,27,7,20
10203  A53E  0D 03 01              BYTE    SP_ARO,SP_UD,1,1,GREEN,18,11,3
10204  A546  60 00 01              BYTE    SP_KEY_6,SP_NONE,1,1,WHITE,33,11
10205  A54D                        
10206  A54D             
10207  A54D             ; SCREEN 24 - SCREEN 21 SCREEN DATA
10208  A54D             SCREEN_21_SCREEN_DATA 
10209  A54D  84 85 86              BYTE    $84,$85,$86,$87,$00,$04,$84,$85,$86,$87,$80,$81,$84,$85,$86,$87,$84,$85,$86,$87,$80,$81,$00,$04,$84,$85,$86,$87
10210  A569  88 89 8A              BYTE    $88,$89,$8A,$8B,$00,$04,$88,$89,$8A,$8B,$82,$83,$88,$89,$8A,$8B,$88,$89,$8A,$8B,$82,$83,$00,$04,$88,$89,$8A,$8B
10211  A585  A5 A6 00              BYTE    $A5,$A6,$00,$11,$A5,$A6,$00,$07,$80,$81,$A5,$A6
10212  A591  A7 A8 00              BYTE    $A7,$A8,$00,$11,$A7,$A8,$00,$07,$82,$83,$A7,$A8
10213  A59D  A9 AA 00              BYTE    $A9,$AA,$00,$11,$A9,$AA,$00,$07,$A5,$A6,$A9,$AA
10214  A5A9  AB AC 00              BYTE    $AB,$AC,$00,$11,$AB,$AC,$00,$07,$A7,$A8,$AB,$AC
10215  A5B5  84 85 86              BYTE    $84,$85,$86,$87,$84,$85,$86,$87,$80,$81,$84,$85,$86,$87,$00,$05,$A5,$A6,$00,$07,$A9,$AA,$A5,$A6
10216  A5CD  88 89 8A              BYTE    $88,$89,$8A,$8B,$88,$89,$8A,$8B,$82,$83,$88,$89,$8A,$8B,$00,$05,$A7,$A8,$00,$07,$AB,$AC,$A7,$A8
10217  A5E5  A5 A6 68              BYTE    $A5,$A6,$68,$68,$00,$0F,$A9,$AA,$00,$07,$80,$81,$A9,$AA
10218  A5F3  A7 A8 68              BYTE    $A7,$A8,$68,$68,$00,$0F,$AB,$AC,$00,$07,$82,$83,$AB,$AC
10219  A601  A9 AA 00              BYTE    $A9,$AA,$00,$0B,$84,$85,$86,$87,$84,$85,$86,$87,$00,$07,$C7,$C8,$C9,$CA
10220  A613  AB AC 00              BYTE    $AB,$AC,$00,$0B,$88,$89,$8A,$8B,$88,$89,$8A,$8B,$00,$07,$CB,$CC,$CD,$CE
10221  A625  A5 A6 00              BYTE    $A5,$A6,$00,$1A,$CF,$D0,$D1,$D2
10222  A62D  A7 A8 00              BYTE    $A7,$A8,$00,$1A,$D3,$D4,$D5,$D6
10223  A635  A9 AA 84              BYTE    $A9,$AA,$84,$85,$86,$87,$80,$81,$84,$85,$86,$87,$84,$85,$86,$87,$80,$81,$84,$85,$86,$87,$80,$81,$00,$04,$84,$85,$86,$87
10224  A653  AB AC 88              BYTE    $AB,$AC,$88,$89,$8A,$8B,$82,$83,$88,$89,$8A,$8B,$88,$89,$8A,$8B,$82,$83,$88,$89,$8A,$8B,$82,$83,$00,$04,$88,$89,$8A,$8B
10225  A671  FF                    BYTE    $FF
10226  A672             
10227  A672             ; SCREEN 24 - SCREEN 21 COLOUR DATA
10228  A672             SCREEN_21_COLOUR_DATA 
10229  A672  31 30 F1              BYTE    $31,$30,$F1,$30,$31
10230  A677  31 30 F1              BYTE    $31,$30,$F1,$30,$31
10231  A67C  11 F0 00              BYTE    $11,$F0,$00,$11,$60,$31
10232  A682  11 F0 00              BYTE    $11,$F0,$00,$11,$60,$31
10233  A688  11 F0 00              BYTE    $11,$F0,$00,$11,$60,$31
10234  A68E  11 50 51              BYTE    $11,$50,$51,$40,$11,$60,$31
10235  A695  D1 40 11              BYTE    $D1,$40,$11,$60,$31
10236  A69A  D1 40 11              BYTE    $D1,$40,$11,$60,$31
10237  A69F  11 16 E0              BYTE    $11,$16,$E0,$11,$60,$31
10238  A6A5  11 16 E0              BYTE    $11,$16,$E0,$11,$60,$31
10239  A6AB  11 16 80              BYTE    $11,$16,$80,$71,$50,$43
10240  A6B1  11 16 80              BYTE    $11,$16,$80,$71,$50,$43
10241  A6B7  11 16 F0              BYTE    $11,$16,$F0,$60,$43
10242  A6BC  11 16 F0              BYTE    $11,$16,$F0,$60,$43
10243  A6C1  F1 71 30              BYTE    $F1,$71,$30,$31
10244  A6C5  F1 71 30              BYTE    $F1,$71,$30,$31
10245  A6C9  FF                    BYTE    $FF
10246  A6CA             
10247  A6CA             SCREEN_21_INFO_DATA 
10248  A6CA  00 17 14              BYTE    0,23,20,22  ;SALIDAS DE LA PANTALLA (IZQUIERDA, DERECHA, ARRIBA, ABAJO)
10249  A6CE  04                    BYTE    4
10250  A6CF  01 04 01              BYTE    SP_GOTA,SP_D,1,3,CYAN,14,3,5
10251  A6D7  03 03 01              BYTE    SP_PLANO,SP_UD,1,1,GREEN,26,13,9
10252  A6DF  0D 03 01              BYTE    SP_ARO,SP_UD,1,1,YELLOW,12,13,8
10253  A6E7  38 00 01              BYTE    SP_LOCK_6,SP_NONE,1,8,WHITE,7,9
10254  A6EE             
10255  A6EE             ; SCREEN 25 - SCREEN 22 SCREEN DATA
10256  A6EE             SCREEN_22_SCREEN_DATA 
10257  A6EE  B3 B4 B5              BYTE    $B3,$B4,$B5,$B6,$B3,$B4,$B5,$B6,$B3,$B4,$B5,$B6,$B3,$B4,$B5,$B6,$B3,$B4,$B5,$B6,$B3,$B4,$B5,$B6,$00,$04,$B3,$B4,$B5,$B6
10258  A70C  B7 B8 B9              BYTE    $B7,$B8,$B9,$BA,$B7,$B8,$B9,$BA,$B7,$B8,$B9,$BA,$B7,$B8,$B9,$BA,$B7,$B8,$B9,$BA,$B7,$B8,$B9,$BA,$00,$04,$B7,$B8,$B9,$BA
10259  A72A  80 81 00              BYTE    $80,$81,$00,$1C,$A5,$A6
10260  A730  82 83 00              BYTE    $82,$83,$00,$1C,$A7,$A8
10261  A736  A5 A6 00              BYTE    $A5,$A6,$00,$1C,$A9,$AA
10262  A73C  A7 A8 00              BYTE    $A7,$A8,$00,$1C,$AB,$AC
10263  A742  A9 AA 02              BYTE    $A9,$AA,$02,$03,$05,$06,$00,$18,$80,$81
10264  A74C  AB AC 07              BYTE    $AB,$AC,$07,$08,$0A,$0B,$00,$18,$82,$83
10265  A756  80 81 0D              BYTE    $80,$81,$0D,$0F,$11,$12,$00,$18,$A5,$A6
10266  A760  82 83 15              BYTE    $82,$83,$15,$17,$18,$19,$00,$18,$A7,$A8
10267  A76A  A5 A6 54              BYTE    $A5,$A6,$54,$55,$56,$57,$00,$18,$A9,$AA
10268  A774  A7 A8 58              BYTE    $A7,$A8,$58,$59,$5A,$5B,$00,$18,$AB,$AC
10269  A77E  A9 AA 45              BYTE    $A9,$AA,$45,$46,$47,$48,$00,$18,$A5,$A6
10270  A788  AB AC 00              BYTE    $AB,$AC,$00,$1C,$A7,$A8
10271  A78E  80 81 00              BYTE    $80,$81,$00,$1C,$A9,$AA
10272  A794  82 83 45              BYTE    $82,$83,$45,$46,$47,$48,$45,$46,$47,$48,$45,$46,$47,$48,$45,$46,$47,$48,$45,$46,$47,$48,$45,$46,$47,$48,$45,$46,$47,$48,$AB,$AC
10273  A7B4  FF                    BYTE    $FF
10274  A7B5             
10275  A7B5             ; SCREEN 25 - SCREEN 22 COLOUR DATA
10276  A7B5             SCREEN_22_COLOUR_DATA 
10277  A7B5  F3 73 30              BYTE    $F3,$73,$30,$33
10278  A7B9  F3 73 30              BYTE    $F3,$73,$30,$33
10279  A7BD  11 F0 B0              BYTE    $11,$F0,$B0,$11
10280  A7C1  11 F0 B0              BYTE    $11,$F0,$B0,$11
10281  A7C5  11 F0 B0              BYTE    $11,$F0,$B0,$11
10282  A7C9  11 F0 B0              BYTE    $11,$F0,$B0,$11
10283  A7CD  11 3A F0              BYTE    $11,$3A,$F0,$70,$11
10284  A7D2  11 1A 01              BYTE    $11,$1A,$01,$0A,$F0,$70,$11
10285  A7D9  11 0A 21              BYTE    $11,$0A,$21,$F0,$70,$11
10286  A7DF  11 0A 21              BYTE    $11,$0A,$21,$F0,$70,$11
10287  A7E5  11 0A 21              BYTE    $11,$0A,$21,$35,$F0,$30,$11
10288  A7EC  11 3A 35              BYTE    $11,$3A,$35,$F0,$30,$11
10289  A7F2  51 37 F0              BYTE    $51,$37,$F0,$30,$11
10290  A7F7  11 35 37              BYTE    $11,$35,$37,$F0,$30,$11
10291  A7FD  11 35 37              BYTE    $11,$35,$37,$F0,$30,$11
10292  A803  11 F5 B5              BYTE    $11,$F5,$B5,$11
10293  A807  FF                    BYTE    $FF
10294  A808             
10295  A808             SCREEN_22_INFO_DATA 
10296  A808  00 00 15              BYTE    0,0,21,0  ;SALIDAS DE LA PANTALLA (IZQUIERDA, DERECHA, ARRIBA, ABAJO)
10297  A80C  04                    BYTE    4
10298  A80D  48 00 01              BYTE    SP_TRANSPORTER_2,SP_NONE,1,8,WHITE,7,14
10299  A814  01 04 00              BYTE    SP_GOTA,SP_D,0,4,YELLOW,24,3,14
10300  A81C  08 01 01              BYTE    SP_ARANA,SP_LR,1,1,RED,19,14,13
10301  A824  08 01 01              BYTE    SP_ARANA,SP_LR,1,1,WHITE,22,14,15
10302  A82C             
10303  A82C             ; SCREEN 26 - SCREEN 23 SCREEN DATA
10304  A82C             SCREEN_23_SCREEN_DATA 
10305  A82C  CF D0 D2              BYTE    $CF,$D0,$D2,$D5,$D8,$DA,$DE,$E1,$E4,$E6,$E8,$EB,$DA,$DE,$E1,$E4,$EE,$DE,$E1,$DA,$DE,$E1,$E4,$E6,$E8,$EB,$F4,$F6,$DA,$DE,$E1,$E4
10306  A84C  CE D1 D3              BYTE    $CE,$D1,$D3,$D6,$D9,$DB,$DF,$E2,$E5,$E7,$E9,$EC,$DB,$DF,$E2,$E5,$EF,$DF,$E2,$DB,$DF,$E2,$E5,$E7,$E9,$EC,$F5,$F7,$DB,$DF,$E2,$E5
10307  A86C  CB 20 D4              BYTE    $CB,$20,$D4,$D7,$20,$DC,$E0,$E3,$20,$20,$EA,$ED,$DC,$00,$04,$E0,$E3,$DC,$E0,$E3,$20,$20,$EA,$ED,$20,$20,$DC,$E0,$E3,$20
10308  A88A  CA 00 04              BYTE    $CA,$00,$04,$DD,$00,$06,$DD,$00,$06,$DD,$00,$08,$DD,$00,$03
10309  A899  C9 00 1F              BYTE    $C9,$00,$1F
10310  A89C  C8 00 1F              BYTE    $C8,$00,$1F
10311  A89F  CD 00 1F              BYTE    $CD,$00,$1F
10312  A8A2  CC 00 1F              BYTE    $CC,$00,$1F
10313  A8A5  CB 00 1F              BYTE    $CB,$00,$1F
10314  A8A8  CA 00 0B              BYTE    $CA,$00,$0B,$02,$03,$05,$06,$07,$08,$00,$0E
10315  A8B3  C9 00 0B              BYTE    $C9,$00,$0B,$0A,$0B,$0D,$0F,$11,$12,$00,$0E
10316  A8BE  CA 00 05              BYTE    $CA,$00,$05,$84,$85,$86,$87,$80,$81,$15,$17,$18,$19,$1A,$54,$84,$85,$86,$87,$00,$0A
10317  A8D3  C9 00 05              BYTE    $C9,$00,$05,$88,$89,$8A,$8B,$82,$83,$55,$56,$57,$58,$59,$5A,$88,$89,$8A,$8B,$00,$0A
10318  A8E8  C8 00 03              BYTE    $C8,$00,$03,$84,$85,$86,$87,$84,$85,$86,$87,$5B,$5C,$5D,$5E,$5F,$60,$80,$81,$84,$85,$86,$87,$84,$85,$86,$87,$84,$85,$86,$87
10319  A907  C7 00 03              BYTE    $C7,$00,$03,$88,$89,$8A,$8B,$88,$89,$8A,$8B,$62,$63,$F9,$FA,$FB,$FC,$82,$83,$88,$89,$8A,$8B,$88,$89,$8A,$8B,$88,$89,$8A,$8B
10320  A926  45 46 47              BYTE    $45,$46,$47,$48,$45,$46,$47,$48,$45,$46,$47,$48,$45,$46,$47,$48,$45,$46,$47,$48,$45,$46,$47,$48,$45,$46,$47,$48,$45,$46,$47,$48
10321  A946  FF                    BYTE    $FF
10322  A947             
10323  A947             ; SCREEN 26 - SCREEN 23 COLOUR DATA
10324  A947             SCREEN_23_COLOUR_DATA 
10325  A947  F1 F1                 BYTE    $F1,$F1
10326  A949  F1 F1                 BYTE    $F1,$F1
10327  A94B  01 00 11              BYTE    $01,$00,$11,$00,$21,$10,$31,$20,$41,$10,$11,$10,$21,$00
10328  A959  01 30 01              BYTE    $01,$30,$01,$50,$01,$50,$01,$70,$01,$20
10329  A963  01 F0 E0              BYTE    $01,$F0,$E0
10330  A966  01 F0 E0              BYTE    $01,$F0,$E0
10331  A969  01 F0 E0              BYTE    $01,$F0,$E0
10332  A96C  01 F0 E0              BYTE    $01,$F0,$E0
10333  A96F  01 F0 E0              BYTE    $01,$F0,$E0
10334  A972  01 A0 53              BYTE    $01,$A0,$53,$D0
10335  A976  01 A0 53              BYTE    $01,$A0,$53,$D0
10336  A97A  01 40 55              BYTE    $01,$40,$55,$53,$35,$90
10337  A980  01 40 55              BYTE    $01,$40,$55,$53,$35,$90
10338  A986  01 20 75              BYTE    $01,$20,$75,$53,$D5
10339  A98B  01 20 75              BYTE    $01,$20,$75,$53,$D5
10340  A990  F7 F7                 BYTE    $F7,$F7
10341  A992  FF                    BYTE    $FF
10342  A993             
10343  A993             SCREEN_23_INFO_DATA 
10344  A993  00 18 00              BYTE    0,24,0,0  ;SALIDAS DE LA PANTALLA (IZQUIERDA, DERECHA, ARRIBA, ABAJO)
10345  A997  03                    BYTE    3
10346  A998  11 04 00              BYTE    SP_ESTALACTITA,SP_D,0,4,WHITE,18,3,8
10347  A9A0  02 01 01              BYTE    SP_MURCIELAGO,SP_LR,1,1,YELLOW,35,9,24
10348  A9A8  03 01 00              BYTE    SP_PLANO,SP_LR,0,2,LIGHT_RED,33,12,26
10349  A9B0             
10350  A9B0             ; SCREEN 27 - SCREEN 24 SCREEN DATA
10351  A9B0             SCREEN_24_SCREEN_DATA 
10352  A9B0  EE DE E1              BYTE    $EE,$DE,$E1,$DA,$DE,$E1,$D2,$D5,$DA,$DE,$E1,$E6,$E8,$EB,$F4,$D2,$D5,$D8,$E6,$E8,$EB,$F4,$DA,$DE,$E1,$E4,$E6,$E8,$DA,$DE,$E1,$EE
10353  A9D0  EF DF E2              BYTE    $EF,$DF,$E2,$DB,$DF,$E2,$D3,$D6,$DB,$DF,$E2,$E7,$E9,$EC,$F5,$D3,$B1,$B2,$E7,$E9,$EC,$F5,$DB,$DF,$E2,$E5,$E7,$E9,$DB,$DF,$E2,$EF
10354  A9F0  20 E0 E3              BYTE    $20,$E0,$E3,$DC,$E0,$E3,$D4,$D7,$DC,$E0,$E3,$20,$EA,$ED,$20,$D4,$C3,$C4,$20,$EA,$ED,$20,$DC,$E0,$E3,$20,$20,$EA,$DC,$E0,$E3,$20
10355  AA10  00 03 DD              BYTE    $00,$03,$DD,$00,$04,$DD,$00,$07,$C5,$C6,$00,$04,$DD,$00,$05,$DD,$00,$03
10356  AA22  00 20                 BYTE    $00,$20
10357  AA24  00 20                 BYTE    $00,$20
10358  AA26  00 20                 BYTE    $00,$20
10359  AA28  00 20                 BYTE    $00,$20
10360  AA2A  00 20                 BYTE    $00,$20
10361  AA2C  00 20                 BYTE    $00,$20
10362  AA2E  00 10 C3              BYTE    $00,$10,$C3,$C4,$00,$0E
10363  AA34  00 10 C5              BYTE    $00,$10,$C5,$C6,$00,$0E
10364  AA3A  00 10 B1              BYTE    $00,$10,$B1,$B2,$00,$0E
10365  AA40  84 85 86              BYTE    $84,$85,$86,$87,$84,$85,$86,$87,$80,$81,$84,$85,$86,$87,$84,$85,$86,$87,$84,$85,$86,$87,$80,$81,$84,$85,$86,$87,$84,$85,$86,$87
10366  AA60  88 89 8A              BYTE    $88,$89,$8A,$8B,$88,$89,$8A,$8B,$82,$83,$88,$89,$8A,$8B,$88,$89,$8A,$8B,$88,$89,$8A,$8B,$82,$83,$88,$89,$8A,$8B,$88,$89,$8A,$8B
10367  AA80  45 46 47              BYTE    $45,$46,$47,$48,$45,$46,$47,$48,$45,$46,$47,$48,$45,$46,$47,$48,$45,$46,$47,$48,$45,$46,$47,$48,$45,$46,$47,$48,$45,$46,$47,$48
10368  AAA0  FF                    BYTE    $FF
10369  AAA1             
10370  AAA1             ; SCREEN 27 - SCREEN 24 COLOUR DATA
10371  AAA1             SCREEN_24_COLOUR_DATA 
10372  AAA1  F1 F1                 BYTE    $F1,$F1
10373  AAA3  F1 1A D1              BYTE    $F1,$1A,$D1
10374  AAA6  00 91 00              BYTE    $00,$91,$00,$11,$00,$01,$13,$00,$11,$00,$21,$10,$31,$00
10375  AAB4  20 01 30              BYTE    $20,$01,$30,$01,$60,$13,$30,$01,$40,$01,$20
10376  AABF  F0 F0                 BYTE    $F0,$F0
10377  AAC1  F0 F0                 BYTE    $F0,$F0
10378  AAC3  F0 F0                 BYTE    $F0,$F0
10379  AAC5  F0 F0                 BYTE    $F0,$F0
10380  AAC7  F0 F0                 BYTE    $F0,$F0
10381  AAC9  F0 F0                 BYTE    $F0,$F0
10382  AACB  F0 13 D0              BYTE    $F0,$13,$D0
10383  AACE  F0 13 D0              BYTE    $F0,$13,$D0
10384  AAD1  F0 1A D0              BYTE    $F0,$1A,$D0
10385  AAD4  F5 F5                 BYTE    $F5,$F5
10386  AAD6  F5 F5                 BYTE    $F5,$F5
10387  AAD8  F3 F3                 BYTE    $F3,$F3
10388  AADA  FF                    BYTE    $FF
10389  AADB             
10390  AADB             SCREEN_24_INFO_DATA 
10391  AADB  17 19 00              BYTE    23,25,0,0  ;SALIDAS DE LA PANTALLA (IZQUIERDA, DERECHA, ARRIBA, ABAJO)
10392  AADF  03                    BYTE    3
10393  AAE0  06 01 01              BYTE    SP_SERPIENTE,SP_LR,1,1,WHITE,18,12,11
10394  AAE8  06 01 00              BYTE    SP_SERPIENTE,SP_LR,0,1,CYAN,32,12,24
10395  AAF0  0E 03 01              BYTE    SP_RAYO,SP_UD,1,1,YELLOW,21,9,4
10396  AAF8             
10397  AAF8             ; SCREEN 28 - SCREEN 25 SCREEN DATA
10398  AAF8             SCREEN_25_SCREEN_DATA 
10399  AAF8  D2 D5 D8              BYTE    $D2,$D5,$D8,$EE,$E8,$EB,$DA,$68,$68,$68,$68,$68,$68,$68,$68,$68,$68,$68,$68,$68,$68,$68,$68,$68,$68,$DA,$DE,$E1,$E4,$D2,$D5,$D8
10400  AB18  D3 D6 D9              BYTE    $D3,$D6,$D9,$EF,$E9,$EC,$DB,$68,$68,$68,$68,$68,$68,$68,$68,$68,$68,$68,$68,$68,$68,$68,$68,$68,$68,$DB,$DF,$E2,$E5,$D3,$D6,$D9
10401  AB38  D4 D7 20              BYTE    $D4,$D7,$20,$20,$EA,$ED,$DC,$DE,$E1,$68,$68,$68,$68,$68,$68,$68,$68,$68,$68,$68,$68,$68,$68,$68,$68,$DC,$E0,$E3,$20,$D4,$D7,$20
10402  AB58  00 06 DD              BYTE    $00,$06,$DD,$DF,$E2,$D8,$EE,$DE,$E1,$DA,$68,$68,$68,$68,$DA,$DE,$E1,$E4,$D2,$D5,$D8,$DD,$00,$06
10403  AB70  00 09 D9              BYTE    $00,$09,$D9,$EF,$DF,$E2,$DB,$68,$68,$68,$68,$DB,$DF,$E2,$E5,$D3,$D6,$D9,$00,$07
10404  AB84  00 0B E0              BYTE    $00,$0B,$E0,$E3,$DC,$3E,$3F,$40,$41,$DC,$E0,$E3,$20,$D4,$D7,$00,$08
10405  AB95  00 0D DD              BYTE    $00,$0D,$DD,$42,$43,$4C,$D1,$DD,$00,$0D
10406  AB9F  00 0F 4E              BYTE    $00,$0F,$4E,$CC,$00,$0F
10407  ABA5  00 0F 3C              BYTE    $00,$0F,$3C,$CB,$00,$0F
10408  ABAB  00 0B 84              BYTE    $00,$0B,$84,$85,$86,$87,$3B,$CA,$68,$68,$00,$0D
10409  ABB7  00 0B 88              BYTE    $00,$0B,$88,$89,$8A,$8B,$3A,$C9,$68,$68,$00,$0D
10410  ABC3  00 09 84              BYTE    $00,$09,$84,$85,$86,$87,$80,$81,$3D,$CA,$A5,$A6,$00,$0D
10411  ABD1  00 09 88              BYTE    $00,$09,$88,$89,$8A,$8B,$82,$83,$3C,$C9,$A7,$A8,$00,$0D
10412  ABDF  84 85 86              BYTE    $84,$85,$86,$87,$00,$03,$84,$85,$86,$87,$84,$85,$86,$87,$3B,$C8,$A9,$AA,$00,$0D
10413  ABF3  88 89 8A              BYTE    $88,$89,$8A,$8B,$00,$03,$88,$89,$8A,$8B,$88,$89,$8A,$8B,$3A,$C7,$AB,$AC,$00,$0D
10414  AC07  45 46 47              BYTE    $45,$46,$47,$48,$45,$46,$47,$48,$45,$46,$47,$48,$45,$46,$47,$48,$45,$46,$47,$48,$45,$46,$47,$48,$45,$46,$47,$48,$45,$46,$47,$48
10415  AC27  FF                    BYTE    $FF
10416  AC28             
10417  AC28             ; SCREEN 28 - SCREEN 25 COLOUR DATA
10418  AC28             SCREEN_25_COLOUR_DATA 
10419  AC28  F1 F1                 BYTE    $F1,$F1
10420  AC2A  F1 F1                 BYTE    $F1,$F1
10421  AC2C  11 10 F1              BYTE    $11,$10,$F1,$71,$00,$11,$00
10422  AC33  50 F1 31              BYTE    $50,$F1,$31,$50
10423  AC37  60 01 00              BYTE    $60,$01,$00,$F1,$60
10424  AC3C  A0 91 07              BYTE    $A0,$91,$07,$11,$70
10425  AC41  C0 51 10              BYTE    $C0,$51,$10,$01,$90
10426  AC46  E0 11 00              BYTE    $E0,$11,$00,$01,$10,$01,$90
10427  AC4D  E0 11 30              BYTE    $E0,$11,$30,$01,$90
10428  AC52  A0 37 11              BYTE    $A0,$37,$11,$16,$10,$01,$90
10429  AC59  A0 37 11              BYTE    $A0,$37,$11,$16,$10,$01,$90
10430  AC60  80 57 11              BYTE    $80,$57,$11,$17,$10,$01,$90
10431  AC67  80 57 11              BYTE    $80,$57,$11,$17,$10,$01,$90
10432  AC6E  37 20 77              BYTE    $37,$20,$77,$11,$17,$10,$01,$90
10433  AC76  37 20 77              BYTE    $37,$20,$77,$11,$17,$10,$01,$90
10434  AC7E  F3 F3                 BYTE    $F3,$F3
10435  AC80  FF                    BYTE    $FF
10436  AC81             
10437  AC81             SCREEN_25_INFO_DATA 
10438  AC81  18 1C 00              BYTE    24,28,0,0  ;SALIDAS DE LA PANTALLA (IZQUIERDA, DERECHA, ARRIBA, ABAJO)
10439  AC85  05                    BYTE    5
10440  AC86  48 00 01              BYTE    SP_TRANSPORTER_2,SP_NONE,1,8,WHITE,17,8
10441  AC8D  11 04 00              BYTE    SP_ESTALACTITA,SP_D,0,4,WHITE,12,5,12
10442  AC95  01 04 00              BYTE    SP_GOTA,SP_D,0,4,GREEN,27,7,14
10443  AC9D  12 00 01              BYTE    SP_VOLCAN,SP_NONE,1,2,YELLOW,30,14
10444  ACA4  61 00 01              BYTE    SP_KEY_7,SP_NONE,1,1,WHITE,22,10
10445  ACAB             
10446  ACAB             ; SCREEN 29 - SCREEN 26 SCREEN DATA
10447  ACAB             SCREEN_26_SCREEN_DATA 
10448  ACAB  CA 00 04              BYTE    $CA,$00,$04,$45,$E4,$DE,$E1,$DA,$68,$68,$68,$68,$68,$68,$68,$68,$68,$68,$68,$68,$68,$68,$68,$68,$68,$68,$68,$68,$68,$68
10449  ACC9  C9 00 05              BYTE    $C9,$00,$05,$E5,$DF,$E2,$DB,$68,$68,$68,$68,$68,$68,$68,$68,$68,$68,$68,$68,$68,$68,$68,$68,$68,$68,$68,$68,$68,$68
10450  ACE6  C8 00 06              BYTE    $C8,$00,$06,$E0,$E3,$DC,$D2,$DE,$E1,$E4,$DE,$E1,$DA,$DE,$E1,$68,$68,$68,$68,$68,$68,$68,$68,$68,$68,$68,$68,$68
10451  AD02  CD 00 08              BYTE    $CD,$00,$08,$DD,$D3,$20,$20,$E5,$DF,$E2,$DB,$DF,$E2,$E4,$DE,$E1,$DA,$D2,$D5,$68,$68,$68,$68,$68,$68,$68
10452  AD1C  CC 80 81              BYTE    $CC,$80,$81,$00,$07,$D4,$00,$03,$E0,$E3,$DC,$E0,$E3,$E5,$DF,$E2,$DB,$D3,$D6,$E6,$E8,$EB,$E4,$DE,$E1,$DA
10453  AD36  CB 82 83              BYTE    $CB,$82,$83,$00,$0D,$DD,$00,$03,$E0,$E3,$DC,$D4,$D7,$E7,$E9,$EC,$E5,$DF,$E2,$DB
10454  AD4A  CA A5 A6              BYTE    $CA,$A5,$A6,$80,$81,$00,$11,$DD,$00,$03,$EA,$ED,$20,$E0,$E3,$DC
10455  AD5A  C9 A7 A8              BYTE    $C9,$A7,$A8,$82,$83,$00,$1A,$DD
10456  AD62  CA A9 AA              BYTE    $CA,$A9,$AA,$80,$81,$80,$81,$00,$19
10457  AD6B  C9 AB AC              BYTE    $C9,$AB,$AC,$82,$83,$82,$83,$00,$07,$84,$85,$86,$87,$80,$81,$84,$85,$86,$87,$80,$81,$84,$85,$86,$87,$80,$81
10458  AD86  C8 80 81              BYTE    $C8,$80,$81,$84,$85,$86,$87,$80,$81,$00,$05,$88,$89,$8A,$8B,$82,$83,$88,$89,$8A,$8B,$82,$83,$88,$89,$8A,$8B,$82,$83
10459  ADA3  C7 82 83              BYTE    $C7,$82,$83,$88,$89,$8A,$8B,$82,$83,$00,$0B,$A5,$A6,$00,$08,$A5,$A6
10460  ADB4  CA 68 68              BYTE    $CA,$68,$68,$00,$11,$A7,$A8,$00,$08,$A7,$A8
10461  ADBF  C9 68 68              BYTE    $C9,$68,$68,$00,$11,$A9,$AA,$00,$08,$A9,$AA
10462  ADCA  C8 45 46              BYTE    $C8,$45,$46,$47,$48,$45,$46,$47,$48,$45,$46,$47,$48,$00,$07,$AB,$AC,$00,$08,$AB,$AC
10463  ADDF  45 46 47              BYTE    $45,$46,$47,$48,$45,$46,$47,$48,$45,$46,$47,$48,$45,$46,$47,$48,$45,$46,$47,$48,$45,$46,$47,$48,$00,$04,$45,$46,$47,$48
10464  ADFD  FF                    BYTE    $FF
10465  ADFE             
10466  ADFE             ; SCREEN 29 - SCREEN 26 COLOUR DATA
10467  ADFE             SCREEN_26_COLOUR_DATA 
10468  ADFE  07 30 F7              BYTE    $07,$30,$F7,$A7
10469  AE02  07 30 F7              BYTE    $07,$30,$F7,$A7
10470  AE06  07 50 F7              BYTE    $07,$50,$F7,$87
10471  AE0A  07 70 17              BYTE    $07,$70,$17,$10,$F7,$27
10472  AE10  07 11 50              BYTE    $07,$11,$50,$01,$07,$20,$F7,$17
10473  AE18  07 11 C0              BYTE    $07,$11,$C0,$07,$20,$B7
10474  AE1E  07 31 F0              BYTE    $07,$31,$F0,$00,$07,$20,$17,$00,$27
10475  AE27  07 31 F0              BYTE    $07,$31,$F0,$90,$07
10476  AE2C  07 51 F0              BYTE    $07,$51,$F0,$80
10477  AE30  07 51 60              BYTE    $07,$51,$60,$F1,$11
10478  AE35  07 71 40              BYTE    $07,$71,$40,$F1,$11
10479  AE3A  07 71 A0              BYTE    $07,$71,$A0,$11,$60,$21
10480  AE40  07 16 F0              BYTE    $07,$16,$F0,$00,$11,$60,$21
10481  AE47  07 16 F0              BYTE    $07,$16,$F0,$00,$11,$60,$21
10482  AE4E  07 B5 60              BYTE    $07,$B5,$60,$11,$60,$21
10483  AE54  F1 71 30              BYTE    $F1,$71,$30,$31
10484  AE58  FF                    BYTE    $FF
10485  AE59             
10486  AE59             SCREEN_26_INFO_DATA 
10487  AE59  00 00 1B              BYTE    0,0,27,29  ;SALIDAS DE LA PANTALLA (IZQUIERDA, DERECHA, ARRIBA, ABAJO)
10488  AE5D  04                    BYTE    4
10489  AE5E  02 01 01              BYTE    SP_MURCIELAGO,SP_LR,1,1,YELLOW,23,13,10
10490  AE66  11 04 01              BYTE    SP_ESTALACTITA,SP_D,1,4,YELLOW,16,4,13
10491  AE6E  01 04 02              BYTE    SP_GOTA,SP_D,2,5,CYAN,33,12,14
10492  AE76  39 00 01              BYTE    SP_LOCK_7,SP_NONE,1,8,WHITE,6,13
10493  AE7D                        
10494  AE7D             ; SCREEN 30 - SCREEN 27 SCREEN DATA
10495  AE7D             SCREEN_27_SCREEN_DATA 
10496  AE7D  CF E4 DE              BYTE    $CF,$E4,$DE,$E1,$DE,$DE,$E1,$D2,$DA,$DE,$E1,$E4,$00,$04,$D2,$D5,$D8,$E6,$E8,$EB,$E8,$C9,$00,$04,$E4,$DE,$E1,$DE
10497  AE99  CE 94 95              BYTE    $CE,$94,$95,$96,$97,$DF,$E2,$D3,$DB,$DF,$E2,$E5,$00,$04,$D3,$D6,$D9,$E7,$E9,$EC,$E8,$CC,$00,$04,$E5,$DF,$E2,$E1
10498  AEB5  C9 98 99              BYTE    $C9,$98,$99,$9A,$9B,$E0,$E3,$D4,$DC,$E0,$E3,$00,$05,$D4,$D7,$20,$20,$EA,$ED,$3C,$CB,$00,$05,$E0,$E3,$3B
10499  AECF  CA 9C 9D              BYTE    $CA,$9C,$9D,$9E,$9F,$00,$03,$DD,$00,$0D,$3B,$CA,$00,$07,$3A
10500  AEDE  C9 00 08              BYTE    $C9,$00,$08,$84,$85,$86,$87,$00,$09,$3A,$C9,$00,$07,$3D
10501  AEEC  C8 00 08              BYTE    $C8,$00,$08,$88,$89,$8A,$8B,$00,$09,$3D,$CA,$00,$07,$4E
10502  AEFA  CC 00 15              BYTE    $CC,$00,$15,$3C,$C9,$00,$07,$3C
10503  AF02  CB 00 10              BYTE    $CB,$00,$10,$84,$85,$86,$87,$20,$3B,$C8,$00,$07,$3B
10504  AF0F  CA 00 10              BYTE    $CA,$00,$10,$88,$89,$8A,$8B,$20,$3A,$C7,$00,$07,$3A
10505  AF1C  C9 00 0E              BYTE    $C9,$00,$0E,$E4,$45,$46,$47,$48,$45,$46,$E1,$E4,$00,$07,$3D
10506  AF2B  CA 00 0E              BYTE    $CA,$00,$0E,$E5,$DE,$E1,$DE,$DE,$DE,$DF,$E2,$E5,$00,$07,$3C
10507  AF3A  CA 00 09              BYTE    $CA,$00,$09,$84,$85,$86,$87,$20,$20,$DF,$E2,$D2,$D5,$D8,$E0,$E3,$00,$08,$3C
10508  AF4D  CA 00 09              BYTE    $CA,$00,$09,$88,$89,$8A,$8B,$20,$20,$E0,$E3,$D3,$D6,$D9,$00,$0A,$3C
10509  AF5E  C9 00 06              BYTE    $C9,$00,$06,$84,$85,$86,$87,$84,$85,$86,$87,$00,$03,$D4,$D7,$00,$07,$A0,$00,$03,$3B
10510  AF73  C8 00 06              BYTE    $C8,$00,$06,$88,$89,$8A,$8B,$88,$89,$8A,$8B,$00,$0C,$A1,$A2,$A3,$A4,$3A
10511  AF85  C7 00 04              BYTE    $C7,$00,$04,$45,$46,$47,$48,$45,$46,$47,$48,$45,$46,$47,$48,$45,$46,$47,$48,$45,$46,$47,$48,$45,$46,$47,$48,$45,$46,$3D
10512  AFA3  FF                    BYTE    $FF
10513  AFA4             
10514  AFA4             ; SCREEN 30 - SCREEN 27 COLOUR DATA
10515  AFA4             SCREEN_27_COLOUR_DATA 
10516  AFA4  B7 30 77              BYTE    $B7,$30,$77,$30,$37
10517  AFA9  07 31 67              BYTE    $07,$31,$67,$30,$77,$30,$37
10518  AFB0  07 31 57              BYTE    $07,$31,$57,$40,$27,$00,$37,$40,$27
10519  AFB9  07 31 20              BYTE    $07,$31,$20,$07,$21,$90,$17,$60,$07
10520  AFC2  07 60 41              BYTE    $07,$60,$41,$80,$17,$60,$07
10521  AFC9  07 60 41              BYTE    $07,$60,$41,$80,$17,$60,$07
10522  AFD0  07 F0 40              BYTE    $07,$F0,$40,$17,$60,$07
10523  AFD6  07 F0 31              BYTE    $07,$F0,$31,$00,$17,$60,$07
10524  AFDD  07 F0 31              BYTE    $07,$F0,$31,$00,$17,$60,$07
10525  AFE4  07 D0 87              BYTE    $07,$D0,$87,$60,$07
10526  AFE9  07 D0 87              BYTE    $07,$D0,$87,$60,$07
10527  AFEE  07 80 31              BYTE    $07,$80,$31,$10,$67,$70,$07
10528  AFF5  07 80 31              BYTE    $07,$80,$31,$10,$67,$70,$07
10529  AFFC  07 50 71              BYTE    $07,$50,$71,$20,$27,$40,$11,$20,$07
10530  B005  07 50 71              BYTE    $07,$50,$71,$A0,$41,$07
10531  B00B  07 30 F1              BYTE    $07,$30,$F1,$91,$07
10532  B010  FF                    BYTE    $FF
10533  B011             
10534  B011             SCREEN_27_INFO_DATA 
10535  B011  00 00 1C              BYTE    0,0,28,26  ;SALIDAS DE LA PANTALLA (IZQUIERDA, DERECHA, ARRIBA, ABAJO)
10536  B015  05                    BYTE    5
10537  B016  08 03 00              BYTE    SP_ARANA,SP_UD,0,1,CYAN,7,11,4
10538  B01E  02 01 02              BYTE    SP_MURCIELAGO,SP_LR,2,1,GREEN,20,8,10
10539  B026  01 04 00              BYTE    SP_GOTA,SP_D,0,4,RED,12,5,12
10540  B02E  0A 00 00              BYTE    SP_PINCHOS_1,SP_NONE,0,0,BLUE,28,14
10541  B035  0B 00 00              BYTE    SP_PINCHOS_2,SP_NONE,0,0,BLUE,31,14
10542  B03C             
10543  B03C             ; SCREEN 31 - SCREEN 28 SCREEN DATA
10544  B03C             SCREEN_28_SCREEN_DATA 
10545  B03C  E6 E8 EB              BYTE    $E6,$E8,$EB,$E1,$D2,$D5,$E4,$DE,$E1,$68,$68,$68,$68,$68,$68,$68,$68,$E4,$DE,$E1,$D2,$DA,$DA,$DE,$E1,$E6,$E8,$D5,$E4,$DE,$E1,$E1
10546  B05C  E7 E9 EC              BYTE    $E7,$E9,$EC,$E2,$D3,$D6,$E5,$DF,$E2,$68,$68,$68,$D2,$DA,$DE,$E1,$E4,$E5,$DF,$E2,$D3,$DB,$DB,$DF,$E2,$E7,$E9,$E4,$DE,$DA,$DE,$3B
10547  B07C  20 EA ED              BYTE    $20,$EA,$ED,$E3,$D4,$D7,$20,$E0,$E3,$D2,$D5,$D8,$D3,$DB,$DF,$E2,$E5,$20,$E0,$E3,$D4,$DC,$DC,$E0,$E3,$20,$EA,$94,$95,$96,$97,$3A
10548  B09C  00 09 D3              BYTE    $00,$09,$D3,$D6,$D9,$D4,$DC,$E0,$E3,$00,$05,$DD,$DD,$00,$04,$98,$99,$9A,$9B,$3D
10549  B0B0  00 09 D4              BYTE    $00,$09,$D4,$D7,$20,$20,$DD,$00,$0D,$9C,$9D,$9E,$9F,$4E
10550  B0BE  00 1F 3C              BYTE    $00,$1F,$3C
10551  B0C1  00 1F 3B              BYTE    $00,$1F,$3B
10552  B0C4  00 12 84              BYTE    $00,$12,$84,$85,$86,$87,$00,$09,$3A
10553  B0CD  00 12 88              BYTE    $00,$12,$88,$89,$8A,$8B,$00,$09,$3D
10554  B0D6  00 0A 80              BYTE    $00,$0A,$80,$81,$84,$85,$86,$87,$84,$85,$86,$87,$00,$07,$80,$81,$20,$20,$3C
10555  B0E9  00 0A 82              BYTE    $00,$0A,$82,$83,$88,$89,$8A,$8B,$88,$89,$8A,$8B,$00,$07,$82,$83,$20,$20,$3C
10556  B0FC  00 06 84              BYTE    $00,$06,$84,$85,$86,$87,$A5,$A6,$00,$13,$3C
10557  B107  00 06 88              BYTE    $00,$06,$88,$89,$8A,$8B,$A7,$A8,$00,$13,$3B
10558  B112  00 04 84              BYTE    $00,$04,$84,$85,$86,$87,$80,$81,$A9,$AA,$00,$0A,$80,$81,$00,$07,$3A
10559  B123  00 04 88              BYTE    $00,$04,$88,$89,$8A,$8B,$82,$83,$AB,$AC,$00,$0A,$82,$83,$00,$07,$3D
10560  B134  45 46 47              BYTE    $45,$46,$47,$48,$45,$46,$47,$48,$45,$46,$47,$48,$00,$04,$45,$46,$47,$48,$45,$46,$47,$48,$00,$04,$45,$46,$47,$48
10561  B150  FF                    BYTE    $FF
10562  B151             
10563  B151             ; SCREEN 31 - SCREEN 28 COLOUR DATA
10564  B151             SCREEN_28_COLOUR_DATA 
10565  B151  F7 F7                 BYTE    $F7,$F7
10566  B153  F7 F7                 BYTE    $F7,$F7
10567  B155  00 47 00              BYTE    $00,$47,$00,$97,$00,$87,$31,$07
10568  B15D  80 67 40              BYTE    $80,$67,$40,$27,$20,$31,$07
10569  B164  80 27 00              BYTE    $80,$27,$00,$07,$21,$90,$31,$07
10570  B16C  F0 E0 07              BYTE    $F0,$E0,$07
10571  B16F  F0 E0 07              BYTE    $F0,$E0,$07
10572  B172  F0 10 33              BYTE    $F0,$10,$33,$80,$07
10573  B177  F0 10 33              BYTE    $F0,$10,$33,$80,$07
10574  B17C  90 93 60              BYTE    $90,$93,$60,$23,$00,$07
10575  B182  90 93 60              BYTE    $90,$93,$60,$23,$00,$07
10576  B188  50 53 F0              BYTE    $50,$53,$F0,$20,$07
10577  B18D  50 53 F0              BYTE    $50,$53,$F0,$20,$07
10578  B192  30 73 90              BYTE    $30,$73,$90,$13,$60,$07
10579  B198  30 73 90              BYTE    $30,$73,$90,$13,$60,$07
10580  B19E  B1 30 71              BYTE    $B1,$30,$71,$30,$31
10581  B1A3  FF                    BYTE    $FF
10582  B1A4             
10583  B1A4             SCREEN_28_INFO_DATA 
10584  B1A4  19 00 00              BYTE    25,0,0,27  ;SALIDAS DE LA PANTALLA (IZQUIERDA, DERECHA, ARRIBA, ABAJO)
10585  B1A8  03                    BYTE    3
10586  B1A9  08 03 03              BYTE    SP_ARANA,SP_UD,3,2,PURPLE,33,8,6
10587  B1B1  04 01 00              BYTE    SP_MOSCAS,SP_LR,0,1,GREEN,21,8,13
10588  B1B9  13 04 00              BYTE    SP_GOTA_2,SP_D,0,1,WHITE,29,4,16
10589  B1C1             
10590  B1C1             ; SCREEN 32 - SCREEN 29 SCREEN DATA
10591  B1C1             SCREEN_29_SCREEN_DATA 
10592  B1C1  68 68 68              BYTE    $68,$68,$68,$68,$68,$68,$68,$68,$68,$68,$68,$68,$68,$68,$68,$68,$68,$68,$68,$68,$D2,$DA,$DE,$E1,$00,$04,$E4,$DE,$DA,$DE
10593  B1DF  68 68 68              BYTE    $68,$68,$68,$68,$68,$68,$68,$68,$68,$68,$68,$68,$68,$68,$68,$68,$68,$DA,$DE,$E1,$D3,$DB,$DF,$E2,$00,$04,$E5,$DF,$E2,$E1
10594  B1FD  68 68 68              BYTE    $68,$68,$68,$68,$68,$68,$68,$68,$68,$68,$68,$68,$68,$68,$68,$68,$68,$DB,$DF,$E2,$D4,$DC,$E0,$E3,$00,$05,$E0,$E3,$3B
10595  B21A  68 68 68              BYTE    $68,$68,$68,$68,$68,$68,$68,$68,$DE,$E1,$E4,$D2,$D5,$D8,$E4,$DE,$E1,$DC,$E0,$E3,$20,$DD,$00,$09,$3A
10596  B233  CB D2 D5              BYTE    $CB,$D2,$D5,$D8,$DE,$E1,$DA,$DE,$DF,$E2,$E5,$D3,$D6,$D9,$E5,$DF,$E2,$DD,$00,$0D,$3D
10597  B248  C9 D3 D6              BYTE    $C9,$D3,$D6,$D9,$DF,$E2,$DB,$DF,$E0,$E3,$20,$D4,$D7,$20,$20,$E0,$E3,$00,$0E,$3C
10598  B25C  CA D4 D7              BYTE    $CA,$D4,$D7,$20,$E0,$E3,$DC,$E0,$00,$17,$3B
10599  B267  C9 00 05              BYTE    $C9,$00,$05,$DD,$00,$18,$3A
10600  B26E  C8 68 68              BYTE    $C8,$68,$68,$00,$1C,$3D
10601  B274  C7 68 68              BYTE    $C7,$68,$68,$00,$16,$E6,$E8,$EB,$68,$68,$68,$68
10602  B280  68 68 68              BYTE    $68,$68,$68,$68,$68,$68,$68,$68,$68,$68,$68,$68,$68,$68,$68,$68,$68,$D8,$00,$07,$E7,$E9,$EC,$68,$68,$68,$68
10603  B29B  68 68 68              BYTE    $68,$68,$68,$68,$68,$68,$68,$68,$68,$68,$68,$68,$DA,$DE,$E1,$E4,$E4,$D9,$00,$08,$EA,$ED,$E4,$68,$68,$68
10604  B2B5  E4 DE E1              BYTE    $E4,$DE,$E1,$DA,$DE,$E1,$E4,$68,$68,$68,$68,$68,$DB,$DF,$E2,$E5,$E5,$00,$0B,$E5,$DE,$E1,$DA
10605  B2CC  E5 DF E2              BYTE    $E5,$DF,$E2,$DB,$DF,$E2,$E5,$E6,$E8,$E8,$EB,$F4,$DC,$E0,$E3,$00,$0E,$DF,$E2,$DB
10606  B2E0  20 E0 E3              BYTE    $20,$E0,$E3,$DC,$E0,$E3,$20,$E7,$E9,$E9,$EC,$F5,$DD,$00,$10,$E0,$E3,$DC
10607  B2F2  00 03 DD              BYTE    $00,$03,$DD,$00,$04,$EA,$EA,$ED,$00,$14,$DD
10608  B2FD  FF                    BYTE    $FF
10609  B2FE             
10610  B2FE             ; SCREEN 32 - SCREEN 29 COLOUR DATA
10611  B2FE             SCREEN_29_COLOUR_DATA 
10612  B2FE  F1 71 30              BYTE    $F1,$71,$30,$31
10613  B302  F1 71 30              BYTE    $F1,$71,$30,$31
10614  B306  F1 71 40              BYTE    $F1,$71,$40,$21
10615  B30A  F1 31 00              BYTE    $F1,$31,$00,$01,$80,$01
10616  B310  F1 11 C0              BYTE    $F1,$11,$C0,$01
10617  B314  91 00 11              BYTE    $91,$00,$11,$07,$00,$21,$C0,$01
10618  B31C  21 00 31              BYTE    $21,$00,$31,$17,$60,$01,$C0,$01
10619  B324  21 20 11              BYTE    $21,$20,$11,$80,$01,$C0,$01
10620  B32B  01 16 F0              BYTE    $01,$16,$F0,$B0,$01
10621  B330  01 16 F0              BYTE    $01,$16,$F0,$50,$61
10622  B335  F1 11 60              BYTE    $F1,$11,$60,$61
10623  B339  F1 11 70              BYTE    $F1,$11,$70,$51
10624  B33D  F1 01 A0              BYTE    $F1,$01,$A0,$31
10625  B341  E1 D0 21              BYTE    $E1,$D0,$21
10626  B344  00 41 00              BYTE    $00,$41,$00,$51,$F0,$21
10627  B34A  20 01 30              BYTE    $20,$01,$30,$21,$F0,$30,$01
10628  B351  FF                    BYTE    $FF
10629  B352             
10630  B352             SCREEN_29_INFO_DATA 
10631  B352  00 00 1A              BYTE    0,0,26,30  ;SALIDAS DE LA PANTALLA (IZQUIERDA, DERECHA, ARRIBA, ABAJO)
10632  B356  04                    BYTE    4
10633  B357  01 04 01              BYTE    SP_GOTA,SP_D,1,4,CYAN,15,6,9
10634  B35F  0D 01 00              BYTE    SP_ARO,SP_LR,0,1,YELLOW,31,14,21
10635  B367  0C 03 02              BYTE    SP_BOLA,SP_UD,2,1,GREEN,12,12,8
10636  B36F  62 00 01              BYTE    SP_KEY_8,SP_NONE,1,1,WHITE,6,9
10637  B376                        
10638  B376             ; SCREEN 33 - SCREEN 30 SCREEN DATA
10639  B376             SCREEN_30_SCREEN_DATA 
10640  B376  DA DE E1              BYTE    $DA,$DE,$E1,$E4,$00,$1B,$3C
10641  B37D  DB DF E2              BYTE    $DB,$DF,$E2,$E5,$00,$1B,$3B
10642  B384  DC E0 E3              BYTE    $DC,$E0,$E3,$00,$1C,$3A
10643  B38A  DD 00 1E              BYTE    $DD,$00,$1E,$3D
10644  B38E  00 1F 3C              BYTE    $00,$1F,$3C
10645  B391  00 1F 3C              BYTE    $00,$1F,$3C
10646  B394  00 1F 3C              BYTE    $00,$1F,$3C
10647  B397  00 1B 84              BYTE    $00,$1B,$84,$85,$86,$87,$3B
10648  B39E  00 1B 88              BYTE    $00,$1B,$88,$89,$8A,$8B,$3A
10649  B3A5  00 0B 45              BYTE    $00,$0B,$45,$46,$47,$48,$45,$46,$47,$48,$45,$46,$47,$48,$45,$46,$47,$48,$45,$46,$47,$48,$3D
10650  B3BC  00 0B E6              BYTE    $00,$0B,$E6,$E8,$EB,$DA,$DE,$DA,$DE,$E1,$E4,$E6,$E8,$E8,$EB,$68,$E4,$DE,$E1,$DA,$DE,$E1,$E4
10651  B3D3  00 0B E7              BYTE    $00,$0B,$E7,$E9,$EC,$F4,$E4,$DB,$DF,$E2,$E5,$E7,$E9,$E9,$EC,$F4,$E5,$DF,$E2,$DB,$DF,$E2,$E5
10652  B3EA  20 20 3E              BYTE    $20,$20,$3E,$3F,$40,$41,$00,$06,$EA,$ED,$F5,$E5,$DC,$E0,$E3,$20,$20,$EA,$EA,$ED,$F5,$20,$E0,$E3,$DC,$E0,$E3,$20
10653  B406  20 20 42              BYTE    $20,$20,$42,$43,$4C,$D1,$00,$0A,$DD,$00,$0B,$DD,$00,$03
10654  B414  F8 F8 F8              BYTE    $F8,$F8,$F8,$F8,$F8,$F8,$F8,$F8,$F8,$F8,$F8,$F8,$F8,$F8,$F8,$F8,$F8,$F8,$F8,$F8,$F8,$F8,$F8,$F8,$F8,$F8,$F8,$F8,$F8,$F8,$F8,$F8
10655  B434  F8 F8 F8              BYTE    $F8,$F8,$F8,$F8,$F8,$F8,$F8,$F8,$F8,$F8,$F8,$F8,$F8,$F8,$F8,$F8,$F8,$F8,$F8,$F8,$F8,$F8,$F8,$F8,$F8,$F8,$F8,$F8,$F8,$F8,$F8,$F8
10656  B454  FF                    BYTE    $FF
10657  B455             
10658  B455             ; SCREEN 33 - SCREEN 30 COLOUR DATA
10659  B455             SCREEN_30_COLOUR_DATA 
10660  B455  37 F0 A0              BYTE    $37,$F0,$A0,$01
10661  B459  37 F0 A0              BYTE    $37,$F0,$A0,$01
10662  B45D  37 F0 A0              BYTE    $37,$F0,$A0,$01
10663  B461  37 F0 A0              BYTE    $37,$F0,$A0,$01
10664  B465  F0 E0 01              BYTE    $F0,$E0,$01
10665  B468  F0 E0 01              BYTE    $F0,$E0,$01
10666  B46B  F0 E0 01              BYTE    $F0,$E0,$01
10667  B46E  F0 A0 41              BYTE    $F0,$A0,$41
10668  B471  F0 A0 41              BYTE    $F0,$A0,$41
10669  B474  A0 F5 35              BYTE    $A0,$F5,$35,$01
10670  B478  A0 F1 41              BYTE    $A0,$F1,$41
10671  B47B  A0 F1 41              BYTE    $A0,$F1,$41
10672  B47E  10 31 50              BYTE    $10,$31,$50,$61,$10,$31,$00,$41,$00
10673  B487  10 31 90              BYTE    $10,$31,$90,$01,$A0,$01,$20
10674  B48E  F6 F6                 BYTE    $F6,$F6
10675  B490  F6 F6                 BYTE    $F6,$F6
10676  B492  FF                    BYTE    $FF
10677  B493             
10678  B493             SCREEN_30_INFO_DATA 
10679  B493  1F 00 1D              BYTE    31,0,29,255  ;SALIDAS DE LA PANTALLA (IZQUIERDA, DERECHA, ARRIBA, ABAJO)
10680  B497  02                    BYTE    2
10681  B498  01 04 00              BYTE    SP_GOTA,SP_D,0,4,CYAN,7,4,11
10682  B4A0  14 03 01              BYTE    SP_PEZ,SP_UD,1,1,YELLOW,12,15,6
10683  B4A8             
10684  B4A8             ; SCREEN 34 - SCREEN 31 SCREEN DATA
10685  B4A8             SCREEN_31_SCREEN_DATA 
10686  B4A8  E6 E8 EB              BYTE    $E6,$E8,$EB,$DA,$DE,$E1,$DA,$DE,$E1,$E4,$00,$09,$E6,$E8,$EB,$DA,$DE,$E1,$DA,$DE,$E1,$E4,$DE,$E1,$DA
10687  B4C1  E7 E9 EC              BYTE    $E7,$E9,$EC,$F4,$DF,$E2,$DB,$DF,$E2,$E5,$00,$09,$E7,$E9,$EC,$F4,$DF,$E2,$DB,$DF,$E2,$E5,$DF,$E2,$DB
10688  B4DA  20 EA ED              BYTE    $20,$EA,$ED,$F5,$E0,$E3,$DC,$E0,$E3,$00,$0B,$EA,$ED,$F5,$E0,$E3,$DC,$E0,$E3,$20,$E0,$E3,$DC
10689  B4F1  00 06 DD              BYTE    $00,$06,$DD,$00,$12,$DD,$00,$05,$DD
10690  B4FA  00 20                 BYTE    $00,$20
10691  B4FC  00 20                 BYTE    $00,$20
10692  B4FE  00 20                 BYTE    $00,$20
10693  B500  00 20                 BYTE    $00,$20
10694  B502  00 20                 BYTE    $00,$20
10695  B504  00 20                 BYTE    $00,$20
10696  B506  00 20                 BYTE    $00,$20
10697  B508  00 17 45              BYTE    $00,$17,$45,$46,$47,$48,$00,$05
10698  B510  00 17 3E              BYTE    $00,$17,$3E,$3F,$40,$41,$00,$05
10699  B518  00 03 C3              BYTE    $00,$03,$C3,$C4,$00,$04,$84,$85,$86,$87,$00,$03,$80,$81,$00,$05,$42,$43,$4C,$D1,$00,$05
10700  B52E  F8 F8 F8              BYTE    $F8,$F8,$F8,$F8,$F8,$F8,$F8,$F8,$F8,$F8,$F8,$F8,$F8,$F8,$F8,$F8,$F8,$F8,$F8,$F8,$F8,$F8,$F8,$F8,$F8,$F8,$F8,$F8,$F8,$F8,$F8,$F8
10701  B54E  F8 F8 F8              BYTE    $F8,$F8,$F8,$F8,$F8,$F8,$F8,$F8,$F8,$F8,$F8,$F8,$F8,$F8,$F8,$F8,$F8,$F8,$F8,$F8,$F8,$F8,$F8,$F8,$F8,$F8,$F8,$F8,$F8,$F8,$F8,$F8
10702  B56E  FF                    BYTE    $FF
10703  B56F             
10704  B56F             ; SCREEN 34 - SCREEN 31 COLOUR DATA
10705  B56F             SCREEN_31_COLOUR_DATA 
10706  B56F  97 80 C7              BYTE    $97,$80,$C7
10707  B572  97 80 C7              BYTE    $97,$80,$C7
10708  B575  00 77 A0              BYTE    $00,$77,$A0,$B7
10709  B579  50 07 F0              BYTE    $50,$07,$F0,$10,$07,$40,$07
10710  B580  F0 F0                 BYTE    $F0,$F0
10711  B582  F0 F0                 BYTE    $F0,$F0
10712  B584  F0 F0                 BYTE    $F0,$F0
10713  B586  F0 F0                 BYTE    $F0,$F0
10714  B588  F0 F0                 BYTE    $F0,$F0
10715  B58A  F0 F0                 BYTE    $F0,$F0
10716  B58C  F0 F0                 BYTE    $F0,$F0
10717  B58E  F0 60 35              BYTE    $F0,$60,$35,$40
10718  B592  F0 50 41              BYTE    $F0,$50,$41,$40
10719  B596  10 23 30              BYTE    $10,$23,$30,$31,$20,$11,$30,$41,$40
10720  B59F  F6 F6                 BYTE    $F6,$F6
10721  B5A1  F6 F6                 BYTE    $F6,$F6
10722  B5A3  FF                    BYTE    $FF
10723  B5A4             
10724  B5A4             SCREEN_31_INFO_DATA 
10725  B5A4  20 1E 00              BYTE    32,30,0,255  ;SALIDAS DE LA PANTALLA (IZQUIERDA, DERECHA, ARRIBA, ABAJO)
10726  B5A8  03                    BYTE    3
10727  B5A9  01 04 00              BYTE    SP_GOTA,SP_D,0,4,CYAN,21,1,12
10728  B5B1  0C 03 01              BYTE    SP_BOLA,SP_UD,1,1,LIGHT_RED,11,15,11
10729  B5B9  14 03 01              BYTE    SP_PEZ,SP_UD,1,1,GREEN,24,15,8
10730  B5C1             
10731  B5C1             ; SCREEN 35 - SCREEN 32 SCREEN DATA
10732  B5C1             SCREEN_32_SCREEN_DATA 
10733  B5C1  20 E1 DA              BYTE    $20,$E1,$DA,$DE,$E1,$E4,$00,$0A,$D2,$D5,$D8,$DA,$DE,$E1,$E4,$E6,$E8,$EB,$DA,$DE,$E4,$00,$03
10734  B5D8  20 E2 DB              BYTE    $20,$E2,$DB,$DF,$E2,$E5,$00,$0A,$D3,$D6,$D9,$DB,$DF,$E2,$E5,$E7,$E9,$EC,$F4,$E4,$E5,$00,$03
10735  B5EF  20 E3 DC              BYTE    $20,$E3,$DC,$E0,$E3,$00,$0B,$D4,$D7,$20,$DC,$E0,$E3,$20,$20,$EA,$ED,$F5,$E5,$00,$04
10736  B604  20 20 DD              BYTE    $20,$20,$DD,$00,$10,$DD,$00,$0C
10737  B60C  00 20                 BYTE    $00,$20
10738  B60E  00 20                 BYTE    $00,$20
10739  B610  00 20                 BYTE    $00,$20
10740  B612  00 10 80              BYTE    $00,$10,$80,$81,$00,$0E
10741  B618  00 10 82              BYTE    $00,$10,$82,$83,$00,$0E
10742  B61E  00 10 80              BYTE    $00,$10,$80,$81,$84,$85,$86,$87,$00,$0A
10743  B628  00 10 82              BYTE    $00,$10,$82,$83,$88,$89,$8A,$8B,$00,$0A
10744  B632  20 20 80              BYTE    $20,$20,$80,$81,$00,$0C,$80,$81,$80,$81,$84,$85,$86,$87,$00,$08
10745  B642  20 20 82              BYTE    $20,$20,$82,$83,$00,$0C,$82,$83,$82,$83,$88,$89,$8A,$8B,$00,$08
10746  B652  20 20 80              BYTE    $20,$20,$80,$81,$84,$85,$86,$87,$00,$06,$80,$81,$84,$85,$86,$87,$80,$81,$84,$85,$86,$87,$84,$85,$86,$87,$20,$20
10747  B66E  F8 F8 F8              BYTE    $F8,$F8,$F8,$F8,$F8,$F8,$F8,$F8,$F8,$F8,$F8,$F8,$F8,$F8,$F8,$F8,$F8,$F8,$F8,$F8,$F8,$F8,$F8,$F8,$F8,$F8,$F8,$F8,$F8,$F8,$F8,$F8
10748  B68E  F8 F8 F8              BYTE    $F8,$F8,$F8,$F8,$F8,$F8,$F8,$F8,$F8,$F8,$F8,$F8,$F8,$F8,$F8,$F8,$F8,$F8,$F8,$F8,$F8,$F8,$F8,$F8,$F8,$F8,$F8,$F8,$F8,$F8,$F8,$F8
10749  B6AE  FF                    BYTE    $FF
10750  B6AF             
10751  B6AF             ; SCREEN 35 - SCREEN 32 COLOUR DATA
10752  B6AF             SCREEN_32_COLOUR_DATA 
10753  B6AF  57 90 C7              BYTE    $57,$90,$C7,$20
10754  B6B3  57 90 C7              BYTE    $57,$90,$C7,$20
10755  B6B7  47 A0 57              BYTE    $47,$A0,$57,$00,$47,$30
10756  B6BD  10 07 F0              BYTE    $10,$07,$F0,$07,$B0
10757  B6C2  F0 F0                 BYTE    $F0,$F0
10758  B6C4  F0 F0                 BYTE    $F0,$F0
10759  B6C6  F0 F0                 BYTE    $F0,$F0
10760  B6C8  F0 12 D0              BYTE    $F0,$12,$D0
10761  B6CB  F0 12 D0              BYTE    $F0,$12,$D0
10762  B6CE  F0 52 90              BYTE    $F0,$52,$90
10763  B6D1  F0 52 90              BYTE    $F0,$52,$90
10764  B6D4  10 12 B0              BYTE    $10,$12,$B0,$72,$70
10765  B6D9  10 12 B0              BYTE    $10,$12,$B0,$72,$70
10766  B6DE  10 52 50              BYTE    $10,$52,$50,$F2,$10
10767  B6E3  F6 F6                 BYTE    $F6,$F6
10768  B6E5  F6 F6                 BYTE    $F6,$F6
10769  B6E7  FF                    BYTE    $FF
10770  B6E8             
10771  B6E8             SCREEN_32_INFO_DATA 
10772  B6E8  21 1F 00              BYTE    33,31,0,255  ;SALIDAS DE LA PANTALLA (IZQUIERDA, DERECHA, ARRIBA, ABAJO)
10773  B6EC  03                    BYTE    3
10774  B6ED  14 03 02              BYTE    SP_PEZ,SP_UD,2,1,CYAN,13,15,8
10775  B6F5  14 03 01              BYTE    SP_PEZ,SP_UD,1,1,GREEN,15,15,5
10776  B6FD  14 03 00              BYTE    SP_PEZ,SP_UD,0,1,YELLOW,17,15,6
10777  B705             
10778  B705             ; SCREEN 36 - SCREEN 33 SCREEN DATA
10779  B705             SCREEN_33_SCREEN_DATA 
10780  B705  68 68 68              BYTE    $68,$68,$68,$68,$68,$DE,$E1,$E4,$E6,$E8,$EB,$DA,$E4,$00,$05,$D2,$DA,$DE,$DE,$E1,$EB,$DA,$DE,$DE,$E1,$DA,$DE,$E1,$E4
10781  B722  68 68 68              BYTE    $68,$68,$68,$68,$DE,$DF,$E2,$E5,$E7,$E9,$EC,$F4,$E5,$00,$05,$D3,$94,$95,$96,$97,$EC,$F4,$E4,$DF,$E2,$DB,$DF,$E2,$E5
10782  B73F  DA DE E1              BYTE    $DA,$DE,$E1,$E4,$E4,$E0,$E3,$20,$20,$EA,$ED,$F5,$00,$06,$D4,$98,$99,$9A,$9B,$ED,$F5,$E5,$E0,$E3,$DC,$E0,$E3,$20
10783  B75B  DB DF E2              BYTE    $DB,$DF,$E2,$E5,$E5,$00,$0E,$9C,$9D,$9E,$9F,$00,$05,$DD,$00,$03
10784  B76B  DC E0 E3              BYTE    $DC,$E0,$E3,$00,$1D
10785  B770  DD 00 1F              BYTE    $DD,$00,$1F
10786  B773  00 20                 BYTE    $00,$20
10787  B775  00 20                 BYTE    $00,$20
10788  B777  00 20                 BYTE    $00,$20
10789  B779  00 20                 BYTE    $00,$20
10790  B77B  00 03 45              BYTE    $00,$03,$45,$46,$47,$48,$00,$19
10791  B783  00 03 3E              BYTE    $00,$03,$3E,$3F,$40,$41,$00,$03,$45,$46,$47,$48,$00,$04,$45,$46,$47,$48,$00,$0A
10792  B797  00 03 42              BYTE    $00,$03,$42,$43,$4C,$D1,$00,$03,$42,$43,$4C,$D1,$00,$04,$3E,$3F,$40,$41,$00,$04,$45,$46,$47,$48,$20,$20
10793  B7B1  00 04 4E              BYTE    $00,$04,$4E,$4F,$00,$05,$4E,$4F,$00,$05,$42,$43,$4C,$D1,$00,$04,$42,$43,$4C,$D1,$20,$20
10794  B7C7  F8 F8 F8              BYTE    $F8,$F8,$F8,$F8,$F8,$F8,$F8,$F8,$F8,$F8,$F8,$F8,$F8,$F8,$F8,$F8,$F8,$F8,$F8,$F8,$F8,$F8,$F8,$F8,$F8,$F8,$F8,$F8,$F8,$F8,$F8,$F8
10795  B7E7  F8 F8 F8              BYTE    $F8,$F8,$F8,$F8,$F8,$F8,$F8,$F8,$F8,$F8,$F8,$F8,$F8,$F8,$F8,$F8,$F8,$F8,$F8,$F8,$F8,$F8,$F8,$F8,$F8,$F8,$F8,$F8,$F8,$F8,$F8,$F8
10796  B807  FF                    BYTE    $FF
10797  B808             
10798  B808             ; SCREEN 36 - SCREEN 33 COLOUR DATA
10799  B808             SCREEN_33_COLOUR_DATA 
10800  B808  C7 40 D7              BYTE    $C7,$40,$D7
10801  B80B  C7 40 07              BYTE    $C7,$40,$07,$31,$87
10802  B810  67 00 47              BYTE    $67,$00,$47,$40,$07,$31,$77,$00
10803  B818  47 D0 31              BYTE    $47,$D0,$31,$40,$07,$00,$17
10804  B81F  27 F0 C0              BYTE    $27,$F0,$C0
10805  B822  07 00 17              BYTE    $07,$00,$17,$F0,$B0
10806  B827  07 00 17              BYTE    $07,$00,$17,$F0,$B0
10807  B82C  F0 F0                 BYTE    $F0,$F0
10808  B82E  F0 F0                 BYTE    $F0,$F0
10809  B830  F0 F0                 BYTE    $F0,$F0
10810  B832  20 35 F0              BYTE    $20,$35,$F0,$80
10811  B836  20 31 20              BYTE    $20,$31,$20,$35,$30,$35,$90
10812  B83D  20 31 20              BYTE    $20,$31,$20,$31,$30,$31,$30,$35,$10
10813  B846  30 11 40              BYTE    $30,$11,$40,$11,$40,$31,$30,$31,$10
10814  B84F  F6 F6                 BYTE    $F6,$F6
10815  B851  F6 F6                 BYTE    $F6,$F6
10816  B853  FF                    BYTE    $FF
10817  B854             
10818  B854             SCREEN_33_INFO_DATA 
10819  B854  22 20 00              BYTE    34,32,0,255  ;SALIDAS DE LA PANTALLA (IZQUIERDA, DERECHA, ARRIBA, ABAJO)
10820  B858  03                    BYTE    3
10821  B859  01 04 00              BYTE    SP_GOTA,SP_D,0,4,CYAN,17,3,10
10822  B861  08 03 00              BYTE    SP_ARANA,SP_UD,0,1,YELLOW,24,10,5
10823  B869  14 03 00              BYTE    SP_PEZ,SP_UD,0,1,LIGHT_RED,20,15,8
10824  B871             
10825  B871             ; SCREEN 37 - SCREEN 34 SCREEN DATA
10826  B871             SCREEN_34_SCREEN_DATA 
10827  B871  CF DE E1              BYTE    $CF,$DE,$E1,$E4,$00,$07,$E4,$68,$68,$68,$68,$68,$68,$68,$68,$68,$68,$68,$68,$68,$68,$68,$68,$68,$68,$68,$68
10828  B88C  CE DF E2              BYTE    $CE,$DF,$E2,$E5,$00,$07,$E5,$E4,$DE,$E1,$DA,$68,$68,$68,$68,$68,$68,$68,$68,$68,$68,$68,$68,$68,$68,$68,$68
10829  B8A7  CB E0 E3              BYTE    $CB,$E0,$E3,$00,$09,$E5,$DF,$E2,$DB,$68,$68,$68,$68,$68,$68,$68,$68,$68,$68,$68,$68,$68,$68,$68,$68
10830  B8C0  CA 00 0C              BYTE    $CA,$00,$0C,$E0,$E3,$DC,$68,$68,$68,$68,$68,$68,$68,$68,$68,$68,$68,$68,$DA,$DE,$E1,$E4
10831  B8D6  C9 84 85              BYTE    $C9,$84,$85,$86,$87,$00,$05,$84,$85,$86,$87,$20,$DD,$D2,$D5,$D8,$68,$68,$68,$68,$68,$68,$68,$68,$68,$DB,$DF,$E2,$E5
10832  B8F3  C8 88 89              BYTE    $C8,$88,$89,$8A,$8B,$00,$05,$88,$89,$8A,$8B,$20,$20,$D3,$D6,$D9,$E6,$E8,$EB,$DA,$F4,$DA,$DE,$E1,$E4,$DC,$E0,$E3,$20
10833  B910  CD 00 0F              BYTE    $CD,$00,$0F,$D4,$D7,$20,$E7,$E9,$EC,$F4,$F5,$DB,$DF,$E2,$E5,$DD,$00,$03
10834  B922  CC 00 07              BYTE    $CC,$00,$07,$84,$85,$86,$87,$00,$08,$EA,$ED,$F5,$20,$DC,$E0,$E3,$00,$05
10835  B934  CB 00 07              BYTE    $CB,$00,$07,$88,$89,$8A,$8B,$00,$0C,$DD,$00,$07
10836  B940  CA 00 1F              BYTE    $CA,$00,$1F
10837  B943  C9 00 1F              BYTE    $C9,$00,$1F
10838  B946  80 81 84              BYTE    $80,$81,$84,$85,$86,$87,$00,$1A
10839  B94E  82 83 88              BYTE    $82,$83,$88,$89,$8A,$8B,$00,$13,$45,$46,$47,$48,$45,$20,$20
10840  B95D  84 85 86              BYTE    $84,$85,$86,$87,$80,$81,$84,$85,$86,$87,$80,$81,$00,$06,$45,$46,$47,$48,$00,$03,$42,$43,$4C,$4C,$D1,$20,$20
10841  B978  F8 F8 F8              BYTE    $F8,$F8,$F8,$F8,$F8,$F8,$F8,$F8,$F8,$F8,$F8,$F8,$F8,$F8,$F8,$F8,$F8,$F8,$F8,$F8,$F8,$F8,$F8,$F8,$F8,$F8,$F8,$F8,$F8,$F8,$F8,$F8
10842  B998  F8 F8 F8              BYTE    $F8,$F8,$F8,$F8,$F8,$F8,$F8,$F8,$F8,$F8,$F8,$F8,$F8,$F8,$F8,$F8,$F8,$F8,$F8,$F8,$F8,$F8,$F8,$F8,$F8,$F8,$F8,$F8,$F8,$F8,$F8,$F8
10843  B9B8  FF                    BYTE    $FF
10844  B9B9             
10845  B9B9             ; SCREEN 37 - SCREEN 34 COLOUR DATA
10846  B9B9             SCREEN_34_COLOUR_DATA 
10847  B9B9  37 60 F7              BYTE    $37,$60,$F7,$47
10848  B9BD  37 60 F7              BYTE    $37,$60,$F7,$47
10849  B9C1  27 80 F7              BYTE    $27,$80,$F7,$37
10850  B9C5  07 B0 F7              BYTE    $07,$B0,$F7,$27
10851  B9C9  07 31 40              BYTE    $07,$31,$40,$31,$00,$F7,$07
10852  B9D0  07 31 40              BYTE    $07,$31,$40,$31,$10,$E7,$00
10853  B9D7  07 E0 C7              BYTE    $07,$E0,$C7,$20
10854  B9DB  07 60 31              BYTE    $07,$60,$31,$70,$27,$00,$27,$40
10855  B9E3  07 60 31              BYTE    $07,$60,$31,$B0,$07,$00,$17,$30
10856  B9EB  07 F0 E0              BYTE    $07,$F0,$E0
10857  B9EE  07 F0 E0              BYTE    $07,$F0,$E0
10858  B9F1  51 F0 90              BYTE    $51,$F0,$90
10859  B9F4  51 F0 20              BYTE    $51,$F0,$20,$45,$10
10860  B9F9  B1 50 45              BYTE    $B1,$50,$45,$10,$41,$10
10861  B9FF  F6 F6                 BYTE    $F6,$F6
10862  BA01  F6 F6                 BYTE    $F6,$F6
10863  BA03  FF                    BYTE    $FF
10864  BA04             
10865  BA04             SCREEN_34_INFO_DATA 
10866  BA04  00 21 23              BYTE    0,33,35,255  ;SALIDAS DE LA PANTALLA (IZQUIERDA, DERECHA, ARRIBA, ABAJO)
10867  BA08  03                    BYTE    3
10868  BA09  01 04 01              BYTE    SP_GOTA,SP_D,1,4,WHITE,23,8,12
10869  BA11  06 01 01              BYTE    SP_SERPIENTE,SP_LR,1,1,LIGHT_RED,9,10,5
10870  BA19  14 03 00              BYTE    SP_PEZ,SP_UD,0,1,CYAN,19,15,10
10871  BA21             
10872  BA21             ; SCREEN 38 - SCREEN 35 SCREEN DATA
10873  BA21             SCREEN_35_SCREEN_DATA 
10874  BA21  4C D0 45              BYTE    $4C,$D0,$45,$46,$47,$48,$45,$46,$47,$48,$45,$46,$47,$48,$45,$46,$47,$48,$45,$46,$47,$48,$45,$46,$00,$04,$E4,$DE,$E1,$DA
10875  BA3F  CF D1 00              BYTE    $CF,$D1,$00,$1A,$E5,$DF,$E2,$DB
10876  BA47  CE 00 1C              BYTE    $CE,$00,$1C,$E0,$E3,$3B
10877  BA4D  CB 00 1E              BYTE    $CB,$00,$1E,$3A
10878  BA51  CA A5 A6              BYTE    $CA,$A5,$A6,$00,$03,$84,$85,$86,$87,$84,$85,$86,$87,$84,$85,$86,$87,$80,$81,$84,$85,$86,$87,$80,$81,$84,$85,$86,$80,$81,$3D
10879  BA70  C9 A7 A8              BYTE    $C9,$A7,$A8,$00,$03,$88,$89,$8A,$8B,$88,$89,$8A,$8B,$88,$89,$8A,$8B,$82,$83,$88,$89,$8A,$8B,$82,$83,$88,$89,$8A,$82,$83,$4E
10880  BA8F  C8 A9 AA              BYTE    $C8,$A9,$AA,$00,$1C,$3C
10881  BA95  CD AB AC              BYTE    $CD,$AB,$AC,$00,$1C,$3B
10882  BA9B  CC 84 85              BYTE    $CC,$84,$85,$86,$87,$84,$85,$86,$87,$80,$81,$84,$85,$86,$87,$84,$85,$86,$87,$84,$85,$86,$87,$00,$04,$84,$85,$86,$87,$3A
10883  BAB9  CB 88 89              BYTE    $CB,$88,$89,$8A,$8B,$88,$89,$8A,$8B,$82,$83,$88,$89,$8A,$8B,$88,$89,$8A,$8B,$88,$89,$8A,$8B,$00,$04,$88,$89,$8A,$8B,$3D
10884  BAD7  CA 00 1C              BYTE    $CA,$00,$1C,$A5,$A6,$3C
10885  BADD  C9 00 1C              BYTE    $C9,$00,$1C,$A7,$A8,$3C
10886  BAE3  CA 00 18              BYTE    $CA,$00,$18,$84,$85,$86,$87,$A9,$AA,$3C
10887  BAED  C9 00 18              BYTE    $C9,$00,$18,$88,$89,$8A,$8B,$AB,$AC,$3B
10888  BAF7  C8 85 86              BYTE    $C8,$85,$86,$87,$00,$07,$84,$85,$86,$87,$80,$81,$84,$85,$86,$87,$84,$85,$86,$87,$80,$81,$84,$85,$86,$87,$3A
10889  BB12  C7 89 8A              BYTE    $C7,$89,$8A,$8B,$00,$07,$88,$89,$8A,$8B,$82,$83,$88,$89,$8A,$8B,$88,$89,$8A,$8B,$82,$83,$88,$89,$8A,$8B,$3D
10890  BB2D  FF                    BYTE    $FF
10891  BB2E             
10892  BB2E             ; SCREEN 38 - SCREEN 35 COLOUR DATA
10893  BB2E             SCREEN_35_COLOUR_DATA 
10894  BB2E  F3 93 10              BYTE    $F3,$93,$10,$33
10895  BB32  13 F0 90              BYTE    $13,$F0,$90,$33
10896  BB36  03 F0 B0              BYTE    $03,$F0,$B0,$23
10897  BB3A  03 F0 D0              BYTE    $03,$F0,$D0,$03
10898  BB3E  03 11 20              BYTE    $03,$11,$20,$F1,$81,$03
10899  BB44  03 11 20              BYTE    $03,$11,$20,$F1,$81,$03
10900  BB4A  03 11 F0              BYTE    $03,$11,$F0,$B0,$03
10901  BB4F  03 11 F0              BYTE    $03,$11,$F0,$B0,$03
10902  BB54  03 F1 51              BYTE    $03,$F1,$51,$30,$31,$03
10903  BB5A  03 F1 51              BYTE    $03,$F1,$51,$30,$31,$03
10904  BB60  03 F1 51              BYTE    $03,$F1,$51,$30,$31,$03
10905  BB66  03 F0 B0              BYTE    $03,$F0,$B0,$11,$03
10906  BB6B  03 40 13              BYTE    $03,$40,$13,$F0,$00,$51,$03
10907  BB72  03 40 13              BYTE    $03,$40,$13,$F0,$00,$51,$03
10908  BB79  03 21 10              BYTE    $03,$21,$10,$13,$20,$F1,$31,$03
10909  BB81  03 21 10              BYTE    $03,$21,$10,$13,$20,$F1,$31,$03
10910  BB89  FF                    BYTE    $FF
10911  BB8A             
10912  BB8A             SCREEN_35_INFO_DATA 
10913  BB8A  00 00 24              BYTE    0,0,36,34  ;SALIDAS DE LA PANTALLA (IZQUIERDA, DERECHA, ARRIBA, ABAJO)
10914  BB8E  03                    BYTE    3
10915  BB8F  01 04 01              BYTE    SP_GOTA,SP_D,1,3,GREEN,28,7,13
10916  BB97  09 01 00              BYTE    SP_MOMIA,SP_LR,0,1,YELLOW,26,13,18
10917  BB9F  15 02 00              BYTE    SP_FLECHA,SP_R,0,1,LIGHT_RED,6,3,32
10918  BBA7             
10919  BBA7             ; SCREEN 39 - SCREEN 36 SCREEN DATA
10920  BBA7             SCREEN_36_SCREEN_DATA 
10921  BBA7  84 85 86              BYTE    $84,$85,$86,$87,$84,$85,$86,$87,$84,$85,$86,$87,$80,$81,$84,$85,$86,$87,$84,$85,$86,$87,$80,$81,$84,$85,$86,$87,$84,$85,$86,$87
10922  BBC7  88 89 8A              BYTE    $88,$89,$8A,$8B,$88,$89,$8A,$8B,$88,$89,$8A,$8B,$82,$83,$88,$89,$8A,$8B,$88,$89,$8A,$8B,$82,$83,$88,$89,$8A,$8B,$88,$89,$8A,$8B
10923  BBE7  A5 A6 68              BYTE    $A5,$A6,$68,$68,$00,$05,$02,$03,$05,$06,$07,$08,$F8,$F8,$F8,$F8,$F8,$F8,$F8,$F8,$F8,$F8,$F8,$F8,$F8,$F8,$F8,$A5,$A6
10924  BC04  A7 A8 68              BYTE    $A7,$A8,$68,$68,$00,$05,$0A,$0B,$0D,$0F,$11,$12,$F8,$F8,$F8,$F8,$F8,$F8,$F8,$F8,$F8,$F8,$F8,$F8,$F8,$F8,$F8,$A7,$A8
10925  BC21  A9 AA 00              BYTE    $A9,$AA,$00,$07,$15,$17,$18,$19,$1A,$54,$00,$0F,$A9,$AA
10926  BC2F  AB AC 00              BYTE    $AB,$AC,$00,$07,$55,$56,$57,$58,$59,$5A,$00,$0F,$AB,$AC
10927  BC3D  A5 A6 00              BYTE    $A5,$A6,$00,$07,$5B,$5C,$5D,$5E,$5F,$60,$00,$0F,$A5,$A6
10928  BC4B  A7 A8 00              BYTE    $A7,$A8,$00,$07,$62,$63,$F9,$FA,$FB,$FC,$00,$0F,$A7,$A8
10929  BC59  A9 AA 00              BYTE    $A9,$AA,$00,$06,$80,$81,$84,$85,$86,$87,$80,$81,$84,$85,$86,$87,$84,$85,$86,$87,$84,$85,$86,$87,$80,$81,$A9,$AA
10930  BC75  AB AC 00              BYTE    $AB,$AC,$00,$06,$82,$83,$88,$89,$8A,$8B,$82,$83,$88,$89,$8A,$8B,$88,$89,$8A,$8B,$88,$89,$8A,$8B,$82,$83,$AB,$AC
10931  BC91  A5 A6 00              BYTE    $A5,$A6,$00,$04,$80,$81,$84,$85,$86,$87,$84,$85,$86,$87,$00,$0E,$A5,$A6
10932  BCA3  A7 A8 00              BYTE    $A7,$A8,$00,$04,$82,$83,$88,$89,$8A,$8B,$88,$89,$8A,$8B,$00,$0E,$A7,$A8
10933  BCB5  A9 AA 00              BYTE    $A9,$AA,$00,$1C,$A9,$AA
10934  BCBB  AB AC 00              BYTE    $AB,$AC,$00,$1C,$AB,$AC
10935  BCC1  84 85 86              BYTE    $84,$85,$86,$87,$84,$85,$86,$87,$80,$81,$84,$85,$86,$87,$84,$85,$86,$87,$80,$81,$84,$85,$86,$87,$00,$04,$84,$85,$86,$87
10936  BCDF  88 89 8A              BYTE    $88,$89,$8A,$8B,$88,$89,$8A,$8B,$82,$83,$88,$89,$8A,$8B,$88,$89,$8A,$8B,$82,$83,$88,$89,$8A,$8B,$00,$04,$88,$89,$8A,$8B
10937  BCFD  FF                    BYTE    $FF
10938  BCFE             
10939  BCFE             ; SCREEN 39 - SCREEN 36 COLOUR DATA
10940  BCFE             SCREEN_36_COLOUR_DATA 
10941  BCFE  F1 F1                 BYTE    $F1,$F1
10942  BD00  F1 F1                 BYTE    $F1,$F1
10943  BD02  11 16 40              BYTE    $11,$16,$40,$55,$27,$23,$25,$24,$22,$11
10944  BD0C  11 16 40              BYTE    $11,$16,$40,$55,$27,$23,$25,$24,$22,$11
10945  BD16  11 60 55              BYTE    $11,$60,$55,$E0,$11
10946  BD1B  11 60 55              BYTE    $11,$60,$55,$E0,$11
10947  BD20  11 60 55              BYTE    $11,$60,$55,$E0,$11
10948  BD25  11 60 55              BYTE    $11,$60,$55,$E0,$11
10949  BD2A  11 50 F1              BYTE    $11,$50,$F1,$71
10950  BD2E  11 50 F1              BYTE    $11,$50,$F1,$71
10951  BD32  11 30 91              BYTE    $11,$30,$91,$D0,$11
10952  BD37  11 30 91              BYTE    $11,$30,$91,$D0,$11
10953  BD3C  11 F0 B0              BYTE    $11,$F0,$B0,$11
10954  BD40  11 F0 B0              BYTE    $11,$F0,$B0,$11
10955  BD44  F1 71 30              BYTE    $F1,$71,$30,$31
10956  BD48  F1 71 30              BYTE    $F1,$71,$30,$31
10957  BD4C  FF                    BYTE    $FF
10958  BD4D             
10959  BD4D             SCREEN_36_INFO_DATA 
10960  BD4D  00 00 00              BYTE    0,0,0,35  ;SALIDAS DE LA PANTALLA (IZQUIERDA, DERECHA, ARRIBA, ABAJO)
10961  BD51  03                    BYTE    3
10962  BD52  01 04 02              BYTE    SP_GOTA,SP_D,2,5,CYAN,33,11,13
10963  BD5A  3A 00 01              BYTE    SP_LOCK_8,SP_NONE,1,8,WHITE,7,3
10964  BD61  03 01 01              BYTE    SP_PLANO,SP_LR,1,2,GREEN,25,13,18
10965  BD69             
10966  BD69             ; SCREEN 40 - SCREEN 37 SCREEN DATA
10967  BD69             SCREEN_37_SCREEN_DATA 
10968  BD69  40 41 40              BYTE    $40,$41,$40,$41,$40,$41,$40,$41,$40,$41,$40,$41,$40,$41,$40,$41,$40,$41,$40,$41,$40,$41,$40,$41,$40,$41,$40,$41,$40,$41,$40,$41
10969  BD89  41 40 41              BYTE    $41,$40,$41,$40,$41,$40,$41,$40,$41,$40,$41,$40,$41,$40,$41,$40,$41,$40,$41,$40,$41,$40,$41,$40,$41,$40,$41,$40,$41,$40,$41,$40
10970  BDA9  40 41 20              BYTE    $40,$41,$20,$20,$40,$41,$68,$68,$00,$12,$94,$95,$96,$97,$40,$41
10971  BDB9  41 40 20              BYTE    $41,$40,$20,$20,$41,$40,$68,$68,$00,$12,$98,$99,$9A,$9B,$41,$40
10972  BDC9  40 41 20              BYTE    $40,$41,$20,$20,$40,$41,$00,$14,$9C,$9D,$9E,$9F,$40,$41
10973  BDD7  41 40 20              BYTE    $41,$40,$20,$20,$41,$40,$00,$18,$41,$40
10974  BDE1  40 41 20              BYTE    $40,$41,$20,$20,$40,$41,$00,$14,$68,$68,$20,$20,$40,$41
10975  BDEF  41 40 20              BYTE    $41,$40,$20,$20,$41,$40,$00,$14,$68,$68,$20,$20,$41,$40
10976  BDFD  40 41 20              BYTE    $40,$41,$20,$20,$40,$41,$00,$07,$62,$60,$61,$63,$00,$06,$62,$60,$61,$63,$00,$03,$40,$41
10977  BE13  41 40 20              BYTE    $41,$40,$20,$20,$41,$40,$00,$07,$68,$5E,$5F,$68,$00,$06,$68,$5E,$5F,$68,$00,$03,$41,$40
10978  BE29  40 41 20              BYTE    $40,$41,$20,$20,$40,$41,$40,$41,$00,$05,$68,$5C,$5D,$68,$00,$06,$68,$5C,$5D,$68,$00,$03,$40,$41
10979  BE41  41 40 20              BYTE    $41,$40,$20,$20,$41,$40,$41,$40,$00,$05,$58,$59,$5A,$5B,$00,$06,$58,$59,$5A,$5B,$00,$03,$41,$40
10980  BE59  40 41 00              BYTE    $40,$41,$00,$0B,$54,$55,$56,$57,$20,$20,$40,$41,$20,$20,$54,$55,$56,$57,$00,$03,$40,$41
10981  BE6F  41 40 00              BYTE    $41,$40,$00,$0B,$50,$51,$52,$53,$20,$20,$41,$40,$20,$20,$50,$51,$52,$53,$00,$03,$41,$40
10982  BE85  40 41 40              BYTE    $40,$41,$40,$41,$40,$41,$40,$41,$40,$41,$40,$41,$40,$41,$40,$41,$40,$41,$40,$41,$40,$41,$40,$41,$40,$41,$40,$41,$40,$41,$40,$41
10983  BEA5  41 40 41              BYTE    $41,$40,$41,$40,$41,$40,$41,$40,$41,$40,$41,$40,$41,$40,$41,$40,$41,$40,$41,$40,$41,$40,$41,$40,$41,$40,$41,$40,$41,$40,$41,$40
10984  BEC5  FF                    BYTE    $FF
10985  BEC6             
10986  BEC6             ; SCREEN 40 - SCREEN 37 COLOUR DATA
10987  BEC6             SCREEN_37_COLOUR_DATA 
10988  BEC6  F3 F3                 BYTE    $F3,$F3
10989  BEC8  F3 F3                 BYTE    $F3,$F3
10990  BECA  13 10 13              BYTE    $13,$10,$13,$E6,$40,$31,$13
10991  BED1  13 10 13              BYTE    $13,$10,$13,$E6,$40,$31,$13
10992  BED8  13 10 13              BYTE    $13,$10,$13,$C0,$16,$40,$31,$13
10993  BEE0  13 10 13              BYTE    $13,$10,$13,$C0,$16,$80,$13
10994  BEE7  13 10 13              BYTE    $13,$10,$13,$C0,$16,$40,$36,$13
10995  BEEF  13 10 13              BYTE    $13,$10,$13,$C0,$16,$10,$21,$36,$13
10996  BEF8  13 10 13              BYTE    $13,$10,$13,$60,$31,$10,$16,$10,$31,$00,$16,$13
10997  BF04  13 10 13              BYTE    $13,$10,$13,$70,$11,$20,$16,$20,$11,$10,$16,$13
10998  BF10  13 10 33              BYTE    $13,$10,$33,$50,$11,$20,$16,$20,$11,$10,$16,$13
10999  BF1C  13 10 33              BYTE    $13,$10,$33,$40,$31,$10,$16,$10,$31,$00,$16,$13
11000  BF28  13 A0 31              BYTE    $13,$A0,$31,$10,$13,$10,$31,$00,$16,$13
11001  BF32  13 A0 3A              BYTE    $13,$A0,$3A,$10,$13,$10,$3A,$00,$16,$13
11002  BF3C  F3 F3                 BYTE    $F3,$F3
11003  BF3E  F3 F3                 BYTE    $F3,$F3
11004  BF40  FF                    BYTE    $FF
11005  BF41             
11006  BF41             SCREEN_37_INFO_DATA 
11007  BF41  00 00 00              BYTE    0,0,0,0  ;SALIDAS DE LA PANTALLA (IZQUIERDA, DERECHA, ARRIBA, ABAJO)
11008  BF45  05                    BYTE    5
11009  BF46  63 00 01              BYTE    SP_KEY_9,SP_NONE,1,1,WHITE,30,7
11010  BF4D  3B 00 01              BYTE    SP_LOCK_9,SP_NONE,1,8,WHITE,11,3
11011  BF54  01 04 01              BYTE    SP_GOTA,SP_D,1,3,LIGHT_RED,19,3,7
11012  BF5C  02 01 00              BYTE    SP_MURCIELAGO,SP_LR,0,1,YELLOW,29,7,20
11013  BF64  0C 01 01              BYTE    SP_BOLA,SP_LR,1,1,GREEN,15,6,10
11014  BF6C             
11015  BF6C             ; SCREEN 41 - SCREEN 38 SCREEN DATA
11016  BF6C             SCREEN_38_SCREEN_DATA 
11017  BF6C  4C 4F 50              BYTE    $4C,$4F,$50,$51,$52,$53,$50,$51,$52,$53,$50,$51,$52,$53,$50,$51,$52,$53,$50,$51,$52,$53,$50,$51,$52,$53,$50,$51,$50,$51,$52,$53
11018  BF8C  4D 4E 7D              BYTE    $4D,$4E,$7D,$00,$1D
11019  BF91  3A 3B 7D              BYTE    $3A,$3B,$7D,$00,$1D
11020  BF96  3C 3D 7D              BYTE    $3C,$3D,$7D,$00,$1D
11021  BF9B  3E 3F 7D              BYTE    $3E,$3F,$7D,$00,$1D
11022  BFA0  75 76 7D              BYTE    $75,$76,$7D,$00,$1D
11023  BFA5  24 25 7D              BYTE    $24,$25,$7D,$00,$05,$7D,$00,$06,$7D,$00,$10
11024  BFB0  26 27 7D              BYTE    $26,$27,$7D,$00,$05,$7D,$00,$06,$7D,$00,$10
11025  BFBB  28 29 7D              BYTE    $28,$29,$7D,$00,$05,$7D,$00,$06,$7D,$00,$10
11026  BFC6  2A 2B 7D              BYTE    $2A,$2B,$7D,$00,$04,$7D,$7D,$00,$06,$7D,$7D,$00,$0F
11027  BFD3  3A 3B 7D              BYTE    $3A,$3B,$7D,$00,$04,$7D,$00,$08,$7D,$00,$0F
11028  BFDE  3C 3D 7D              BYTE    $3C,$3D,$7D,$00,$04,$7D,$2C,$2D,$1B,$1C,$1F,$21,$2C,$2D,$7D,$00,$0F
11029  BFEF  28 29 7D              BYTE    $28,$29,$7D,$00,$04,$7D,$2E,$2F,$1D,$1E,$22,$23,$2E,$2F,$7D,$00,$0F
11030  C000  2A 2B 50              BYTE    $2A,$2B,$50,$51,$52,$53,$50,$51,$52,$53,$50,$51,$52,$53,$50,$51,$52,$53,$50,$51,$52,$53,$50,$51,$52,$53,$50,$51,$50,$51,$52,$53
11031  C020  3A 3B 1F              BYTE    $3A,$3B,$1F,$21,$2C,$2D,$4C,$4F,$3E,$3F,$1F,$21,$2C,$2D,$1F,$21,$2C,$2D,$4C,$4F,$3E,$3F,$1F,$21,$2C,$2D,$1B,$1C,$1F,$21,$2C,$2D
11032  C040  3C 3D 22              BYTE    $3C,$3D,$22,$23,$2E,$2F,$4D,$4E,$75,$76,$22,$23,$2E,$2F,$22,$23,$2E,$2F,$4D,$4E,$75,$76,$22,$23,$2E,$2F,$1D,$1E,$22,$23,$2E,$2F
11033  C060  FF                    BYTE    $FF
11034  C061             
11035  C061             ; SCREEN 41 - SCREEN 38 COLOUR DATA
11036  C061             SCREEN_38_COLOUR_DATA 
11037  C061  11 F7 D7              BYTE    $11,$F7,$D7
11038  C064  11 07 F0              BYTE    $11,$07,$F0,$C0
11039  C068  11 07 40              BYTE    $11,$07,$40,$15,$F0,$50
11040  C06E  11 07 40              BYTE    $11,$07,$40,$15,$F0,$50
11041  C074  11 07 40              BYTE    $11,$07,$40,$15,$F0,$50
11042  C07A  11 07 40              BYTE    $11,$07,$40,$15,$F0,$50
11043  C080  11 07 40              BYTE    $11,$07,$40,$05,$01,$40,$05,$F0
11044  C088  11 07 40              BYTE    $11,$07,$40,$05,$01,$40,$05,$F0
11045  C090  11 07 40              BYTE    $11,$07,$40,$15,$10,$21,$05,$31,$B0
11046  C099  11 07 20              BYTE    $11,$07,$20,$35,$10,$21,$15,$21,$B0
11047  C0A2  11 07 20              BYTE    $11,$07,$20,$15,$00,$05,$50,$05,$E0
11048  C0AB  11 07 20              BYTE    $11,$07,$20,$15,$71,$05,$E0
11049  C0B2  11 07 20              BYTE    $11,$07,$20,$15,$71,$05,$E0
11050  C0B9  11 F7 D7              BYTE    $11,$F7,$D7
11051  C0BC  F1 F1                 BYTE    $F1,$F1
11052  C0BE  F1 F1                 BYTE    $F1,$F1
11053  C0C0  FF                    BYTE    $FF
11054  C0C1             
11055  C0C1             SCREEN_38_INFO_DATA 
11056  C0C1  00 27 00              BYTE    0,39,0,0  ;SALIDAS DE LA PANTALLA (IZQUIERDA, DERECHA, ARRIBA, ABAJO)
11057  C0C5  05                    BYTE    5
11058  C0C6  08 01 00              BYTE    SP_ARANA,SP_LR,0,1,CYAN,33,12,22
11059  C0CE  08 01 01              BYTE    SP_ARANA,SP_LR,1,1,GREEN,33,12,23
11060  C0D6  01 04 00              BYTE    SP_GOTA,SP_D,0,4,WHITE,16,2,8
11061  C0DE  0A 00 00              BYTE    SP_PINCHOS_1,SP_NONE,0,0,BLUE,15,10
11062  C0E5  0B 00 00              BYTE    SP_PINCHOS_2,SP_NONE,0,0,BLUE,18,10
11063  C0EC             
11064  C0EC             ; SCREEN 42 - SCREEN 39 SCREEN DATA
11065  C0EC             SCREEN_39_SCREEN_DATA 
11066  C0EC  50 51 52              BYTE    $50,$51,$52,$53,$50,$51,$52,$53,$50,$51,$52,$53,$50,$51,$52,$53,$50,$51,$52,$53,$50,$51,$52,$53,$50,$51,$52,$53,$50,$51,$52,$53
11067  C10C  00 0A 50              BYTE    $00,$0A,$50,$51,$52,$53,$50,$51,$52,$53,$50,$51,$52,$53,$00,$0A
11068  C11C  00 0B B1              BYTE    $00,$0B,$B1,$B2,$B1,$B2,$B1,$B2,$B1,$B2,$B1,$B2,$00,$0B
11069  C12A  00 0B C3              BYTE    $00,$0B,$C3,$C4,$20,$20,$C3,$C4,$20,$20,$C3,$C4,$00,$0B
11070  C138  00 0B C5              BYTE    $00,$0B,$C5,$C6,$20,$20,$C5,$C6,$20,$20,$C5,$C6,$00,$0B
11071  C146  00 20                 BYTE    $00,$20
11072  C148  00 20                 BYTE    $00,$20
11073  C14A  00 20                 BYTE    $00,$20
11074  C14C  00 20                 BYTE    $00,$20
11075  C14E  00 20                 BYTE    $00,$20
11076  C150  00 20                 BYTE    $00,$20
11077  C152  00 0B C3              BYTE    $00,$0B,$C3,$C4,$20,$20,$C3,$C4,$20,$20,$C3,$C4,$00,$0B
11078  C160  00 0B C5              BYTE    $00,$0B,$C5,$C6,$20,$20,$C5,$C6,$20,$20,$C5,$C6,$00,$0B
11079  C16E  50 51 52              BYTE    $50,$51,$52,$53,$50,$51,$52,$53,$00,$03,$B1,$B2,$B1,$B2,$B1,$B2,$B1,$B2,$B1,$B2,$00,$0B
11080  C184  84 85 86              BYTE    $84,$85,$86,$87,$80,$81,$84,$85,$86,$87,$84,$85,$86,$87,$80,$81,$84,$85,$86,$87,$84,$85,$86,$87,$80,$81,$84,$85,$86,$87,$80,$81
11081  C1A4  88 89 8A              BYTE    $88,$89,$8A,$8B,$82,$83,$88,$89,$8A,$8B,$88,$89,$8A,$8B,$82,$83,$88,$89,$8A,$8B,$88,$89,$8A,$8B,$82,$83,$88,$89,$8A,$8B,$82,$83
11082  C1C4  FF                    BYTE    $FF
11083  C1C5             
11084  C1C5             ; SCREEN 42 - SCREEN 39 COLOUR DATA
11085  C1C5             SCREEN_39_COLOUR_DATA 
11086  C1C5  F7 F7                 BYTE    $F7,$F7
11087  C1C7  90 B3 90              BYTE    $90,$B3,$90
11088  C1CA  A0 91 A0              BYTE    $A0,$91,$A0
11089  C1CD  A0 15 10              BYTE    $A0,$15,$10,$13,$10,$14,$A0
11090  C1D4  A0 15 10              BYTE    $A0,$15,$10,$13,$10,$14,$A0
11091  C1DB  F0 F0                 BYTE    $F0,$F0
11092  C1DD  F0 F0                 BYTE    $F0,$F0
11093  C1DF  F0 F0                 BYTE    $F0,$F0
11094  C1E1  F0 F0                 BYTE    $F0,$F0
11095  C1E3  F0 F0                 BYTE    $F0,$F0
11096  C1E5  F0 F0                 BYTE    $F0,$F0
11097  C1E7  A0 15 10              BYTE    $A0,$15,$10,$13,$10,$14,$A0
11098  C1EE  A0 15 10              BYTE    $A0,$15,$10,$13,$10,$14,$A0
11099  C1F5  77 20 91              BYTE    $77,$20,$91,$A0
11100  C1F9  F1 F1                 BYTE    $F1,$F1
11101  C1FB  F1 F1                 BYTE    $F1,$F1
11102  C1FD  FF                    BYTE    $FF
11103  C1FE             
11104  C1FE             SCREEN_39_INFO_DATA 
11105  C1FE  26 28 00              BYTE    38,40,0,0  ;SALIDAS DE LA PANTALLA (IZQUIERDA, DERECHA, ARRIBA, ABAJO)
11106  C202  03                    BYTE    3
11107  C203  0E 03 00              BYTE    SP_RAYO,SP_UD,0,1,WHITE,16,10,5
11108  C20B  0E 03 01              BYTE    SP_RAYO,SP_UD,1,2,YELLOW,20,10,5
11109  C213  16 04 00              BYTE    SP_RAYO_2,SP_D,0,2,GREEN,24,6,10
11110  C21B             
11111  C21B             ; SCREEN 43 - SCREEN 40 SCREEN DATA
11112  C21B             SCREEN_40_SCREEN_DATA 
11113  C21B  50 51 52              BYTE    $50,$51,$52,$53,$50,$51,$52,$53,$50,$51,$52,$53,$50,$51,$52,$53,$50,$51,$52,$53,$50,$51,$52,$53,$50,$51,$52,$53,$E4,$DE,$E1,$DA
11114  C23B  00 18 94              BYTE    $00,$18,$94,$95,$96,$97,$E5,$DF,$E2,$DB
11115  C245  00 18 98              BYTE    $00,$18,$98,$99,$9A,$9B,$20,$E0,$E3,$3B
11116  C24F  00 18 9C              BYTE    $00,$18,$9C,$9D,$9E,$9F,$00,$03,$4E
11117  C258  00 1F 3C              BYTE    $00,$1F,$3C
11118  C25B  00 1F 3B              BYTE    $00,$1F,$3B
11119  C25E  00 10 A5              BYTE    $00,$10,$A5,$A6,$00,$0D,$3A
11120  C265  00 10 A7              BYTE    $00,$10,$A7,$A8,$00,$0D,$3D
11121  C26C  00 09 A5              BYTE    $00,$09,$A5,$A6,$00,$05,$A9,$AA,$00,$0D,$3C
11122  C277  00 09 A7              BYTE    $00,$09,$A7,$A8,$00,$05,$AB,$AC,$00,$0D,$3C
11123  C282  00 09 A9              BYTE    $00,$09,$A9,$AA,$00,$05,$A5,$A6,$80,$81,$00,$0B,$3C
11124  C28F  00 09 AB              BYTE    $00,$09,$AB,$AC,$00,$05,$A7,$A8,$82,$83,$00,$0B,$3B
11125  C29C  00 07 84              BYTE    $00,$07,$84,$85,$86,$87,$80,$81,$00,$03,$A9,$AA,$84,$85,$86,$87,$00,$09,$3A
11126  C2AF  00 07 88              BYTE    $00,$07,$88,$89,$8A,$8B,$82,$83,$00,$03,$AB,$AC,$88,$89,$8A,$8B,$00,$09,$3D
11127  C2C2  84 84 85              BYTE    $84,$84,$85,$86,$87,$84,$85,$86,$87,$84,$85,$86,$87,$00,$03,$84,$85,$86,$87,$84,$85,$86,$87,$00,$04,$84,$85,$86,$87
11128  C2DF  88 88 89              BYTE    $88,$88,$89,$8A,$8B,$88,$89,$8A,$8B,$88,$89,$8A,$8B,$00,$03,$88,$89,$8A,$8B,$88,$89,$8A,$8B,$00,$04,$88,$89,$8A,$8B
11129  C2FC  FF                    BYTE    $FF
11130  C2FD             
11131  C2FD             ; SCREEN 43 - SCREEN 40 COLOUR DATA
11132  C2FD             SCREEN_40_COLOUR_DATA 
11133  C2FD  F7 B7 31              BYTE    $F7,$B7,$31
11134  C300  F0 70 71              BYTE    $F0,$70,$71
11135  C303  F0 70 31              BYTE    $F0,$70,$31,$00,$21
11136  C308  F0 70 31              BYTE    $F0,$70,$31,$20,$01
11137  C30D  F0 E0 01              BYTE    $F0,$E0,$01
11138  C310  F0 E0 01              BYTE    $F0,$E0,$01
11139  C313  F0 12 C0              BYTE    $F0,$12,$C0,$01
11140  C317  F0 12 C0              BYTE    $F0,$12,$C0,$01
11141  C31B  80 12 40              BYTE    $80,$12,$40,$12,$C0,$01
11142  C321  80 12 40              BYTE    $80,$12,$40,$12,$C0,$01
11143  C327  80 12 40              BYTE    $80,$12,$40,$32,$A0,$01
11144  C32D  80 12 40              BYTE    $80,$12,$40,$32,$A0,$01
11145  C333  40 11 52              BYTE    $40,$11,$52,$20,$52,$80,$01
11146  C33A  40 11 52              BYTE    $40,$11,$52,$20,$52,$40,$32,$01
11147  C342  C2 20 72              BYTE    $C2,$20,$72,$20,$42
11148  C347  C2 20 72              BYTE    $C2,$20,$72,$20,$42
11149  C34C  FF                    BYTE    $FF
11150  C34D             
11151  C34D             SCREEN_40_INFO_DATA 
11152  C34D  27 00 00              BYTE    39,0,0,41  ;SALIDAS DE LA PANTALLA (IZQUIERDA, DERECHA, ARRIBA, ABAJO)
11153  C351  03                    BYTE    3
11154  C352  04 03 00              BYTE    SP_MOSCAS,SP_UD,0,1,CYAN,8,13,8
11155  C35A  02 01 00              BYTE    SP_MURCIELAGO,SP_LR,0,1,YELLOW,26,5,17
11156  C362  08 03 00              BYTE    SP_ARANA,SP_UD,0,1,GREEN,28,13,7
11157  C36A             
11158  C36A             ; SCREEN 44 - SCREEN 41 SCREEN DATA
11159  C36A             SCREEN_41_SCREEN_DATA 
11160  C36A  84 84 85              BYTE    $84,$84,$85,$86,$87,$80,$81,$84,$85,$86,$87,$80,$81,$00,$03,$84,$85,$86,$87,$84,$85,$86,$87,$00,$04,$84,$85,$86,$87
11161  C387  88 88 89              BYTE    $88,$88,$89,$8A,$8B,$82,$83,$88,$89,$8A,$8B,$82,$83,$00,$03,$88,$89,$8A,$8B,$88,$89,$8A,$8B,$00,$04,$88,$89,$8A,$8B
11162  C3A4  80 81 02              BYTE    $80,$81,$02,$03,$05,$06,$00,$18,$A5,$A6
11163  C3AE  82 83 07              BYTE    $82,$83,$07,$08,$0A,$0B,$00,$18,$A7,$A8
11164  C3B8  A5 A6 0D              BYTE    $A5,$A6,$0D,$0F,$11,$12,$00,$18,$A9,$AA
11165  C3C2  A7 A8 15              BYTE    $A7,$A8,$15,$17,$18,$19,$00,$18,$AB,$AC
11166  C3CC  A9 AA 54              BYTE    $A9,$AA,$54,$55,$56,$57,$00,$13,$80,$81,$00,$03,$80,$81
11167  C3DA  AB AC 58              BYTE    $AB,$AC,$58,$59,$5A,$5B,$00,$13,$82,$83,$00,$03,$82,$83
11168  C3E8  A5 A6 84              BYTE    $A5,$A6,$84,$85,$86,$87,$00,$18,$A5,$A6
11169  C3F2  A7 A8 88              BYTE    $A7,$A8,$88,$89,$8A,$8B,$00,$18,$A7,$A8
11170  C3FC  A9 AA 00              BYTE    $A9,$AA,$00,$09,$A5,$A6,$00,$11,$A9,$AA
11171  C406  AB AC 00              BYTE    $AB,$AC,$00,$09,$A7,$A8,$00,$11,$AB,$AC
11172  C410  A5 A6 00              BYTE    $A5,$A6,$00,$07,$80,$81,$A9,$AA,$00,$11,$A5,$A6
11173  C41C  A7 A8 00              BYTE    $A7,$A8,$00,$07,$82,$83,$AB,$AC,$00,$11,$A7,$A8
11174  C428  A9 AA 00              BYTE    $A9,$AA,$00,$04,$84,$85,$86,$84,$85,$86,$87,$00,$03,$84,$85,$86,$87,$84,$85,$86,$87,$80,$81,$84,$85,$86,$87,$A9,$AA
11175  C445  AB AC 00              BYTE    $AB,$AC,$00,$04,$88,$89,$8A,$88,$89,$8A,$8B,$00,$03,$88,$89,$8A,$8B,$88,$89,$8A,$8B,$82,$83,$88,$89,$8A,$8B,$AB,$AC
11176  C462  FF                    BYTE    $FF
11177  C463             
11178  C463             ; SCREEN 44 - SCREEN 41 COLOUR DATA
11179  C463             SCREEN_41_COLOUR_DATA 
11180  C463  C4 20 74              BYTE    $C4,$20,$74,$30,$34
11181  C468  C4 20 74              BYTE    $C4,$20,$74,$30,$34
11182  C46D  11 35 F0              BYTE    $11,$35,$F0,$70,$11
11183  C472  11 15 07              BYTE    $11,$15,$07,$05,$F0,$70,$11
11184  C479  11 05 27              BYTE    $11,$05,$27,$F0,$70,$11
11185  C47F  11 05 27              BYTE    $11,$05,$27,$F0,$70,$11
11186  C485  11 05 27              BYTE    $11,$05,$27,$F0,$20,$11,$20,$11
11187  C48D  11 35 F0              BYTE    $11,$35,$F0,$20,$11,$20,$11
11188  C494  51 F0 70              BYTE    $51,$F0,$70,$11
11189  C498  51 F0 70              BYTE    $51,$F0,$70,$11
11190  C49C  11 80 11              BYTE    $11,$80,$11,$F0,$00,$11
11191  C4A2  11 80 11              BYTE    $11,$80,$11,$F0,$00,$11
11192  C4A8  11 60 31              BYTE    $11,$60,$31,$F0,$00,$11
11193  C4AE  11 60 31              BYTE    $11,$60,$31,$F0,$00,$11
11194  C4B4  11 30 61              BYTE    $11,$30,$61,$20,$F1
11195  C4B9  11 30 61              BYTE    $11,$30,$61,$20,$F1
11196  C4BE  FF                    BYTE    $FF
11197  C4BF             
11198  C4BF             SCREEN_41_INFO_DATA 
11199  C4BF  00 00 28              BYTE    0,0,40,42  ;SALIDAS DE LA PANTALLA (IZQUIERDA, DERECHA, ARRIBA, ABAJO)
11200  C4C3  03                    BYTE    3
11201  C4C4  08 01 00              BYTE    SP_ARANA,SP_LR,0,1,GREEN,32,13,21
11202  C4CC  08 01 00              BYTE    SP_ARANA,SP_LR,0,1,CYAN,31,13,21
11203  C4D4  08 01 01              BYTE    SP_ARANA,SP_LR,1,1,WHITE,32,13,22
11204  C4DC             
11205  C4DC             ; SCREEN 45 - SCREEN 42 SCREEN DATA
11206  C4DC             SCREEN_42_SCREEN_DATA 
11207  C4DC  80 81 00              BYTE    $80,$81,$00,$04,$84,$85,$86,$87,$80,$81,$81,$00,$03,$80,$81,$84,$85,$86,$87,$84,$85,$86,$87,$84,$85,$86,$87,$80,$81
11208  C4F9  82 83 00              BYTE    $82,$83,$00,$04,$88,$89,$8A,$8B,$82,$83,$83,$00,$03,$82,$83,$88,$89,$8A,$8B,$88,$89,$8A,$8B,$88,$89,$8A,$8B,$82,$83
11209  C516  A5 A6 00              BYTE    $A5,$A6,$00,$1C,$A5,$A6
11210  C51C  A7 A8 00              BYTE    $A7,$A8,$00,$1C,$A7,$A8
11211  C522  A9 AA 00              BYTE    $A9,$AA,$00,$0E,$80,$81,$84,$85,$86,$87,$00,$08,$A9,$AA
11212  C530  AB AC 00              BYTE    $AB,$AC,$00,$0E,$82,$83,$88,$89,$8A,$8B,$00,$08,$AB,$AC
11213  C53E  84 85 86              BYTE    $84,$85,$86,$87,$84,$85,$86,$87,$84,$85,$86,$87,$87,$00,$03,$84,$85,$86,$87,$80,$81,$00,$08,$A5,$A6
11214  C557  88 89 8A              BYTE    $88,$89,$8A,$8B,$88,$89,$8A,$8B,$88,$89,$8A,$8B,$8B,$00,$03,$88,$89,$8A,$8B,$82,$83,$00,$08,$A7,$A8
11215  C570  00 10 80              BYTE    $00,$10,$80,$81,$84,$85,$86,$87,$20,$20,$02,$03,$05,$06,$07,$08,$A9,$AA
11216  C582  00 10 82              BYTE    $00,$10,$82,$83,$88,$89,$8A,$8B,$20,$20,$0A,$0B,$0D,$0F,$11,$12,$AB,$AC
11217  C594  00 10 84              BYTE    $00,$10,$84,$85,$86,$87,$80,$81,$20,$20,$15,$17,$18,$19,$1A,$54,$80,$81
11218  C5A6  00 10 88              BYTE    $00,$10,$88,$89,$8A,$8B,$82,$83,$20,$20,$55,$56,$57,$58,$59,$5A,$82,$83
11219  C5B8  00 18 5B              BYTE    $00,$18,$5B,$5C,$5D,$5E,$5F,$60,$A5,$A6
11220  C5C2  00 18 62              BYTE    $00,$18,$62,$63,$F9,$FA,$FB,$FC,$A7,$A8
11221  C5CC  84 85 86              BYTE    $84,$85,$86,$87,$80,$81,$84,$85,$86,$84,$85,$86,$87,$00,$03,$84,$85,$86,$87,$84,$85,$86,$87,$84,$85,$86,$87,$80,$81,$A9,$AA
11222  C5EB  88 89 8A              BYTE    $88,$89,$8A,$8B,$82,$83,$88,$89,$8A,$88,$89,$8A,$8B,$00,$03,$88,$89,$8A,$8B,$88,$89,$8A,$8B,$88,$89,$8A,$8B,$82,$83,$AB,$AC
11223  C60A  FF                    BYTE    $FF
11224  C60B             
11225  C60B             ; SCREEN 45 - SCREEN 42 COLOUR DATA
11226  C60B             SCREEN_42_COLOUR_DATA 
11227  C60B  11 30 61              BYTE    $11,$30,$61,$20,$F1
11228  C610  11 30 61              BYTE    $11,$30,$61,$20,$F1
11229  C615  11 F0 B0              BYTE    $11,$F0,$B0,$11
11230  C619  11 F0 B0              BYTE    $11,$F0,$B0,$11
11231  C61D  11 D0 51              BYTE    $11,$D0,$51,$70,$11
11232  C622  11 D0 51              BYTE    $11,$D0,$51,$70,$11
11233  C627  C1 20 51              BYTE    $C1,$20,$51,$70,$11
11234  C62C  C1 20 51              BYTE    $C1,$20,$51,$70,$11
11235  C631  70 31 30              BYTE    $70,$31,$30,$51,$10,$55,$11
11236  C638  70 31 30              BYTE    $70,$31,$30,$51,$10,$55,$11
11237  C63F  F0 51 10              BYTE    $F0,$51,$10,$55,$11
11238  C644  F0 51 10              BYTE    $F0,$51,$10,$55,$11
11239  C649  F0 70 55              BYTE    $F0,$70,$55,$11
11240  C64D  F0 70 55              BYTE    $F0,$70,$55,$11
11241  C651  C1 20 F1              BYTE    $C1,$20,$F1
11242  C654  C1 20 F1              BYTE    $C1,$20,$F1
11243  C657  FF                    BYTE    $FF
11244  C658             
11245  C658             SCREEN_42_INFO_DATA 
11246  C658  2B 00 29              BYTE    43,0,41,32  ;SALIDAS DE LA PANTALLA (IZQUIERDA, DERECHA, ARRIBA, ABAJO)
11247  C65C  03                    BYTE    3
11248  C65D  01 04 01              BYTE    SP_GOTA,SP_D,1,1,GREEN,8,9,13
11249  C665  01 04 01              BYTE    SP_GOTA,SP_D,1,2,YELLOW,12,9,13
11250  C66D  01 04 01              BYTE    SP_GOTA,SP_D,1,4,CYAN,16,9,13
11251  C675             
11252  C675             ; SCREEN 46 - SCREEN 43 SCREEN DATA
11253  C675             SCREEN_43_SCREEN_DATA 
11254  C675  B3 B4 B5              BYTE    $B3,$B4,$B5,$B6,$B3,$B4,$B5,$B6,$B3,$B4,$B5,$B6,$B3,$B4,$B5,$B6,$B3,$B4,$B5,$B6,$B3,$B4,$B5,$B6,$B3,$B4,$B5,$B6,$B3,$B4,$B5,$B6
11255  C695  B7 B8 B9              BYTE    $B7,$B8,$B9,$BA,$B7,$B8,$B9,$BA,$B7,$B8,$B9,$BA,$B7,$B8,$B9,$BA,$B7,$B8,$B9,$BA,$B7,$B8,$B9,$BA,$B7,$B8,$B9,$BA,$B7,$B8,$B9,$BA
11256  C6B5  80 81 84              BYTE    $80,$81,$84,$85,$86,$87,$84,$85,$86,$87,$00,$09,$A5,$A6,$68,$68,$A5,$A6,$00,$05,$80,$81
11257  C6CB  82 83 88              BYTE    $82,$83,$88,$89,$8A,$8B,$88,$89,$8A,$8B,$00,$09,$A7,$A8,$68,$68,$A7,$A8,$00,$05,$82,$83
11258  C6E1  84 85 86              BYTE    $84,$85,$86,$87,$84,$85,$86,$87,$00,$08,$E3,$E4,$20,$A9,$AA,$20,$20,$A9,$AA,$20,$E3,$E4,$20,$20,$A5,$A6
11259  C6FB  88 89 8A              BYTE    $88,$89,$8A,$8B,$88,$89,$8A,$8B,$00,$07,$E5,$E6,$E7,$E8,$AB,$AC,$C3,$C4,$AB,$AC,$E5,$E6,$E7,$E8,$20,$A7,$A8
11260  C716  80 81 84              BYTE    $80,$81,$84,$85,$86,$87,$00,$09,$E9,$EA,$EB,$EC,$20,$20,$C5,$C6,$20,$20,$E9,$EA,$EB,$EC,$20,$A9,$AA
11261  C72F  82 83 88              BYTE    $82,$83,$88,$89,$8A,$8B,$00,$09,$ED,$EE,$EF,$F0,$00,$06,$ED,$EE,$EF,$F0,$20,$AB,$AC
11262  C744  00 0F F1              BYTE    $00,$0F,$F1,$F2,$F3,$F4,$00,$06,$F1,$F2,$F3,$F4,$00,$03
11263  C752  00 0F F5              BYTE    $00,$0F,$F5,$F6,$F7,$F8,$00,$06,$F5,$F6,$F7,$F8,$00,$03
11264  C760  00 0F 50              BYTE    $00,$0F,$50,$51,$52,$53,$00,$06,$50,$51,$52,$53,$00,$03
11265  C76E  00 20                 BYTE    $00,$20
11266  C770  00 20                 BYTE    $00,$20
11267  C772  00 15 68              BYTE    $00,$15,$68,$68,$00,$09
11268  C778  84 85 86              BYTE    $84,$85,$86,$84,$85,$86,$80,$81,$00,$05,$80,$81,$84,$85,$86,$87,$80,$81,$84,$85,$86,$84,$85,$86,$87,$84,$85,$86,$87
11269  C795  88 89 8A              BYTE    $88,$89,$8A,$88,$89,$8A,$82,$83,$00,$05,$82,$83,$88,$89,$8A,$8B,$82,$83,$88,$89,$8A,$88,$89,$8A,$8B,$88,$89,$8A,$8B
11270  C7B2  FF                    BYTE    $FF
11271  C7B3             
11272  C7B3             ; SCREEN 46 - SCREEN 43 COLOUR DATA
11273  C7B3             SCREEN_43_COLOUR_DATA 
11274  C7B3  F1 F1                 BYTE    $F1,$F1
11275  C7B5  F1 F1                 BYTE    $F1,$F1
11276  C7B7  92 80 12              BYTE    $92,$80,$12,$16,$12,$40,$12
11277  C7BE  92 80 12              BYTE    $92,$80,$12,$16,$12,$40,$12
11278  C7C5  72 70 17              BYTE    $72,$70,$17,$00,$12,$11,$12,$00,$17,$10,$12
11279  C7D0  72 40 57              BYTE    $72,$40,$57,$12,$17,$12,$37,$00,$12
11280  C7D9  52 60 57              BYTE    $52,$60,$57,$10,$17,$10,$37,$00,$12
11281  C7E2  52 60 57              BYTE    $52,$60,$57,$10,$17,$10,$37,$00,$12
11282  C7EB  C0 57 50              BYTE    $C0,$57,$50,$37,$20
11283  C7F0  C0 57 50              BYTE    $C0,$57,$50,$37,$20
11284  C7F5  C0 55 50              BYTE    $C0,$55,$50,$35,$20
11285  C7FA  00 31 F0              BYTE    $00,$31,$F0,$A0
11286  C7FE  00 31 F0              BYTE    $00,$31,$F0,$A0
11287  C802  F0 F0                 BYTE    $F0,$F0
11288  C804  B1 00 F1              BYTE    $B1,$00,$F1,$21
11289  C808  B1 00 F1              BYTE    $B1,$00,$F1,$21
11290  C80C  FF                    BYTE    $FF
11291  C80D             
11292  C80D             SCREEN_43_INFO_DATA 
11293  C80D  2C 2A 00              BYTE    44,42,0,33  ;SALIDAS DE LA PANTALLA (IZQUIERDA, DERECHA, ARRIBA, ABAJO)
11294  C811  05                    BYTE    5
11295  C812  3D 00 00              BYTE    SP_LOCK_10_2,SP_NONE,0,8,WHITE,26,3
11296  C819  3C 00 00              BYTE    SP_LOCK_10,SP_NONE,0,8,PURPLE,26,13
11297  C820  01 04 00              BYTE    SP_GOTA,SP_D,0,1,CYAN,18,3,13
11298  C828  06 01 02              BYTE    SP_SERPIENTE,SP_LR,2,1,GREEN,10,13,6
11299  C830  0E 04 01              BYTE    SP_RAYO,SP_D,1,2,WHITE,26,8,8
11300  C838             
11301  C838             
11302  C838             ; SCREEN 47 - SCREEN 44 SCREEN DATA
11303  C838             SCREEN_44_SCREEN_DATA 
11304  C838  84 85 86              BYTE    $84,$85,$86,$87,$80,$81,$84,$85,$86,$87,$84,$85,$86,$87,$80,$81,$84,$85,$86,$87,$80,$81,$84,$85,$86,$87,$84,$85,$86,$87,$80,$81
11305  C858  88 89 8A              BYTE    $88,$89,$8A,$8B,$82,$83,$88,$89,$8A,$8B,$88,$89,$8A,$8B,$82,$83,$88,$89,$8A,$8B,$82,$83,$88,$89,$8A,$8B,$88,$89,$8A,$8B,$82,$83
11306  C878  80 81 84              BYTE    $80,$81,$84,$85,$86,$87,$80,$81,$00,$04,$3A,$3B,$3C,$3D,$20,$20,$84,$85,$86,$87,$80,$81,$84,$85,$86,$87,$84,$85,$86,$87
11307  C896  82 83 88              BYTE    $82,$83,$88,$89,$8A,$8B,$82,$83,$00,$04,$3E,$3F,$40,$41,$20,$20,$88,$89,$8A,$8B,$82,$83,$88,$89,$8A,$8B,$88,$89,$8A,$8B
11308  C8B4  84 85 86              BYTE    $84,$85,$86,$87,$A0,$A1,$A2,$A3,$00,$03,$42,$43,$44,$40,$45,$00,$06,$84,$85,$86,$87,$84,$85,$86,$87,$80,$81
11309  C8CF  88 89 8A              BYTE    $88,$89,$8A,$8B,$A4,$A5,$A6,$A7,$20,$20,$46,$47,$48,$49,$4A,$4B,$00,$06,$88,$89,$8A,$8B,$88,$89,$8A,$8B,$82,$83
11310  C8EB  80 81 20              BYTE    $80,$81,$20,$20,$A8,$A9,$AA,$AB,$20,$20,$4C,$4D,$4E,$4F,$50,$51,$52,$00,$0B,$84,$85,$86,$87
11311  C902  82 83 00              BYTE    $82,$83,$00,$09,$53,$54,$55,$56,$57,$58,$00,$0B,$88,$89,$8A,$8B
11312  C912  80 81 40              BYTE    $80,$81,$40,$40,$00,$07,$59,$5A,$40,$5B,$40,$5C,$00,$0F
11313  C920  82 83 40              BYTE    $82,$83,$40,$40,$00,$08,$5D,$5E,$5F,$60,$61,$00,$0F
11314  C92D  80 81 00              BYTE    $80,$81,$00,$09,$8C,$8D,$8E,$8F,$20,$90,$00,$0F
11315  C939  82 83 00              BYTE    $82,$83,$00,$09,$91,$92,$93,$94,$95,$96,$00,$0F
11316  C945  80 81 00              BYTE    $80,$81,$00,$0A,$97,$98,$99,$9A,$9B,$00,$0F
11317  C950  82 83 00              BYTE    $82,$83,$00,$1E
11318  C954  84 85 86              BYTE    $84,$85,$86,$87,$80,$81,$00,$0E,$80,$81,$84,$85,$86,$87,$84,$85,$86,$87,$80,$81
11319  C968  88 89 8A              BYTE    $88,$89,$8A,$8B,$82,$83,$9C,$9D,$9E,$9F,$9C,$9D,$9E,$9F,$9C,$9D,$9E,$9F,$9C,$9D,$82,$83,$88,$89,$8A,$8B,$88,$89,$8A,$8B,$82,$83
11320  C988  FF                    BYTE    $FF
11321  C989             
11322  C989             ; SCREEN 47 - SCREEN 44 COLOUR DATA
11323  C989             SCREEN_44_COLOUR_DATA 
11324  C989  F1 F1                 BYTE    $F1,$F1
11325  C98B  F1 F1                 BYTE    $F1,$F1
11326  C98D  72 30 35              BYTE    $72,$30,$35,$10,$D2
11327  C992  72 30 35              BYTE    $72,$30,$35,$10,$D2
11328  C997  32 31 20              BYTE    $32,$31,$20,$45,$50,$92
11329  C99D  32 31 00              BYTE    $32,$31,$00,$65,$50,$92
11330  C9A3  12 10 31              BYTE    $12,$10,$31,$00,$75,$A0,$32
11331  C9AA  12 60 75              BYTE    $12,$60,$75,$A0,$32
11332  C9AF  12 16 60              BYTE    $12,$16,$60,$55,$E0
11333  C9B4  12 16 70              BYTE    $12,$16,$70,$45,$E0
11334  C9B9  12 80 35              BYTE    $12,$80,$35,$00,$05,$E0
11335  C9BF  12 80 55              BYTE    $12,$80,$55,$E0
11336  C9C3  12 90 45              BYTE    $12,$90,$45,$E0
11337  C9C7  12 F0 10              BYTE    $12,$F0,$10,$B1
11338  C9CB  51 D0 B1              BYTE    $51,$D0,$B1
11339  C9CE  51 D7 B1              BYTE    $51,$D7,$B1
11340  C9D1  FF                    BYTE    $FF
11341  C9D2             
11342  C9D2             SCREEN_44_INFO_DATA 
11343  C9D2  00 2B 00              BYTE    0,43,0,0  ;SALIDAS DE LA PANTALLA (IZQUIERDA, DERECHA, ARRIBA, ABAJO)
11344  C9D6  04                    BYTE    4
11345  C9D7  08 03 00              BYTE    SP_ARANA,SP_UD,0,1,YELLOW,11,13,8
11346  C9DF  08 01 00              BYTE    SP_ARANA,SP_LR,0,1,GREEN,31,13,26
11347  C9E7  01 04 00              BYTE    SP_GOTA,SP_D,0,1,WHITE,25,5,13
11348  C9EF  64 00 00              BYTE    SP_KEY_10,SP_NONE,0,1,WHITE,6,9
11349  C9F6             
11350  C9F6             ; SCREEN 48 - SCREEN 45 SCREEN DATA
11351  C9F6             SCREEN_45_SCREEN_DATA 
11352  C9F6  B8 B4 BE              BYTE    $B8,$B4,$BE,$B4,$BA,$B9,$20,$AE,$C0,$B8,$BB,$B7,$B4,$AF,$AC,$20,$B5,$BA,$B9,$B0,$BE,$B6,$20,$B3,$AC,$BE,$20,$BD,$BA,$BF,$BA,$20
11353  CA16  00 20                 BYTE    $00,$20
11354  CA18  00 03 B7              BYTE    $00,$03,$B7,$AC,$20,$B8,$AC,$B7,$AF,$B4,$AE,$BA,$B9,$20,$AF,$B0,$20,$AC,$AD,$C0,$20,$BE,$B4,$B8,$AD,$B0,$B7,$B6,$00,$03
11355  CA36  00 20                 BYTE    $00,$20
11356  CA38  B8 AC BE              BYTE    $B8,$AC,$BE,$20,$AE,$BA,$B8,$BA,$20,$BE,$AC,$B7,$AF,$BD,$AC,$BE,$20,$AC,$B3,$BA,$BD,$AC,$20,$AF,$B0,$B7,$20,$BF,$B0,$B8,$BB,$BA
11357  CA58  00 20                 BYTE    $00,$20
11358  CA5A  00 20                 BYTE    $00,$20
11359  CA5C  00 0B 15              BYTE    $00,$0B,$15,$19,$1C,$00,$09,$2A,$00,$08
11360  CA66  00 06 03              BYTE    $00,$06,$03,$06,$08,$0B,$0F,$12,$18,$1B,$1E,$1E,$21,$22,$22,$23,$24,$25,$27,$29,$00,$08
11361  CA7C  00 06 02              BYTE    $00,$06,$02,$05,$07,$0A,$0D,$11,$17,$1A,$1D,$1F,$1F,$1D,$1F,$1F,$1D,$1F,$26,$28,$00,$08
11362  CA92  00 06 D7              BYTE    $00,$06,$D7,$D9,$DB,$DD,$D7,$D9,$DB,$DD,$D7,$D9,$DB,$DD,$D7,$D9,$DB,$DD,$D7,$D9,$DB,$DD,$00,$06
11363  CAAA  00 06 D8              BYTE    $00,$06,$D8,$DA,$DC,$DE,$D8,$DA,$DC,$DE,$D8,$DA,$DC,$DE,$D8,$DA,$DC,$DE,$D8,$DA,$DC,$DE,$00,$06
11364  CAC2  00 03 84              BYTE    $00,$03,$84,$85,$86,$87,$84,$85,$86,$87,$84,$85,$86,$87,$84,$85,$86,$87,$84,$85,$86,$87,$84,$85,$86,$87,$80,$81,$00,$03
11365  CAE0  00 03 88              BYTE    $00,$03,$88,$89,$8A,$8B,$88,$89,$8A,$8B,$88,$89,$8A,$8B,$88,$89,$8A,$8B,$88,$89,$8A,$8B,$88,$89,$8A,$8B,$82,$83,$00,$03
11366  CAFE  84 85 86              BYTE    $84,$85,$86,$87,$80,$81,$84,$85,$86,$87,$84,$85,$86,$87,$84,$85,$86,$87,$84,$85,$86,$87,$80,$81,$84,$85,$86,$87,$84,$85,$86,$87
11367  CB1E  88 89 8A              BYTE    $88,$89,$8A,$8B,$82,$83,$88,$89,$8A,$8B,$88,$89,$8A,$8B,$88,$89,$8A,$8B,$88,$89,$8A,$8B,$82,$83,$88,$89,$8A,$8B,$88,$89,$8A,$8B
11368  CB3E  FF                    BYTE    $FF
11369  CB3F             
11370  CB3F             ; SCREEN 48 - SCREEN 45 COLOUR DATA
11371  CB3F             SCREEN_45_COLOUR_DATA 
11372  CB3F  51 00 71              BYTE    $51,$00,$71,$00,$E1,$00
11373  CB45  10 F1 C1              BYTE    $10,$F1,$C1,$00
11374  CB49  F1 01 00              BYTE    $F1,$01,$00,$21,$00,$81,$00
11375  CB50  F0 F0                 BYTE    $F0,$F0
11376  CB52  21 00 31              BYTE    $21,$00,$31,$00,$61,$00,$81,$00,$41
11377  CB5B  A0 25 80              BYTE    $A0,$25,$80,$01,$70
11378  CB60  A0 25 80              BYTE    $A0,$25,$80,$01,$70
11379  CB65  A0 25 80              BYTE    $A0,$25,$80,$01,$70
11380  CB6A  50 17 31              BYTE    $50,$17,$31,$1A,$83,$01,$10,$05,$40
11381  CB73  50 37 3A              BYTE    $50,$37,$3A,$83,$01,$10,$05,$40
11382  CB7B  40 03 F5              BYTE    $40,$03,$F5,$35,$03,$40
11383  CB81  40 03 F5              BYTE    $40,$03,$F5,$35,$03,$40
11384  CB87  10 F1 A1              BYTE    $10,$F1,$A1,$20
11385  CB8B  10 F1 A1              BYTE    $10,$F1,$A1,$20
11386  CB8F  F1 F1                 BYTE    $F1,$F1
11387  CB91  F1 F1                 BYTE    $F1,$F1
11388  CB93  FF                    BYTE    $FF
11389  CB94             
11390  CB94             SCREEN_45_INFO_DATA 
11391  CB94  00 00 00              BYTE    0,0,0,0  ;SALIDAS DE LA PANTALLA (IZQUIERDA, DERECHA, ARRIBA, ABAJO)
11392  CB98  00                    BYTE    0
11393  CB99             
11394  CB99             

******* 713 Label(s) *******
.BlockedDown = $0EF6 
.BlockedLeft = $0DCA 
.BlockedRight = $0E2C 
.BlockedUp = $0E93 
.CanMoveDown = $0E99 
.CanMoveLeft = $0D6E 
.CanMoveRight = $0DD0 
.CanMoveUp = $0E32 
.CheckCanMoveDown = $0EB1 
.CheckCanMoveLeft = $0D75 
.CheckCanMoveRight = $0DE6 
.CheckCanMoveUp = $0E48 
.CheckDiagonal = $1D2D 
.CheckDown = $1D1E 
.CheckDownRight = $1D3E 
.CheckLeft = $1D4F 
.CheckRight = $1D5C 
.CheckUp = $1D05 
.ClearPlayScreenColorLoop = $0C57 
.ClearPlayScreenLoop = $0C42 
.ClearScoreScreenColorLoop = $0C7C 
.ClearScoreScreenLoop = $0C70 
.continueJump = $1CDF 
.CopyCharsetDone = $1C68 
.endCheckDiagonal = $1DA1 
.endCheckDown = $1D4C 
.FallComplete = $1D80 
.FallLoop = $1D73 
.FallMoveLeft = $1D9E 
.FallMoveRight = $1D98 
.FallSpeedAtMax = $1D8A 
.JumpBlocked = $1CF0 
.JumpComplete = $1D8A 
.JumpContinue = $1CE1 
.JumpOn = $1CC9 
.JumpStopped = $1D8A 
.loadScorePanelColorLoop1 = $19B4 
.loadScorePanelDataLoop1 = $1999 
.NextLine = $1C49 
.NoBlocking = $2572 
.NoChangeInExtendedFlagLeft = $0F0C 
.NoChangeInExtendedFlagRight = $0F2A 
.NoCharStep = $0DE2 
.NoCharStepDown = $0EAB 
.NoCharStepUp = $0E44 
.NoDirectionPressed = $1D8A 
.NoSecondCharCheckNeededDown = $0ECF 
.NoSecondCharCheckNeededUp = $0E67 
.NotFalling = $1D00 
.NoThirdCharCheckNeededLeft = $0D95 
.NoThirdCharCheckNeededRight = $0E04 
.NotJumping = $1CF8 
.NoXBit = $195C 
.PageBoundaryNotReached = $1C5B 
.PlayerFell = $1D69 
.PlayerIsJumping = $1CB3 
.SpriteLoop = $1C80 
.WaitStep2 = $1C19 
.WaitStep22 = $1C2B 
abrirPuerta = $0F92 
actualizarEstadoPuerta = $113A 
ADDR_SPRITE_KEY_1 = $6880 
ADDR_SPRITE_KEY_10 = $80C0 
ADDR_SPRITE_KEY_2 = $7280 
ADDR_SPRITE_KEY_3 = $7500 
ADDR_SPRITE_KEY_4 = $7680 
ADDR_SPRITE_KEY_5 = $77C0 
ADDR_SPRITE_KEY_6 = $7880 
ADDR_SPRITE_KEY_7 = $7C40 
ADDR_SPRITE_KEY_8 = $7D00 
ADDR_SPRITE_KEY_9 = $8000 
anim1 = $1881 
anim2 = $1896 
animar = $187C 
animateDoubleSprite = $1864 
AnimateEnemy = $0CE1 
animatePlayerJump = $1910 
animatePlayerJumpLeft = $191B 
animatePlayerJumpRight = $1921 
animatePlayerLeft = $18BC 
animatePlayerLookFront = $1933 
animatePlayerLookLeft = $192D 
animatePlayerLookRight = $1927 
animatePlayerRight = $18E6 
animateSimpleSprite = $18A9 
animateSoloBajada = $1837 
animateSprite = $15FA 
aplicarCambios = $09DB 
BIT_TABLE = $28BB 
BITMAP_COLOR_DATA = $34AA 
borraEnemigos = $1B70 
borraFila1 = $13DE 
borraFila2 = $13F1 
borraPantalla = $0C2C 
borrarInventario = $13D2 
borraZonaJuego = $0C3B 
borraZonaMarcador = $0C6C 
bucle = $1549 
bucle2 = $159F 
bucleCheckCollision = $0F6A 
bucleColor = $1A2D 
bucleColoreaInstrucciones = $1A1E 
bucleColores = $1B06 
bucleDatoColor = $1B22 
bucleDatos = $1A99 
bucleEscribirDato = $1ABC 
bucleEscribirInstruccionesDato = $19F8 
bucleEspera = $1105 
bucleEsperaCambioPantalla = $0C25 
bucleInstruccionesDatos = $19DD 
bucleLinea = $1A2F 
bufferLleno = $096D 
BuildInstrucciones = $19BE 
BuildScorePanel = $1987 
BuildScreen = $1A4E 
CalcSpritePosFromCharPos = $1939 
calculaDecenas = $0A03 
cambiaDecenas = $15E4 
cambiarSprite = $1603 
cargaCoordenadaY = $1BE1 
cargarArana = $2426 
cargarAro = $246E 
cargarBola = $2465 
cargarCharset = $0B97 
cargarCharsetComun = $0B79 
cargarCharsetEsfinge = $0B84 
cargarCharsetFinal = $0B8F 
cargarCharsetInicial = $0B6E 
cargarCoordenadas = $1BBC 
cargarDiamanteL = $24A4 
cargarDiamanteR = $24AD 
cargarEstalactita = $24E3 
cargarFlecha = $2519 
cargarKey10 = $2546 
cargarKey2 = $2453 
cargarKey3 = $2477 
cargarKey4 = $2492 
cargarKey5 = $24B6 
cargarKey6 = $24C8 
cargarKey7 = $24F5 
cargarKey8 = $2507 
cargarKey9 = $2534 
cargarLock1 = $244A 
cargarLock10 = $254F 
cargarLock10_2 = $2558 
cargarLock2 = $24BF 
cargarLock3 = $2480 
cargarLock4 = $249B 
cargarLock6 = $24D1 
cargarLock7 = $24FE 
cargarLock8 = $2522 
cargarLock9 = $253D 
cargarMazo = $241D 
cargarMomia = $242F 
cargarMoscas = $2402 
cargarPalmas = $240B 
cargarPantalla = $0B0E 
cargarPez = $2510 
cargarPinchos1 = $2438 
cargarPinchos2 = $2441 
cargarPlayer = $2561 
cargarPrimeraPantalla = $08B7 
cargarRayo = $2489 
cargarRayo2 = $252B 
cargarSerpiente = $2414 
cargarSprite = $23D2 
cargarTablaScreens = $1E3E 
cargarTransporter1 = $245C 
cargarTransporter2 = $24DA 
cargarVolcan = $24EC 
ChangeDirectionX = $0CFA 
ChangeDirectionY = $0D40 
CHARS = $4740 
CHARS_ESFINGE = $4F40 
CHARS_FINAL = $5740 
CHARS_INICIAL = $3F40 
CHEAT_INFINITAS = $2AAC 
check = $1CDC 
Check_R = $0CAC 
CheckArana = $16AC 
CheckAro = $16FC 
CheckBola = $16EA 
checkCambioIzquierda = $187C 
CheckCambioPantalla = $0AB1 
checkCambiosdeCharSet = $0B55 
CheckCargaGota = $23E7 
CheckCargaGota2 = $23F0 
CheckCargaKey1 = $23F9 
CheckCargaMurcielago = $23DE 
checkCasoEspecial16 = $0BBE 
checkCasoEspecial21 = $0BC6 
checkCasoEspecial8 = $0BB6 
checkCasosEspeciales = $0BAB 
CheckCollision = $0F4E 
checkCorrect = $10B4 
CheckDiagonal = $1D8B 
CheckDown = $0CC0 
CheckEnemy = $0C8D 
CheckEstalactita = $178C 
CheckFlecha = $17DC 
CheckGota = $1638 
CheckGota2 = $164A 
checkKey10 = $147A 
checkKey2 = $1406 
checkKey3 = $1413 
checkKey4 = $1420 
checkKey5 = $142D 
checkKey6 = $143A 
checkKey7 = $1447 
checkKey8 = $145A 
checkKey9 = $146D 
CheckLock1 = $16D8 
CheckLock10_2 = $1824 
CheckLock2 = $1744 
CheckLock3 = $170E 
CheckLock4 = $1732 
CheckLock6 = $1756 
CheckLock7 = $17B0 
CheckLock8 = $17EE 
CheckLock9 = $1812 
CheckMazo = $169A 
CheckMomia = $16BE 
CheckMoscas = $165C 
CheckMurcielago = $161E 
CheckNewEnemy = $0F6D 
CheckNoMove = $0CCA 
CheckPalmas = $166E 
checkPantalla12 = $12FD 
checkPantalla16 = $130C 
checkPantalla17 = $132F 
checkPantalla21 = $133E 
checkPantalla26 = $1361 
checkPantalla36 = $1384 
checkPantalla37 = $13A7 
checkPantalla43 = $13B6 
checkPantalla8 = $12B7 
checkPantalla9 = $12DA 
checkPantallaN = $13C5 
CheckPez = $17C2 
CheckRayo = $1720 
CheckRayo2 = $1800 
checkSegundaLlave = $0FA8 
CheckSerpiente = $1680 
checkTransport12 = $1019 
checkTransport17 = $102D 
checkTransport22 = $1041 
checkTransport25 = $1055 
checkTransport36 = $1069 
checkTransport37 = $10D9 
checkTransport43 = $10ED 
CheckTransporter1 = $1768 
CheckTransporter2 = $177A 
CheckUpDown = $0CB6 
CheckVolcan = $179E 
checkX = $1075 
cifraIncorrecta = $0A13 
ckeckPantalla6 = $1294 
ClearLineasBitmapScreenColorLoop = $348F 
ClearLineasBitmapScreenLoop = $347A 
CogerLlave = $0FB8 
CogerLlaveSegundaPosicion = $0FC9 
ColisionSinMuerteLlave = $0FEA 
ColisionSinMuertePuerta = $0FE4 
colocarSprite = $1BF3 
COLOR_DIAMANTE = $2A9F 
COLOR_LINE_OFFSET_TABLE_HI = $28E7 
COLOR_PUERTA = $2AAB 
colorCorrecto = $10C9 
colores = $108E 
coloresMenores = $1086 
columnaPuerta = $125C 
columnaPuertaColor = $121F 
comprobarCyan = $0A2B 
comprobarMorado = $0A3D 
comprobarVerde = $0A34 
compruebaNumero = $0A0C 
compruebaSalidaIzquierda = $0AC4 
compruebaTeclado = $1DA2 
compruebaY = $0ACB 
CONT_BYTES_LINEA = $2A9C 
CONT_DESTINO = $2A9B 
CONT_ORIGEN = $2A9A 
cont1 = $1AA9 
cont2 = $1ABA 
contInstrucciones1 = $19ED 
contInstrucciones2 = $19F6 
CONTROL_MOVIMIENTO = $2AA6 
CopyBitmapColor = $1C91 
CopyCharSet = $1C36 
copyFila1 = $14C7 
copyFila2 = $1508 
copyLoop = $1CA3 
copySpriteAPergamino = $14C5 
copySpriteAPergamino1 = $149D 
copySpriteAPergamino2 = $14B1 
CopySprites = $1C6C 
CUR_SCREEN = $2843 
decrementar = $1583 
deshabilitarSalto = $0C10 
dirKey7OK = $1459 
dirKey8OK = $146C 
doAnimatePlayerLeft = $18C5 
doAnimatePlayerRight = $18EF 
doPlayerCotrol = $1CAC 
efectoAbrirPuerta = $11F6 
elegirColorDiamante = $0A16 
endAnimateDoubleSprite = $18A8 
endAnimatePlayerLeft = $18E5 
endAnimatePlayerRight = $190F 
endAnimateSimpleSprite = $18BB 
endAnimateSoloBajada = $1863 
endAnimation = $1836 
endCargaSprite = $2563 
endCheck = $0B52 
endCheckTransport = $10FE 
endLoadEnemies = $1BEF 
endLoop = $08ED 
ENEMIES_CUR_SCREEN = $2848 
ENEMY_ANIM_DELAY = $2867 
ENEMY_ANIM_DELAY_CUR = $286D 
ENEMY_COLOR = $2873 
ENEMY_DIRECTION = $284F 
ENEMY_END_X_POS = $2885 
ENEMY_END_Y_POS = $288B 
ENEMY_INI_X_POS = $2879 
ENEMY_INI_Y_POS = $287F 
ENEMY_MOV_DELAY = $285B 
ENEMY_MOV_DELAY_CUR = $2861 
ENEMY_MOVEMENT = $2855 
ENEMY_TYPE = $2849 
esCero = $1593 
esCyan = $10AD 
esEnemigoLeft = $0DAC 
esEnemigoUp = $0E70 
esGreen = $10A8 
esPurple = $10A3 
esRed = $109E 
esRojo = $0A46 
estadoPuerta12 = $1179 
estadoPuerta16 = $118C 
estadoPuerta17 = $11AA 
estadoPuerta21 = $119B 
estadoPuerta26 = $11B9 
estadoPuerta36 = $11C8 
estadoPuerta37 = $11D7 
estadoPuerta43 = $11E6 
estadoPuerta6 = $114C 
estadoPuerta8 = $115B 
estadoPuerta9 = $116A 
esYellow = $10B2 
FALL_SPEED_TABLE = $291D 
filaPuertaColor = $1204 
filaQuitarPuerta = $1242 
finActualizarEstadoPuerta = $11F5 
finCheckCasosEspeciales = $0C2B 
finColor = $1B47 
finColoreado = $1A4D 
finDatos = $1AE1 
finElegirColorDiamante = $0A48 
finInstruccionesDatos = $1A1C 
finishsfxpointer = $26DB 
finObtenerCifras = $0A15 
finQuitarPuerta = $126D 
finTeclasCheat = $095C 
finTeclasDebug = $09E9 
fxno = $26DD 
fxpointer = $26DC 
fxsm1 = $2693 
fxsm2 = $26A5 
fxvoice1 = $26E7 
fxvoice2 = $26FE 
fxvoice4 = $271D 
fxvoice5 = $2755 
fxvoice6 = $27A3 
fxvoice7 = $27CF 
fxvoice8 = $27F9 
fxvoice9 = $2831 
fxwave1 = $26DE 
fxwave2 = $26F0 
fxwave4 = $270C 
fxwave5 = $272E 
fxwave6 = $277C 
fxwave7 = $27CC 
fxwave8 = $27D2 
fxwave9 = $2820 
GameLoop = $08C2 
getMemPosSprite = $13F9 
incNumPantalla = $15D9 
inicio = $0861 
inicioCambioColor = $1200 
InicioPlayer = $15AD 
inicioTrasInstrucciones = $086B 
initGame = $08F0 
initpickedfx = $259C 
initPlayer = $091E 
initSounds = $2575 
InitTitleIRQ = $33EC 
Instrucciones_screen_data = $82C2 
INVENTARIO = $2927 
inventarioVacio = $149C 
IrqSetBitmapMode = $3444 
IrqSetTextMode = $341A 
IsCharBlocking = $2567 
leerJoystickYTeclado = $1DA2 
loadEnemies = $1B82 
loadSalidas = $1B5C 
loadScreenData = $1A71 
loopPergamino = $349A 
mostrarCoordenadas = $0A4C 
mostrarInstrucciones = $08A6 
mostrarInventario = $1483 
mostrarXH = $0A6D 
mostrarXL = $0A80 
mostrarYH = $0A9A 
mostrarYL = $0AAD 
MoveDown = $0D65 
MoveDownY = $0D58 
MoveEnemies = $0C85 
MoveEnemyDown = $0D5C 
MoveEnemyLeftRight = $0CEA 
MoveEnemyRight = $0D16 
MoveEnemyUpDown = $0D30 
MoveLeftRight = $0D07 
MoveRight = $0D2C 
MoveRightX = $0D12 
moverSprite = $0C99 
MoveSpriteDown = $0F41 
MoveSpriteLeft = $0EF9 
MoveSpriteRight = $0F16 
MoveSpriteUp = $0F34 
MoveUpDown = $0D4D 
Muerte = $0FDA 
MUSIC_PLAYER = $2C00 
NextEnemy = $0CE4 
nextScreen = $15F1 
NextSprite = $0FDE 
noCambiaPaginaInicio = $1256 
noCambiaPaginaInicioColor = $1218 
NoCollision = $0FFF 
noCollisionBackGround = $0F67 
noDecenas = $157A 
noFinal = $08E2 
noFinLineaColor = $1B3A 
noFinLineaDato = $1AD4 
noFinLineaInstruccionesDato = $1A0F 
noIncPage = $1504 
NoMuerte = $0B1C 
noPasoDePaginaColor = $1B41 
noPasoDePaginaDato = $1ADB 
noPasoDePaginaInstruccionesDato = $1A16 
noTransport = $1139 
notsilence = $2683 
notsound1 = $25C0 
notsound2 = $25D9 
notsound3 = $25D9 
notsound4 = $25F2 
notsound5 = $260B 
notsound6 = $2624 
notsound7 = $263D 
notsound8 = $2656 
notsound9 = $266F 
numeroXH = $0A6A 
numeroXL = $0A7D 
numeroYH = $0A97 
numeroYL = $0AAA 
obtenerCifra2 = $09F8 
obtenerCifras = $09ED 
obtenerPosicion = $09AE 
OyA = $1E1A 
OyQ = $1E15 
pantallaFinal = $093D 
PLAYER_ANIM_DELAY = $2842 
PLAYER_CURR_JUMP_TABLE_LENGTH = $28FA 
PLAYER_ENTRADA_DIRECCION = $28BA 
PLAYER_ENTRADA_FALL_POS = $28B9 
PLAYER_ENTRADA_JUMP_POS = $28B8 
PLAYER_FALL_POS = $291C 
PLAYER_JUMP_POS = $28F9 
PLAYER_JUMP_TABLE_LONG = $2908 
PLAYER_JUMP_TABLE_SHORT = $28FB 
PLAYER_POS_ENTRADA_PANTALLA_X = $28B6 
PLAYER_POS_ENTRADA_PANTALLA_Y = $28B7 
PlayerControl = $1CAC 
PlayerDeath = $153D 
playpickedfx = $2684 
playsoundeffect = $2690 
ponerColorDiamante = $1BB6 
ponerQuitarPergamino = $3498 
ponerSprite = $1BE7 
PUERTA_ANCHO = $2AAA 
PUERTA_COLUMNA_INI = $2AA9 
PUERTA_FILA_FIN = $2AA8 
PUERTA_FILA_INI = $2AA7 
PUERTAS_ABIERTAS = $2A9D 
pulsaAbajo = $09D9 
pulsaArriba = $09D4 
pulsaDerecha = $09CF 
PulsadoA = $1E2E 
PulsadoO = $1E29 
PulsadoP = $1E33 
PulsadoQ = $1E38 
pulsaIzquierda = $09CA 
PyA = $1E24 
PyQ = $1E1F 
quitarPuerta = $123E 
rellenarBitmapMemory = $3476 
resetAnim1 = $188E 
resetAnim2 = $18A3 
resetAnimPlayerLeft = $18DB 
resetAnimPlayerRight = $1905 
resetAnimSimpleSprite = $18B6 
resetAnimSoloBajada = $1851 
resetScreenVisit = $15ED 
salidaAbajo = $0B03 
salidaArriba = $0AF5 
salidaDerecha = $0AE7 
salidaIzquierda = $0AD9 
salidaPantalla16Derecha = $0BF1 
salidaPantalla21Derecha = $0C02 
salidaPantalla4Derecha = $0BCF 
salidaPantalla8Derecha = $0BE0 
SALIDAS_CURR_SCREEN = $2844 
salir = $1E3A 
Score_colour_data = $8422 
Score_screen_data = $83FA 
Screen_0_colour_data = $8269 
Screen_0_info_data = $82BD 
Screen_0_screen_data = $81C0 
Screen_1_colour_data = $8594 
Screen_1_info_data = $860D 
Screen_1_screen_data = $844A 
Screen_10_colour_data = $948B 
Screen_10_info_data = $94DF 
Screen_10_screen_data = $933F 
Screen_11_colour_data = $962A 
Screen_11_info_data = $9693 
Screen_11_screen_data = $950A 
Screen_12_colour_data = $980E 
Screen_12_info_data = $9878 
Screen_12_screen_data = $96B0 
Screen_13_colour_data = $99ED 
Screen_13_info_data = $9A55 
Screen_13_screen_data = $98A3 
Screen_14_colour_data = $9B51 
Screen_14_info_data = $9B78 
Screen_14_screen_data = $9A72 
Screen_15_colour_data = $9C9E 
Screen_15_info_data = $9CDB 
Screen_15_screen_data = $9B95 
Screen_16_colour_data = $9E6B 
Screen_16_info_data = $9EC6 
Screen_16_screen_data = $9CF8 
Screen_17_colour_data = $A043 
Screen_17_info_data = $A080 
Screen_17_screen_data = $9EF1 
Screen_18_colour_data = $A19E 
Screen_18_info_data = $A203 
Screen_18_screen_data = $A0AC 
Screen_19_colour_data = $A34D 
Screen_19_info_data = $A39A 
Screen_19_screen_data = $A220 
Screen_2_colour_data = $871F 
Screen_2_info_data = $8763 
Screen_2_screen_data = $8631 
Screen_20_colour_data = $A4DC 
Screen_20_info_data = $A529 
Screen_20_screen_data = $A3B7 
Screen_21_colour_data = $A672 
Screen_21_info_data = $A6CA 
Screen_21_screen_data = $A54D 
Screen_22_colour_data = $A7B5 
Screen_22_info_data = $A808 
Screen_22_screen_data = $A6EE 
Screen_23_colour_data = $A947 
Screen_23_info_data = $A993 
Screen_23_screen_data = $A82C 
Screen_24_colour_data = $AAA1 
Screen_24_info_data = $AADB 
Screen_24_screen_data = $A9B0 
Screen_25_colour_data = $AC28 
Screen_25_info_data = $AC81 
Screen_25_screen_data = $AAF8 
Screen_26_colour_data = $ADFE 
Screen_26_info_data = $AE59 
Screen_26_screen_data = $ACAB 
Screen_27_colour_data = $AFA4 
Screen_27_info_data = $B011 
Screen_27_screen_data = $AE7D 
Screen_28_colour_data = $B151 
Screen_28_info_data = $B1A4 
Screen_28_screen_data = $B03C 
Screen_29_colour_data = $B2FE 
Screen_29_info_data = $B352 
Screen_29_screen_data = $B1C1 
Screen_3_colour_data = $88AB 
Screen_3_info_data = $88FD 
Screen_3_screen_data = $877F 
Screen_30_colour_data = $B455 
Screen_30_info_data = $B493 
Screen_30_screen_data = $B376 
Screen_31_colour_data = $B56F 
Screen_31_info_data = $B5A4 
Screen_31_screen_data = $B4A8 
Screen_32_colour_data = $B6AF 
Screen_32_info_data = $B6E8 
Screen_32_screen_data = $B5C1 
Screen_33_colour_data = $B808 
Screen_33_info_data = $B854 
Screen_33_screen_data = $B705 
Screen_34_colour_data = $B9B9 
Screen_34_info_data = $BA04 
Screen_34_screen_data = $B871 
Screen_35_colour_data = $BB2E 
Screen_35_info_data = $BB8A 
Screen_35_screen_data = $BA21 
Screen_36_colour_data = $BCFE 
Screen_36_info_data = $BD4D 
Screen_36_screen_data = $BBA7 
Screen_37_colour_data = $BEC6 
Screen_37_info_data = $BF41 
Screen_37_screen_data = $BD69 
Screen_38_colour_data = $C061 
Screen_38_info_data = $C0C1 
Screen_38_screen_data = $BF6C 
Screen_39_colour_data = $C1C5 
Screen_39_info_data = $C1FE 
Screen_39_screen_data = $C0EC 
Screen_4_colour_data = $8A53 
Screen_4_info_data = $8A9D 
Screen_4_screen_data = $8928 
Screen_40_colour_data = $C2FD 
Screen_40_info_data = $C34D 
Screen_40_screen_data = $C21B 
Screen_41_colour_data = $C463 
Screen_41_info_data = $C4BF 
Screen_41_screen_data = $C36A 
Screen_42_colour_data = $C60B 
Screen_42_info_data = $C658 
Screen_42_screen_data = $C4DC 
Screen_43_colour_data = $C7B3 
Screen_43_info_data = $C80D 
Screen_43_screen_data = $C675 
Screen_44_colour_data = $C989 
Screen_44_info_data = $C9D2 
Screen_44_screen_data = $C838 
Screen_45_colour_data = $CB3F 
Screen_45_info_data = $CB94 
Screen_45_screen_data = $C9F6 
Screen_5_colour_data = $8C15 
Screen_5_info_data = $8C69 
Screen_5_screen_data = $8AC1 
Screen_6_colour_data = $8DE3 
Screen_6_info_data = $8E24 
Screen_6_screen_data = $8C86 
Screen_7_colour_data = $8F98 
Screen_7_info_data = $8FE7 
Screen_7_screen_data = $8E4F 
Screen_8_colour_data = $913D 
Screen_8_info_data = $917F 
Screen_8_screen_data = $9004 
Screen_9_colour_data = $92D4 
Screen_9_info_data = $931B 
Screen_9_screen_data = $91A3 
SCREEN_CHARSET = $2A6B 
SCREEN_CHARSET_ACTUAL = $2A99 
SCREEN_LINE_OFFSET_TABLE_HI = $28D5 
SCREEN_LINE_OFFSET_TABLE_LO = $28C3 
SCREENS_COLOR_TABLE_HI = $29B3 
SCREENS_COLOR_TABLE_LO = $29E1 
SCREENS_DATA_TABLE_HI = $2957 
SCREENS_DATA_TABLE_LO = $2985 
SCREENS_INFO_TABLE_HI = $2A0F 
SCREENS_INFO_TABLE_LO = $2A3D 
SCREENS_VISITED = $2929 
seguir = $1DBA 
shortJump = $1CD9 
siguienteColor = $1230 
Silence = $27CA 
sinCambioCharset = $0BA9 
soloInventario = $0FFC 
SPRITE_CHAR_POS_X = $289E 
SPRITE_CHAR_POS_X_DELTA = $28A4 
SPRITE_CHAR_POS_Y = $28AA 
SPRITE_CHAR_POS_Y_DELTA = $28B0 
SPRITE_POS_X = $2891 
SPRITE_POS_X_EXTEND = $2897 
SPRITE_POS_Y = $2898 
SpriteMoveDown = $0E94 
SpriteMoveLeft = $0D69 
SpriteMoveRight = $0DCB 
SpriteMoveUp = $0E2D 
SPRITES = $5F40 
spritesDelanteFondo = $1A5F 
spritesTrasFondo = $1A5A 
teclaPulsada = $089B 
TECLAS_DEBUG = $2AA2 
TECLAS_DEBUG_POS = $2AA1 
teclasCheat = $0950 
teclasDebug = $095D 
TocarCerradura = $0F8E 
TocarTransportador = $0F88 
transportar = $1002 
updateSpritePriority = $1A61 
usarObjeto = $126E 
vaciarInventario = $13C6 
VALOR_DIAMANTE = $2AA0 
voiceOK = $26BA 
WaitFrame = $1C12 
WaitFrame2 = $1C24 
waitKeyPressFin = $0947 
waitKeyPressInicio = $0889 
waitKeyPressInstrucciones = $08AC 
waveOK = $269C 

******* 217 Variable(s) *******
BACKGROUND_COLLISION  = $D01F
BITMAP_PERGAMINO_ADDR_FILA_1_1  = $3990
BITMAP_PERGAMINO_ADDR_FILA_1_2  = $39A0
BITMAP_PERGAMINO_ADDR_FILA_2_1  = $3AD0
BITMAP_PERGAMINO_ADDR_FILA_2_2  = $3AE0
BITMAP_SCREEN_COLOR  = $06F8
BLACK  = $0000
BLUE  = $0006
BROWN  = $0009
CIA_DATA_DIRECTION_A  = $DC02
CIA_DATA_DIRECTION_B  = $DC03
CIA_PORT_A  = $DC00
CIA_PORT_B  = $DC01
CIA_PRA  = $DD00
CONST_PLAYER_ANIM_DELAY  = $0003
CS_ESF  = $0002
CS_FIN  = $0005
CS_GEN  = $0001
CS_INI  = $0003
CYAN  = $0003
DARK_GRAY  = $000B
FALL_TABLE_SIZE  = $000A
GREEN  = $0005
JOYSTICK  = $DC00
JUMP_TABLE_SIZE_LONG  = $0014
JUMP_TABLE_SIZE_SHORT  = $000D
KERNAL_GETIN  = $FFE4
KEY_1  = $0031
KEY_2  = $0032
KEY_A  = $0041
KEY_C  = $0043
KEY_ENTER  = $000D
KEY_F  = $0046
KEY_G  = $0047
KEY_J  = $004A
KEY_O  = $004F
KEY_P  = $0050
KEY_Q  = $0051
LIGHT_BLUE  = $000E
LIGHT_GRAY  = $000F
LIGHT_GREEN  = $000D
LIGHT_RED  = $000A
MEDIUM_GRAY  = $000C
MOVE_DOWN  = $00FF
MOVE_LEFT  = $0000
MOVE_RIGHT  = $00FF
MOVE_UP  = $0000
NUMBER_OF_SPRITES_DIV_4  = $0023
ORANGE  = $0008
PARAM1  = $0003
PARAM2  = $0004
PARAM3  = $0005
PARAM4  = $0006
PARAM5  = $0007
PARAM6  = $0008
PARAM7  = $0009
PARAM8  = $000A
PERGAMINO_OFF  = $0000
PERGAMINO_ON  = $0007
PURPLE  = $0004
RED  = $0002
SCREEN_CHAR  = $CC00
SCREEN_COLOR  = $D800
SCREEN_LIVES  = $CEC7
SCREEN_SCORE_CHAR  = $CEA8
SCREEN_SCORE_COLOR  = $DAA8
SCREEN_VISIT  = $CEBA
SID_AD_V1  = $D405
SID_AD_V2  = $D40C
SID_AD_V3  = $D413
SID_CONTROL_V1  = $D404
SID_CONTROL_V2  = $D40B
SID_CONTROL_V3  = $D412
SID_FREQ_V1  = $D401
SID_FREQ_V2  = $D408
SID_FREQ_V3  = $D40F
SID_PULSE_WIDTH_HI_V1  = $D403
SID_PULSE_WIDTH_HI_V2  = $D40A
SID_PULSE_WIDTH_HI_V3  = $D411
SID_PULSE_WIDTH_LO_V1  = $D402
SID_PULSE_WIDTH_LO_V2  = $D409
SID_PULSE_WIDTH_LO_V3  = $D410
SID_SR_V1  = $D406
SID_SR_V2  = $D40D
SID_SR_V3  = $D414
SID_VOL_FILTERS  = $D418
SID_VOLUME  = $D418
SND_GAMEOVER  = $0006
SND_GOTA  = $0007
SND_MORIR  = $0005
SND_OBJETO  = $0004
SND_PASOS  = $0001
SND_PUERTA  = $0008
SND_SALTO  = $0002
SND_SILENCIO  = $00FF
SND_TRANSPORT  = $0009
SP_ARANA  = $0008
SP_ARO  = $000D
SP_BOLA  = $000C
SP_D  = $0004
SP_DIAMANTE_L  = $000F
SP_DIAMANTE_R  = $0010
SP_ESTALACTITA  = $0011
SP_FLECHA  = $0015
SP_GOTA  = $0001
SP_GOTA_2  = $0013
SP_KEY_1  = $005B
SP_KEY_10  = $0064
SP_KEY_2  = $005C
SP_KEY_3  = $005D
SP_KEY_4  = $005E
SP_KEY_5  = $005F
SP_KEY_6  = $0060
SP_KEY_7  = $0061
SP_KEY_8  = $0062
SP_KEY_9  = $0063
SP_LOCK_1  = $0033
SP_LOCK_10  = $003C
SP_LOCK_10_2  = $003D
SP_LOCK_2  = $0034
SP_LOCK_3  = $0035
SP_LOCK_4  = $0036
SP_LOCK_6  = $0038
SP_LOCK_7  = $0039
SP_LOCK_8  = $003A
SP_LOCK_9  = $003B
SP_LR  = $0001
SP_MAZO  = $0007
SP_MOMIA  = $0009
SP_MOSCAS  = $0004
SP_MURCIELAGO  = $0002
SP_NONE  = $0000
SP_PALMAS  = $0005
SP_PEZ  = $0014
SP_PINCHOS_1  = $000A
SP_PINCHOS_2  = $000B
SP_PLANO  = $0003
SP_PLAYER  = $0000
SP_R  = $0002
SP_RAYO  = $000E
SP_RAYO_2  = $0016
SP_SERPIENTE  = $0006
SP_START_KEYS  = $005A
SP_START_LOCKS  = $0032
SP_START_TRANSPORTERS  = $0046
SP_TRANSPORTER_1  = $0047
SP_TRANSPORTER_2  = $0048
SP_UD  = $0003
SP_VOLCAN  = $0012
SPRITE_ARANA  = $007C
SPRITE_ARO  = $0091
SPRITE_BASE  = $0040
SPRITE_BOLA  = $008F
SPRITE_COLLISION  = $D01E
SPRITE_COLOR_BASE  = $D027
SPRITE_DIAMANTE_L  = $00A0
SPRITE_DIAMANTE_R  = $00A1
SPRITE_ESTALACTITA  = $00AA
SPRITE_FLECHA  = $00C0
SPRITE_GOTA  = $004C
SPRITE_KEY_1  = $0065
SPRITE_KEY_10  = $00C6
SPRITE_KEY_2  = $008D
SPRITE_KEY_3  = $0097
SPRITE_KEY_4  = $009D
SPRITE_KEY_5  = $00A2
SPRITE_KEY_6  = $00A5
SPRITE_KEY_7  = $00B4
SPRITE_KEY_8  = $00B7
SPRITE_KEY_9  = $00C3
SPRITE_LOCK_1  = $008B
SPRITE_LOCK_10  = $00C9
SPRITE_LOCK_10_2  = $00C7
SPRITE_LOCK_2  = $00A3
SPRITE_LOCK_3  = $0098
SPRITE_LOCK_4  = $009E
SPRITE_LOCK_6  = $00A6
SPRITE_LOCK_7  = $00B5
SPRITE_LOCK_8  = $00C1
SPRITE_LOCK_9  = $00C4
SPRITE_MAZO  = $0076
SPRITE_MOMIA_L  = $0081
SPRITE_MOMIA_R  = $0085
SPRITE_MOSCAS  = $0066
SPRITE_MURCIELAGO_L  = $0051
SPRITE_MURCIELAGO_R  = $0057
SPRITE_PALMAS  = $006A
SPRITE_PEZ_D  = $00BC
SPRITE_PEZ_U  = $00B8
SPRITE_PINCHOS_1  = $0089
SPRITE_PINCHOS_2  = $008A
SPRITE_PLANO  = $005D
SPRITE_PLAYER  = $0040
SPRITE_POINTER_BASE  = $CFF8
SPRITE_RAYO  = $009A
SPRITE_SERPIENTE_L  = $006E
SPRITE_SERPIENTE_R  = $0072
SPRITE_TRANSPORTER_1  = $008E
SPRITE_TRANSPORTER_2  = $00A8
SPRITE_VOLCAN  = $00AF
tgt_c64  = $0001
VIC_BACKGROUND_COLOR  = $D021
VIC_BORDER_COLOR  = $D020
VIC_CONTROL  = $D016
VIC_MEMORY_CONTROL  = $D018
VIC_SCREEN_CONTROL  = $D011
VIC_SPRITE_ENABLE  = $D015
VIC_SPRITE_PRIORITY  = $D01B
VIC_SPRITE_X_EXTEND  = $D010
VIC_SPRITE_X_POS  = $D000
VIC_SPRITE_Y_POS  = $D001
WHITE  = $0001
YELLOW  = $0007
ZEROPAGE_POINTER_1  = $0017
ZEROPAGE_POINTER_2  = $0019
ZEROPAGE_POINTER_3  = $0021
ZEROPAGE_POINTER_4  = $0023
